

Microchip MPLAB XC8 Assembler V2.46 build 20240104201356 
                                                                                               Thu Aug 29 23:05:57 2024

Microchip MPLAB XC8 C Compiler v2.46 (Free license) build 20240104201356 Og1 
     1                           	processor	16F886
     2                           	pagewidth 120
     3                           	opt	flic
     4                           	psect	idataBANK0,global,class=CODE,delta=2,noexec
     5                           	psect	cinit,global,class=CODE,merge=1,delta=2
     6                           	psect	bssBANK0,global,class=BANK0,space=1,delta=1,noexec
     7                           	psect	dataBANK0,global,class=BANK0,space=1,delta=1,noexec
     8                           	psect	bssBANK1,global,class=BANK1,space=1,delta=1,noexec
     9                           	psect	cstackCOMMON,global,class=COMMON,space=1,delta=1,noexec
    10                           	psect	cstackBANK0,global,class=BANK0,space=1,delta=1,noexec
    11                           	psect	maintext,global,class=CODE,split=1,delta=2
    12                           	psect	text1,local,class=CODE,merge=1,delta=2
    13                           	psect	text2,local,class=CODE,merge=1,delta=2
    14                           	psect	text3,local,class=CODE,merge=1,delta=2,group=1
    15                           	psect	text4,local,class=CODE,merge=1,delta=2
    16                           	psect	text5,local,class=CODE,merge=1,delta=2
    17                           	psect	text6,local,class=CODE,merge=1,delta=2
    18                           	psect	text7,local,class=CODE,merge=1,delta=2
    19                           	psect	text8,local,class=CODE,merge=1,delta=2
    20                           	psect	text9,local,class=CODE,merge=1,delta=2
    21                           	psect	text10,local,class=CODE,merge=1,delta=2,group=1
    22                           	psect	text11,local,class=CODE,merge=1,delta=2,group=1
    23                           	psect	text12,local,class=CODE,merge=1,delta=2,group=1
    24                           	psect	text13,local,class=CODE,merge=1,delta=2,group=1
    25                           	psect	text14,local,class=CODE,merge=1,delta=2,group=1
    26                           	psect	text15,local,class=CODE,merge=1,delta=2,group=1
    27                           	psect	text16,local,class=CODE,merge=1,delta=2,group=1
    28                           	psect	text17,local,class=CODE,merge=1,delta=2,group=1
    29                           	psect	text18,local,class=CODE,merge=1,delta=2
    30                           	psect	text19,local,class=CODE,merge=1,delta=2,group=1
    31                           	psect	text20,local,class=CODE,merge=1,delta=2,group=1
    32                           	psect	text21,local,class=CODE,merge=1,delta=2
    33                           	psect	text22,local,class=CODE,merge=1,delta=2
    34                           	psect	text23,local,class=CODE,merge=1,delta=2
    35                           	psect	text24,local,class=CODE,merge=1,delta=2
    36                           	psect	config,global,abs,ovrld,class=CONFIG,space=4,delta=2,noexec
    37                           	dabs	1,0x7E,2
    38     0000                     
    39                           ; Generated 12/10/2023 GMT
    40                           ; 
    41                           ; Copyright © 2023, Microchip Technology Inc. and its subsidiaries ("Microchip")
    42                           ; All rights reserved.
    43                           ; 
    44                           ; This software is developed by Microchip Technology Inc. and its subsidiaries ("Microch
      +                          ip").
    45                           ; 
    46                           ; Redistribution and use in source and binary forms, with or without modification, are
    47                           ; permitted provided that the following conditions are met:
    48                           ; 
    49                           ;     1. Redistributions of source code must retain the above copyright notice, this lis
      +                          t of
    50                           ;        conditions and the following disclaimer.
    51                           ; 
    52                           ;     2. Redistributions in binary form must reproduce the above copyright notice, this 
      +                          list
    53                           ;        of conditions and the following disclaimer in the documentation and/or other
    54                           ;        materials provided with the distribution. Publication is not required when
    55                           ;        this file is used in an embedded application.
    56                           ; 
    57                           ;     3. Microchip's name may not be used to endorse or promote products derived from th
      +                          is
    58                           ;        software without specific prior written permission.
    59                           ; 
    60                           ; THIS SOFTWARE IS PROVIDED BY MICROCHIP "AS IS" AND ANY EXPRESS OR IMPLIED WARRANTIES,
    61                           ; INCLUDING, BUT NOT LIMITED TO, THE IMPLIED WARRANTIES OF MERCHANTABILITY AND FITNESS F
      +                          OR
    62                           ; PURPOSE ARE DISCLAIMED.  IN NO EVENT SHALL MICROCHIP BE LIABLE FOR ANY DIRECT, INDIREC
      +                          T,
    63                           ; INCIDENTAL, SPECIAL, EXEMPLARY, OR CONSEQUENTIAL DAMAGES (INCLUDING BUT NOT LIMITED TO
    64                           ; PROCUREMENT OF SUBSTITUTE GOODS OR SERVICES; LOSS OF USE, DATA OR PROFITS; OR BUSINESS
    65                           ; INTERRUPTION) HOWSOEVER CAUSED AND ON ANY THEORY OF LIABILITY, WHETHER IN CONTRACT, ST
      +                          RICT
    66                           ; LIABILITY, OR TORT (INCLUDING NEGLIGENCE OR OTHERWISE) ARISING IN ANY WAY OUT OF THE U
      +                          SE OF
    67                           ; THIS SOFTWARE, EVEN IF ADVISED OF THE POSSIBILITY OF SUCH DAMAGE.
    68                           ; 
    69                           ; 
    70                           ; Code-generator required, PIC16F886 Definitions
    71                           ; 
    72                           ; SFR Addresses
    73     0000                     	;# 
    74     0001                     	;# 
    75     0002                     	;# 
    76     0003                     	;# 
    77     0004                     	;# 
    78     0005                     	;# 
    79     0006                     	;# 
    80     0007                     	;# 
    81     0009                     	;# 
    82     000A                     	;# 
    83     000B                     	;# 
    84     000C                     	;# 
    85     000D                     	;# 
    86     000E                     	;# 
    87     000E                     	;# 
    88     000F                     	;# 
    89     0010                     	;# 
    90     0011                     	;# 
    91     0012                     	;# 
    92     0013                     	;# 
    93     0014                     	;# 
    94     0015                     	;# 
    95     0015                     	;# 
    96     0016                     	;# 
    97     0017                     	;# 
    98     0018                     	;# 
    99     0019                     	;# 
   100     001A                     	;# 
   101     001B                     	;# 
   102     001B                     	;# 
   103     001C                     	;# 
   104     001D                     	;# 
   105     001E                     	;# 
   106     001F                     	;# 
   107     0081                     	;# 
   108     0085                     	;# 
   109     0086                     	;# 
   110     0087                     	;# 
   111     0089                     	;# 
   112     008C                     	;# 
   113     008D                     	;# 
   114     008E                     	;# 
   115     008F                     	;# 
   116     0090                     	;# 
   117     0091                     	;# 
   118     0092                     	;# 
   119     0093                     	;# 
   120     0093                     	;# 
   121     0093                     	;# 
   122     0094                     	;# 
   123     0095                     	;# 
   124     0096                     	;# 
   125     0097                     	;# 
   126     0098                     	;# 
   127     0099                     	;# 
   128     009A                     	;# 
   129     009B                     	;# 
   130     009C                     	;# 
   131     009D                     	;# 
   132     009E                     	;# 
   133     009F                     	;# 
   134     0105                     	;# 
   135     0107                     	;# 
   136     0108                     	;# 
   137     0109                     	;# 
   138     010C                     	;# 
   139     010C                     	;# 
   140     010D                     	;# 
   141     010E                     	;# 
   142     010F                     	;# 
   143     0185                     	;# 
   144     0187                     	;# 
   145     0188                     	;# 
   146     0189                     	;# 
   147     018C                     	;# 
   148     018D                     	;# 
   149     0000                     	;# 
   150     0001                     	;# 
   151     0002                     	;# 
   152     0003                     	;# 
   153     0004                     	;# 
   154     0005                     	;# 
   155     0006                     	;# 
   156     0007                     	;# 
   157     0009                     	;# 
   158     000A                     	;# 
   159     000B                     	;# 
   160     000C                     	;# 
   161     000D                     	;# 
   162     000E                     	;# 
   163     000E                     	;# 
   164     000F                     	;# 
   165     0010                     	;# 
   166     0011                     	;# 
   167     0012                     	;# 
   168     0013                     	;# 
   169     0014                     	;# 
   170     0015                     	;# 
   171     0015                     	;# 
   172     0016                     	;# 
   173     0017                     	;# 
   174     0018                     	;# 
   175     0019                     	;# 
   176     001A                     	;# 
   177     001B                     	;# 
   178     001B                     	;# 
   179     001C                     	;# 
   180     001D                     	;# 
   181     001E                     	;# 
   182     001F                     	;# 
   183     0081                     	;# 
   184     0085                     	;# 
   185     0086                     	;# 
   186     0087                     	;# 
   187     0089                     	;# 
   188     008C                     	;# 
   189     008D                     	;# 
   190     008E                     	;# 
   191     008F                     	;# 
   192     0090                     	;# 
   193     0091                     	;# 
   194     0092                     	;# 
   195     0093                     	;# 
   196     0093                     	;# 
   197     0093                     	;# 
   198     0094                     	;# 
   199     0095                     	;# 
   200     0096                     	;# 
   201     0097                     	;# 
   202     0098                     	;# 
   203     0099                     	;# 
   204     009A                     	;# 
   205     009B                     	;# 
   206     009C                     	;# 
   207     009D                     	;# 
   208     009E                     	;# 
   209     009F                     	;# 
   210     0105                     	;# 
   211     0107                     	;# 
   212     0108                     	;# 
   213     0109                     	;# 
   214     010C                     	;# 
   215     010C                     	;# 
   216     010D                     	;# 
   217     010E                     	;# 
   218     010F                     	;# 
   219     0185                     	;# 
   220     0187                     	;# 
   221     0188                     	;# 
   222     0189                     	;# 
   223     018C                     	;# 
   224     018D                     	;# 
   225     0000                     	;# 
   226     0001                     	;# 
   227     0002                     	;# 
   228     0003                     	;# 
   229     0004                     	;# 
   230     0005                     	;# 
   231     0006                     	;# 
   232     0007                     	;# 
   233     0009                     	;# 
   234     000A                     	;# 
   235     000B                     	;# 
   236     000C                     	;# 
   237     000D                     	;# 
   238     000E                     	;# 
   239     000E                     	;# 
   240     000F                     	;# 
   241     0010                     	;# 
   242     0011                     	;# 
   243     0012                     	;# 
   244     0013                     	;# 
   245     0014                     	;# 
   246     0015                     	;# 
   247     0015                     	;# 
   248     0016                     	;# 
   249     0017                     	;# 
   250     0018                     	;# 
   251     0019                     	;# 
   252     001A                     	;# 
   253     001B                     	;# 
   254     001B                     	;# 
   255     001C                     	;# 
   256     001D                     	;# 
   257     001E                     	;# 
   258     001F                     	;# 
   259     0081                     	;# 
   260     0085                     	;# 
   261     0086                     	;# 
   262     0087                     	;# 
   263     0089                     	;# 
   264     008C                     	;# 
   265     008D                     	;# 
   266     008E                     	;# 
   267     008F                     	;# 
   268     0090                     	;# 
   269     0091                     	;# 
   270     0092                     	;# 
   271     0093                     	;# 
   272     0093                     	;# 
   273     0093                     	;# 
   274     0094                     	;# 
   275     0095                     	;# 
   276     0096                     	;# 
   277     0097                     	;# 
   278     0098                     	;# 
   279     0099                     	;# 
   280     009A                     	;# 
   281     009B                     	;# 
   282     009C                     	;# 
   283     009D                     	;# 
   284     009E                     	;# 
   285     009F                     	;# 
   286     0105                     	;# 
   287     0107                     	;# 
   288     0108                     	;# 
   289     0109                     	;# 
   290     010C                     	;# 
   291     010C                     	;# 
   292     010D                     	;# 
   293     010E                     	;# 
   294     010F                     	;# 
   295     0185                     	;# 
   296     0187                     	;# 
   297     0188                     	;# 
   298     0189                     	;# 
   299     018C                     	;# 
   300     018D                     	;# 
   301     0000                     	;# 
   302     0001                     	;# 
   303     0002                     	;# 
   304     0003                     	;# 
   305     0004                     	;# 
   306     0005                     	;# 
   307     0006                     	;# 
   308     0007                     	;# 
   309     0009                     	;# 
   310     000A                     	;# 
   311     000B                     	;# 
   312     000C                     	;# 
   313     000D                     	;# 
   314     000E                     	;# 
   315     000E                     	;# 
   316     000F                     	;# 
   317     0010                     	;# 
   318     0011                     	;# 
   319     0012                     	;# 
   320     0013                     	;# 
   321     0014                     	;# 
   322     0015                     	;# 
   323     0015                     	;# 
   324     0016                     	;# 
   325     0017                     	;# 
   326     0018                     	;# 
   327     0019                     	;# 
   328     001A                     	;# 
   329     001B                     	;# 
   330     001B                     	;# 
   331     001C                     	;# 
   332     001D                     	;# 
   333     001E                     	;# 
   334     001F                     	;# 
   335     0081                     	;# 
   336     0085                     	;# 
   337     0086                     	;# 
   338     0087                     	;# 
   339     0089                     	;# 
   340     008C                     	;# 
   341     008D                     	;# 
   342     008E                     	;# 
   343     008F                     	;# 
   344     0090                     	;# 
   345     0091                     	;# 
   346     0092                     	;# 
   347     0093                     	;# 
   348     0093                     	;# 
   349     0093                     	;# 
   350     0094                     	;# 
   351     0095                     	;# 
   352     0096                     	;# 
   353     0097                     	;# 
   354     0098                     	;# 
   355     0099                     	;# 
   356     009A                     	;# 
   357     009B                     	;# 
   358     009C                     	;# 
   359     009D                     	;# 
   360     009E                     	;# 
   361     009F                     	;# 
   362     0105                     	;# 
   363     0107                     	;# 
   364     0108                     	;# 
   365     0109                     	;# 
   366     010C                     	;# 
   367     010C                     	;# 
   368     010D                     	;# 
   369     010E                     	;# 
   370     010F                     	;# 
   371     0185                     	;# 
   372     0187                     	;# 
   373     0188                     	;# 
   374     0189                     	;# 
   375     018C                     	;# 
   376     018D                     	;# 
   377                           
   378                           	psect	idataBANK0
   379     0006                     __pidataBANK0:
   380                           
   381                           ;initializer for _led_on
   382     0006  3401               	retlw	1
   383     0007  3400               	retlw	0
   384     0001                     _TMR0	set	1
   385     0007                     _PORTCbits	set	7
   386     0006                     _PORTB	set	6
   387     000B                     _INTCON	set	11
   388     0010                     _T1CON	set	16
   389     0015                     _CCPR1L	set	21
   390     0012                     _T2CONbits	set	18
   391     0017                     _CCP1CONbits	set	23
   392     001E                     _ADRESH	set	30
   393     001F                     _ADCON0	set	31
   394     0005                     _PORTAbits	set	5
   395     000E                     _TMR1L	set	14
   396     000F                     _TMR1H	set	15
   397     0080                     _TMR1ON	set	128
   398     00F9                     _GO_nDONE	set	249
   399     0060                     _TMR1IF	set	96
   400     0081                     _OPTION_REGbits	set	129
   401     0086                     _TRISB	set	134
   402     008C                     _PIE1	set	140
   403     0085                     _TRISAbits	set	133
   404     0092                     _PR2	set	146
   405     0087                     _TRISCbits	set	135
   406     009E                     _ADRESL	set	158
   407     009F                     _ADCON1	set	159
   408     0188                     _ANSELbits	set	392
   409     0188                     _ANSEL	set	392
   410                           
   411                           	psect	cinit
   412     07DA                     start_initialization:	
   413                           ; #config settings
   414                           
   415     07DA                     __initialization:
   416                           
   417                           ; Initialize objects allocated to BANK0
   418     07DA  120A  118A  2006  120A  118A  	fcall	__pidataBANK0	;fetch initializer
   419     07DF  00EC               	movwf	__pdataBANK0& (0+127)
   420     07E0  120A  118A  2007  120A  118A  	fcall	__pidataBANK0+1	;fetch initializer
   421     07E5  00ED               	movwf	(__pdataBANK0+1)& (0+127)
   422                           
   423                           ; Clear objects allocated to BANK1
   424     07E6  1683               	bsf	3,5	;RP0=1, select bank1
   425     07E7  1303               	bcf	3,6	;RP1=0, select bank1
   426     07E8  01A0               	clrf	__pbssBANK1& (0+127)
   427     07E9  01A1               	clrf	(__pbssBANK1+1)& (0+127)
   428     07EA  01A2               	clrf	(__pbssBANK1+2)& (0+127)
   429     07EB  01A3               	clrf	(__pbssBANK1+3)& (0+127)
   430     07EC  01A4               	clrf	(__pbssBANK1+4)& (0+127)
   431     07ED  01A5               	clrf	(__pbssBANK1+5)& (0+127)
   432     07EE  01A6               	clrf	(__pbssBANK1+6)& (0+127)
   433     07EF  01A7               	clrf	(__pbssBANK1+7)& (0+127)
   434     07F0  01A8               	clrf	(__pbssBANK1+8)& (0+127)
   435     07F1  01A9               	clrf	(__pbssBANK1+9)& (0+127)
   436     07F2  01AA               	clrf	(__pbssBANK1+10)& (0+127)
   437     07F3  01AB               	clrf	(__pbssBANK1+11)& (0+127)
   438     07F4  01AC               	clrf	(__pbssBANK1+12)& (0+127)
   439                           
   440                           ; Clear objects allocated to BANK0
   441     07F5  1283               	bcf	3,5	;RP0=0, select bank0
   442     07F6  1303               	bcf	3,6	;RP1=0, select bank0
   443     07F7  01E7               	clrf	__pbssBANK0& (0+127)
   444     07F8  01E8               	clrf	(__pbssBANK0+1)& (0+127)
   445     07F9  01E9               	clrf	(__pbssBANK0+2)& (0+127)
   446     07FA  01EA               	clrf	(__pbssBANK0+3)& (0+127)
   447     07FB  01EB               	clrf	(__pbssBANK0+4)& (0+127)
   448     07FC                     end_of_initialization:	
   449                           ;End of C runtime variable initialization code
   450                           
   451     07FC                     __end_of__initialization:
   452     07FC  0183               	clrf	3
   453     07FD  120A  158A  2D14   	ljmp	_main	;jump to C main() function
   454                           
   455                           	psect	bssBANK0
   456     0067                     __pbssBANK0:
   457     0067                     _pot_value:
   458     0067                     	ds	2
   459     0069                     _duty_cycle:
   460     0069                     	ds	2
   461     006B                     _dht11_aux:
   462     006B                     	ds	1
   463                           
   464                           	psect	dataBANK0
   465     006C                     __pdataBANK0:
   466     006C                     _led_on:
   467     006C                     	ds	2
   468                           
   469                           	psect	bssBANK1
   470     00A0                     __pbssBANK1:
   471     00A0                     _dht11_byte:
   472     00A0                     	ds	5
   473     00A5                     _temp:
   474     00A5                     	ds	4
   475     00A9                     _hum:
   476     00A9                     	ds	4
   477                           
   478                           	psect	cstackCOMMON
   479     0070                     __pcstackCOMMON:
   480     0070                     ?___flge:
   481     0070                     ?_LCD_Init:	
   482                           ; 1 bit 
   483                           
   484     0070                     ?_dht11_config:	
   485                           ; 1 bytes @ 0x0
   486                           
   487     0070                     ??_dht11_config:	
   488                           ; 1 bytes @ 0x0
   489                           
   490     0070                     ?_ADC_Init:	
   491                           ; 1 bytes @ 0x0
   492                           
   493     0070                     ??_ADC_Init:	
   494                           ; 1 bytes @ 0x0
   495                           
   496     0070                     ?_PWM_Init:	
   497                           ; 1 bytes @ 0x0
   498                           
   499     0070                     ??_PWM_Init:	
   500                           ; 1 bytes @ 0x0
   501                           
   502     0070                     ?_main:	
   503                           ; 1 bytes @ 0x0
   504                           
   505     0070                     ?_LCD_Clear:	
   506                           ; 1 bytes @ 0x0
   507                           
   508     0070                     ?_dht11_read_byte:	
   509                           ; 1 bytes @ 0x0
   510                           
   511     0070                     ??_dht11_read_byte:	
   512                           ; 1 bytes @ 0x0
   513                           
   514     0070                     ?__Umul8_16:	
   515                           ; 1 bytes @ 0x0
   516                           
   517     0070                     ?_ADC_Read:	
   518                           ; 2 bytes @ 0x0
   519                           
   520     0070                     ?_bit_config:	
   521                           ; 2 bytes @ 0x0
   522                           
   523     0070                     ?___lldiv:	
   524                           ; 4 bytes @ 0x0
   525                           
   526     0070                     ?___flneg:	
   527                           ; 4 bytes @ 0x0
   528                           
   529     0070                     ?___fltol:	
   530                           ; 4 bytes @ 0x0
   531                           
   532     0070                     ?___llmod:	
   533                           ; 4 bytes @ 0x0
   534                           
   535     0070                     ?___xxtofl:	
   536                           ; 4 bytes @ 0x0
   537                           
   538     0070                     dht11_read_byte@i:	
   539                           ; 4 bytes @ 0x0
   540                           
   541     0070                     __Umul8_16@multiplicand:	
   542                           ; 1 bytes @ 0x0
   543                           
   544     0070                     bit_config@word:	
   545                           ; 1 bytes @ 0x0
   546                           
   547     0070                     ___lldiv@divisor:	
   548                           ; 4 bytes @ 0x0
   549                           
   550     0070                     ___flge@ff1:	
   551                           ; 4 bytes @ 0x0
   552                           
   553     0070                     ___flneg@f1:	
   554                           ; 4 bytes @ 0x0
   555                           
   556     0070                     ___fltol@f1:	
   557                           ; 4 bytes @ 0x0
   558                           
   559     0070                     ___llmod@divisor:	
   560                           ; 4 bytes @ 0x0
   561                           
   562     0070                     ___xxtofl@val:	
   563                           ; 4 bytes @ 0x0
   564                           
   565                           
   566                           ; 4 bytes @ 0x0
   567     0070                     	ds	2
   568     0072                     ??__Umul8_16:
   569     0072                     ??_ADC_Read:	
   570                           ; 1 bytes @ 0x2
   571                           
   572                           
   573                           ; 1 bytes @ 0x2
   574     0072                     	ds	2
   575     0074                     ??___flneg:
   576     0074                     ??___fltol:	
   577                           ; 1 bytes @ 0x4
   578                           
   579     0074                     ??___xxtofl:	
   580                           ; 1 bytes @ 0x4
   581                           
   582     0074                     __Umul8_16@product:	
   583                           ; 1 bytes @ 0x4
   584                           
   585     0074                     bit_config@bit_number:	
   586                           ; 2 bytes @ 0x4
   587                           
   588     0074                     ___lldiv@dividend:	
   589                           ; 4 bytes @ 0x4
   590                           
   591     0074                     ___flge@ff2:	
   592                           ; 4 bytes @ 0x4
   593                           
   594     0074                     ___llmod@dividend:	
   595                           ; 4 bytes @ 0x4
   596                           
   597                           
   598                           ; 4 bytes @ 0x4
   599     0074                     	ds	2
   600     0076                     __Umul8_16@word_mpld:
   601                           
   602                           ; 2 bytes @ 0x6
   603     0076                     	ds	2
   604     0078                     ??___lldiv:
   605     0078                     ??___flge:	
   606                           ; 1 bytes @ 0x8
   607                           
   608     0078                     ??___llmod:	
   609                           ; 1 bytes @ 0x8
   610                           
   611     0078                     ___fltol@sign1:	
   612                           ; 1 bytes @ 0x8
   613                           
   614     0078                     __Umul8_16@multiplier:	
   615                           ; 1 bytes @ 0x8
   616                           
   617     0078                     ___xxtofl@sign:	
   618                           ; 1 bytes @ 0x8
   619                           
   620     0078                     bit_config@bit_value:	
   621                           ; 1 bytes @ 0x8
   622                           
   623                           
   624                           ; 4 bytes @ 0x8
   625     0078                     	ds	1
   626     0079                     ??___flmul:
   627     0079                     ___fltol@exp1:	
   628                           ; 1 bytes @ 0x9
   629                           
   630     0079                     ___llmod@counter:	
   631                           ; 1 bytes @ 0x9
   632                           
   633     0079                     ___xxtofl@exp:	
   634                           ; 1 bytes @ 0x9
   635                           
   636     0079                     ___lldiv@quotient:	
   637                           ; 1 bytes @ 0x9
   638                           
   639                           
   640                           ; 4 bytes @ 0x9
   641     0079                     	ds	1
   642     007A                     ___xxtofl@arg:
   643                           
   644                           ; 4 bytes @ 0xA
   645     007A                     	ds	2
   646     007C                     ?_LCD_Write:
   647     007C                     LCD_Write@RS:	
   648                           ; 1 bytes @ 0xC
   649                           
   650                           
   651                           ; 1 bytes @ 0xC
   652     007C                     	ds	1
   653     007D                     ?_LCD_Goto:
   654     007D                     LCD_Goto@pos:	
   655                           ; 1 bytes @ 0xD
   656                           
   657     007D                     ___lldiv@counter:	
   658                           ; 1 bytes @ 0xD
   659                           
   660                           
   661                           ; 1 bytes @ 0xD
   662     007D                     	ds	1
   663     007E                     ??_LCD_Goto:
   664     007E                     ??_LCD_Float:	
   665                           ; 1 bytes @ 0xE
   666                           
   667     007E                     ??___flsub:	
   668                           ; 1 bytes @ 0xE
   669                           
   670                           
   671                           	psect	cstackBANK0
   672     0020                     __pcstackBANK0:	
   673                           ; 1 bytes @ 0xE
   674                           
   675     0020                     ??_bit_config:
   676     0020                     ?___fldiv:	
   677                           ; 1 bytes @ 0x0
   678                           
   679     0020                     ?___flmul:	
   680                           ; 4 bytes @ 0x0
   681                           
   682     0020                     ___fldiv@a:	
   683                           ; 4 bytes @ 0x0
   684                           
   685     0020                     ___flmul@b:	
   686                           ; 4 bytes @ 0x0
   687                           
   688                           
   689                           ; 4 bytes @ 0x0
   690     0020                     	ds	4
   691     0024                     ___fldiv@b:
   692     0024                     ___flmul@a:	
   693                           ; 4 bytes @ 0x4
   694                           
   695                           
   696                           ; 4 bytes @ 0x4
   697     0024                     	ds	4
   698     0028                     ??___fldiv:
   699     0028                     ___flmul@sign:	
   700                           ; 1 bytes @ 0x8
   701                           
   702                           
   703                           ; 1 bytes @ 0x8
   704     0028                     	ds	1
   705     0029                     ___flmul@grs:
   706                           
   707                           ; 4 bytes @ 0x9
   708     0029                     	ds	4
   709     002D                     ___flmul@aexp:
   710     002D                     ___fldiv@rem:	
   711                           ; 1 bytes @ 0xD
   712                           
   713                           
   714                           ; 4 bytes @ 0xD
   715     002D                     	ds	1
   716     002E                     ___flmul@bexp:
   717     002E                     bit_config@word_temp:	
   718                           ; 1 bytes @ 0xE
   719                           
   720                           
   721                           ; 4 bytes @ 0xE
   722     002E                     	ds	1
   723     002F                     ___flmul@prod:
   724                           
   725                           ; 4 bytes @ 0xF
   726     002F                     	ds	2
   727     0031                     ___fldiv@sign:
   728                           
   729                           ; 1 bytes @ 0x11
   730     0031                     	ds	1
   731     0032                     ??_LCD_Write:
   732     0032                     ___fldiv@new_exp:	
   733                           ; 1 bytes @ 0x12
   734                           
   735                           
   736                           ; 2 bytes @ 0x12
   737     0032                     	ds	1
   738     0033                     ___flmul@temp:
   739                           
   740                           ; 2 bytes @ 0x13
   741     0033                     	ds	1
   742     0034                     ___fldiv@grs:
   743                           
   744                           ; 4 bytes @ 0x14
   745     0034                     	ds	4
   746     0038                     ___fldiv@bexp:
   747                           
   748                           ; 1 bytes @ 0x18
   749     0038                     	ds	1
   750     0039                     ___fldiv@aexp:
   751                           
   752                           ; 1 bytes @ 0x19
   753     0039                     	ds	1
   754     003A                     ?___fladd:
   755     003A                     LCD_Write@character:	
   756                           ; 4 bytes @ 0x1A
   757                           
   758     003A                     ___fladd@b:	
   759                           ; 1 bytes @ 0x1A
   760                           
   761                           
   762                           ; 4 bytes @ 0x1A
   763     003A                     	ds	1
   764     003B                     LCD_Write@data:
   765                           
   766                           ; 1 bytes @ 0x1B
   767     003B                     	ds	1
   768     003C                     ??_LCD_Clear:
   769     003C                     ?_LCD_Int:	
   770                           ; 1 bytes @ 0x1C
   771                           
   772     003C                     LCD_Goto@row:	
   773                           ; 1 bytes @ 0x1C
   774                           
   775     003C                     LCD_Int@value:	
   776                           ; 1 bytes @ 0x1C
   777                           
   778                           
   779                           ; 4 bytes @ 0x1C
   780     003C                     	ds	1
   781     003D                     LCD_Goto@data:
   782                           
   783                           ; 1 bytes @ 0x1D
   784     003D                     	ds	1
   785     003E                     ??_LCD_Init:
   786     003E                     ___fladd@a:	
   787                           ; 1 bytes @ 0x1E
   788                           
   789                           
   790                           ; 4 bytes @ 0x1E
   791     003E                     	ds	2
   792     0040                     LCD_Int@positions:
   793                           
   794                           ; 1 bytes @ 0x20
   795     0040                     	ds	1
   796     0041                     LCD_Int@zeros:
   797                           
   798                           ; 1 bytes @ 0x21
   799     0041                     	ds	1
   800     0042                     ??_LCD_Int:
   801     0042                     ??___fladd:	
   802                           ; 1 bytes @ 0x22
   803                           
   804                           
   805                           ; 1 bytes @ 0x22
   806     0042                     	ds	2
   807     0044                     LCD_Int@buf:
   808                           
   809                           ; 8 bytes @ 0x24
   810     0044                     	ds	6
   811     004A                     ___fladd@signs:
   812                           
   813                           ; 1 bytes @ 0x2A
   814     004A                     	ds	1
   815     004B                     ___fladd@aexp:
   816                           
   817                           ; 1 bytes @ 0x2B
   818     004B                     	ds	1
   819     004C                     ___fladd@bexp:
   820     004C                     LCD_Int@i:	
   821                           ; 1 bytes @ 0x2C
   822                           
   823                           
   824                           ; 2 bytes @ 0x2C
   825     004C                     	ds	1
   826     004D                     ___fladd@grs:
   827                           
   828                           ; 1 bytes @ 0x2D
   829     004D                     	ds	1
   830     004E                     ?_dht11_read:
   831     004E                     ?___flsub:	
   832                           ; 1 bytes @ 0x2E
   833                           
   834     004E                     dht11_read@ptemp:	
   835                           ; 4 bytes @ 0x2E
   836                           
   837     004E                     ___flsub@a:	
   838                           ; 1 bytes @ 0x2E
   839                           
   840                           
   841                           ; 4 bytes @ 0x2E
   842     004E                     	ds	1
   843     004F                     ??_dht11_read:
   844                           
   845                           ; 1 bytes @ 0x2F
   846     004F                     	ds	3
   847     0052                     ___flsub@b:
   848                           
   849                           ; 4 bytes @ 0x32
   850     0052                     	ds	4
   851     0056                     ?_LCD_Float:
   852     0056                     LCD_Float@value:	
   853                           ; 1 bytes @ 0x36
   854                           
   855                           
   856                           ; 4 bytes @ 0x36
   857     0056                     	ds	1
   858     0057                     dht11_read@phum:
   859                           
   860                           ; 1 bytes @ 0x37
   861     0057                     	ds	1
   862     0058                     dht11_read@i:
   863                           
   864                           ; 1 bytes @ 0x38
   865     0058                     	ds	2
   866     005A                     LCD_Float@positions:
   867                           
   868                           ; 1 bytes @ 0x3A
   869     005A                     	ds	1
   870     005B                     LCD_Float@decimal_pos:
   871                           
   872                           ; 1 bytes @ 0x3B
   873     005B                     	ds	1
   874     005C                     LCD_Float@i:
   875                           
   876                           ; 1 bytes @ 0x3C
   877     005C                     	ds	1
   878     005D                     LCD_Float@number:
   879                           
   880                           ; 4 bytes @ 0x3D
   881     005D                     	ds	4
   882     0061                     LCD_Float@Bruch:
   883                           
   884                           ; 4 bytes @ 0x41
   885     0061                     	ds	4
   886     0065                     ??_main:
   887                           
   888                           ; 1 bytes @ 0x45
   889     0065                     	ds	2
   890                           
   891                           	psect	maintext
   892     0D14                     __pmaintext:	
   893 ;;
   894 ;;Main: autosize = 0, tempsize = 2, incstack = 0, save=0
   895 ;;
   896 ;; *************** function _main *****************
   897 ;; Defined at:
   898 ;;		line 83 in file "main.c"
   899 ;; Parameters:    Size  Location     Type
   900 ;;		None
   901 ;; Auto vars:     Size  Location     Type
   902 ;;		None
   903 ;; Return value:  Size  Location     Type
   904 ;;                  1    wreg      void 
   905 ;; Registers used:
   906 ;;		wreg, fsr0l, fsr0h, status,2, status,0, btemp+1, pclath, cstack
   907 ;; Tracked objects:
   908 ;;		On entry : B00/0
   909 ;;		On exit  : 0/0
   910 ;;		Unchanged: 0/0
   911 ;; Data sizes:     COMMON   BANK0   BANK1   BANK3   BANK2
   912 ;;      Params:         0       0       0       0       0
   913 ;;      Locals:         0       0       0       0       0
   914 ;;      Temps:          0       2       0       0       0
   915 ;;      Totals:         0       2       0       0       0
   916 ;;Total ram usage:        2 bytes
   917 ;; Hardware stack levels required when called: 4
   918 ;; This function calls:
   919 ;;		_ADC_Init
   920 ;;		_ADC_Read
   921 ;;		_LCD_Float
   922 ;;		_LCD_Goto
   923 ;;		_LCD_Init
   924 ;;		_PWM_Init
   925 ;;		_dht11_config
   926 ;;		_dht11_read
   927 ;; This function is called by:
   928 ;;		Startup code after reset
   929 ;; This function uses a non-reentrant model
   930 ;;
   931                           
   932     0D14                     _main:	
   933                           ;psect for function _main
   934                           
   935     0D14                     l2730:	
   936                           ;incstack = 0
   937                           ; Regs used in _main: [wreg-fsr0h+status,2+status,0+btemp+1+pclath+cstack]
   938                           
   939                           
   940                           ;main.c: 86:     TRISAbits.TRISA0 = 1;
   941     0D14  1683               	bsf	3,5	;RP0=1, select bank1
   942     0D15  1303               	bcf	3,6	;RP1=0, select bank1
   943     0D16  1405               	bsf	5,0	;volatile
   944                           
   945                           ;main.c: 87:     TRISAbits.TRISA1 = 1;
   946     0D17  1485               	bsf	5,1	;volatile
   947                           
   948                           ;main.c: 88:     TRISAbits.TRISA2 = 1;
   949     0D18  1505               	bsf	5,2	;volatile
   950                           
   951                           ;main.c: 90:     ANSELbits.ANS0 = 0;
   952     0D19  1683               	bsf	3,5	;RP0=1, select bank3
   953     0D1A  1703               	bsf	3,6	;RP1=1, select bank3
   954     0D1B  1008               	bcf	8,0	;volatile
   955                           
   956                           ;main.c: 91:     ANSELbits.ANS1 = 0;
   957     0D1C  1088               	bcf	8,1	;volatile
   958                           
   959                           ;main.c: 92:     ANSELbits.ANS2 = 0;
   960     0D1D  1108               	bcf	8,2	;volatile
   961     0D1E                     l2732:
   962                           
   963                           ;main.c: 94:     ADC_Init();
   964     0D1E  120A  158A  2000  120A  158A  	fcall	_ADC_Init
   965                           
   966                           ;main.c: 95:     PWM_Init();
   967     0D23  120A  158A  201E  120A  158A  	fcall	_PWM_Init
   968     0D28                     l2734:
   969                           
   970                           ;main.c: 96:     LCD_Init();
   971     0D28  120A  158A  2282  120A  158A  	fcall	_LCD_Init
   972     0D2D                     l2736:
   973                           
   974                           ;main.c: 97:     dht11_config();
   975     0D2D  120A  158A  2034  120A  158A  	fcall	_dht11_config
   976     0D32                     l2738:
   977                           
   978                           ;main.c: 99:     TRISAbits.TRISA3 = 0;
   979     0D32  1683               	bsf	3,5	;RP0=1, select bank1
   980     0D33  1303               	bcf	3,6	;RP1=0, select bank1
   981     0D34  1185               	bcf	5,3	;volatile
   982     0D35                     l2740:
   983                           
   984                           ;main.c: 100:     TRISAbits.TRISA4 = 0;
   985     0D35  1205               	bcf	5,4	;volatile
   986     0D36                     l2742:
   987                           
   988                           ;main.c: 101:     TRISAbits.TRISA7 = 0;
   989     0D36  1385               	bcf	5,7	;volatile
   990     0D37                     l2744:
   991                           
   992                           ;main.c: 102:     PORTAbits.RA7 = 0;
   993     0D37  1283               	bcf	3,5	;RP0=0, select bank0
   994     0D38  1303               	bcf	3,6	;RP1=0, select bank0
   995     0D39  1385               	bcf	5,7	;volatile
   996     0D3A                     l2746:
   997                           
   998                           ;main.c: 104:     TMR1H = 0x00;
   999     0D3A  018F               	clrf	15	;volatile
  1000     0D3B                     l2748:
  1001                           
  1002                           ;main.c: 105:     TMR1L = 0xDB;
  1003     0D3B  30DB               	movlw	219
  1004     0D3C  008E               	movwf	14	;volatile
  1005     0D3D                     l2750:
  1006                           
  1007                           ;main.c: 106:     T1CON = 0b00110000;
  1008     0D3D  3030               	movlw	48
  1009     0D3E  0090               	movwf	16	;volatile
  1010     0D3F                     l2752:
  1011                           
  1012                           ;main.c: 107:     PIE1 = 0b00000001;
  1013     0D3F  3001               	movlw	1
  1014     0D40  1683               	bsf	3,5	;RP0=1, select bank1
  1015     0D41  1303               	bcf	3,6	;RP1=0, select bank1
  1016     0D42  008C               	movwf	12	;volatile
  1017     0D43                     l2754:
  1018                           
  1019                           ;main.c: 108:     INTCON = 0b11000000;
  1020     0D43  30C0               	movlw	192
  1021     0D44  008B               	movwf	11	;volatile
  1022     0D45                     l2756:
  1023                           
  1024                           ;main.c: 109:     TMR1ON = 1;
  1025     0D45  1283               	bcf	3,5	;RP0=0, select bank0
  1026     0D46  1303               	bcf	3,6	;RP1=0, select bank0
  1027     0D47  1410               	bsf	16,0	;volatile
  1028     0D48                     l2758:
  1029                           
  1030                           ;main.c: 111:     PORTAbits.RA3 = 0;
  1031     0D48  1185               	bcf	5,3	;volatile
  1032     0D49                     l2760:
  1033                           
  1034                           ;main.c: 112:     PORTAbits.RA4 = 0;
  1035     0D49  1205               	bcf	5,4	;volatile
  1036     0D4A                     l2762:
  1037                           
  1038                           ;main.c: 115:     {;main.c: 119:         dht11_read(&hum, &temp);
  1039     0D4A  30A5               	movlw	(low (_temp| 0))& (0+255)
  1040     0D4B  00CE               	movwf	dht11_read@ptemp
  1041     0D4C  30A9               	movlw	(low (_hum| 0))& (0+255)
  1042     0D4D  120A  158A  26C7  120A  158A  	fcall	_dht11_read
  1043     0D52                     l2764:
  1044                           
  1045                           ;main.c: 121:         LCD_Goto(0, 0);
  1046     0D52  01FD               	clrf	LCD_Goto@pos
  1047     0D53  3000               	movlw	0
  1048     0D54  120A  158A  209A  120A  158A  	fcall	_LCD_Goto
  1049     0D59                     l2766:
  1050                           
  1051                           ;main.c: 122:         LCD_Float(temp, 5, 2);
  1052     0D59  1683               	bsf	3,5	;RP0=1, select bank1
  1053     0D5A  1303               	bcf	3,6	;RP1=0, select bank1
  1054     0D5B  0828               	movf	(_temp+3)^(0+128),w
  1055     0D5C  1283               	bcf	3,5	;RP0=0, select bank0
  1056     0D5D  1303               	bcf	3,6	;RP1=0, select bank0
  1057     0D5E  00D9               	movwf	LCD_Float@value+3
  1058     0D5F  1683               	bsf	3,5	;RP0=1, select bank1
  1059     0D60  1303               	bcf	3,6	;RP1=0, select bank1
  1060     0D61  0827               	movf	(_temp+2)^(0+128),w
  1061     0D62  1283               	bcf	3,5	;RP0=0, select bank0
  1062     0D63  1303               	bcf	3,6	;RP1=0, select bank0
  1063     0D64  00D8               	movwf	LCD_Float@value+2
  1064     0D65  1683               	bsf	3,5	;RP0=1, select bank1
  1065     0D66  1303               	bcf	3,6	;RP1=0, select bank1
  1066     0D67  0826               	movf	(_temp+1)^(0+128),w
  1067     0D68  1283               	bcf	3,5	;RP0=0, select bank0
  1068     0D69  1303               	bcf	3,6	;RP1=0, select bank0
  1069     0D6A  00D7               	movwf	LCD_Float@value+1
  1070     0D6B  1683               	bsf	3,5	;RP0=1, select bank1
  1071     0D6C  1303               	bcf	3,6	;RP1=0, select bank1
  1072     0D6D  0825               	movf	_temp^(0+128),w
  1073     0D6E  1283               	bcf	3,5	;RP0=0, select bank0
  1074     0D6F  1303               	bcf	3,6	;RP1=0, select bank0
  1075     0D70  00D6               	movwf	LCD_Float@value
  1076     0D71  3005               	movlw	5
  1077     0D72  00DA               	movwf	LCD_Float@positions
  1078     0D73  3002               	movlw	2
  1079     0D74  00DB               	movwf	LCD_Float@decimal_pos
  1080     0D75  120A  158A  25D0  120A  158A  	fcall	_LCD_Float
  1081     0D7A                     l2768:
  1082                           
  1083                           ;main.c: 123:         LCD_Goto(1, 0);
  1084     0D7A  01FD               	clrf	LCD_Goto@pos
  1085     0D7B  3001               	movlw	1
  1086     0D7C  120A  158A  209A  120A  158A  	fcall	_LCD_Goto
  1087     0D81                     l2770:
  1088                           
  1089                           ;main.c: 124:         LCD_Float(hum, 5, 2);
  1090     0D81  1683               	bsf	3,5	;RP0=1, select bank1
  1091     0D82  1303               	bcf	3,6	;RP1=0, select bank1
  1092     0D83  082C               	movf	(_hum+3)^(0+128),w
  1093     0D84  1283               	bcf	3,5	;RP0=0, select bank0
  1094     0D85  1303               	bcf	3,6	;RP1=0, select bank0
  1095     0D86  00D9               	movwf	LCD_Float@value+3
  1096     0D87  1683               	bsf	3,5	;RP0=1, select bank1
  1097     0D88  1303               	bcf	3,6	;RP1=0, select bank1
  1098     0D89  082B               	movf	(_hum+2)^(0+128),w
  1099     0D8A  1283               	bcf	3,5	;RP0=0, select bank0
  1100     0D8B  1303               	bcf	3,6	;RP1=0, select bank0
  1101     0D8C  00D8               	movwf	LCD_Float@value+2
  1102     0D8D  1683               	bsf	3,5	;RP0=1, select bank1
  1103     0D8E  1303               	bcf	3,6	;RP1=0, select bank1
  1104     0D8F  082A               	movf	(_hum+1)^(0+128),w
  1105     0D90  1283               	bcf	3,5	;RP0=0, select bank0
  1106     0D91  1303               	bcf	3,6	;RP1=0, select bank0
  1107     0D92  00D7               	movwf	LCD_Float@value+1
  1108     0D93  1683               	bsf	3,5	;RP0=1, select bank1
  1109     0D94  1303               	bcf	3,6	;RP1=0, select bank1
  1110     0D95  0829               	movf	_hum^(0+128),w
  1111     0D96  1283               	bcf	3,5	;RP0=0, select bank0
  1112     0D97  1303               	bcf	3,6	;RP1=0, select bank0
  1113     0D98  00D6               	movwf	LCD_Float@value
  1114     0D99  3005               	movlw	5
  1115     0D9A  00DA               	movwf	LCD_Float@positions
  1116     0D9B  3002               	movlw	2
  1117     0D9C  00DB               	movwf	LCD_Float@decimal_pos
  1118     0D9D  120A  158A  25D0  120A  158A  	fcall	_LCD_Float
  1119     0DA2                     l2772:
  1120                           
  1121                           ;main.c: 130:         if (led_on == 1)
  1122     0DA2  1283               	bcf	3,5	;RP0=0, select bank0
  1123     0DA3  1303               	bcf	3,6	;RP1=0, select bank0
  1124     0DA4  036C               	decf	_led_on,w
  1125     0DA5  046D               	iorwf	_led_on+1,w
  1126     0DA6  1D03               	btfss	3,2
  1127     0DA7  2DA9               	goto	u3781
  1128     0DA8  2DAA               	goto	u3780
  1129     0DA9                     u3781:
  1130     0DA9  2DC2               	goto	l2780
  1131     0DAA                     u3780:
  1132     0DAA                     l2774:
  1133                           
  1134                           ;main.c: 131:         {;main.c: 133:             pot_value = ADC_Read();
  1135     0DAA  160A  118A  27F2  120A  158A  	fcall	_ADC_Read
  1136     0DAF  0871               	movf	?_ADC_Read+1,w
  1137     0DB0  1283               	bcf	3,5	;RP0=0, select bank0
  1138     0DB1  1303               	bcf	3,6	;RP1=0, select bank0
  1139     0DB2  00E8               	movwf	_pot_value+1
  1140     0DB3  0870               	movf	?_ADC_Read,w
  1141     0DB4  00E7               	movwf	_pot_value
  1142     0DB5                     l2776:
  1143                           
  1144                           ;main.c: 135:             duty_cycle = pot_value / 256;
  1145     0DB5  0868               	movf	_pot_value+1,w
  1146     0DB6  00E6               	movwf	??_main+1
  1147     0DB7  0867               	movf	_pot_value,w
  1148     0DB8  00E5               	movwf	??_main
  1149     0DB9  0866               	movf	??_main+1,w
  1150     0DBA  00E5               	movwf	??_main
  1151     0DBB  01E6               	clrf	??_main+1
  1152     0DBC  0865               	movf	??_main,w
  1153     0DBD  00E9               	movwf	_duty_cycle
  1154     0DBE  0866               	movf	??_main+1,w
  1155     0DBF  00EA               	movwf	_duty_cycle+1
  1156     0DC0                     l2778:
  1157                           
  1158                           ;main.c: 137:             CCPR1L = duty_cycle;
  1159     0DC0  0869               	movf	_duty_cycle,w
  1160     0DC1  0095               	movwf	21	;volatile
  1161     0DC2                     l2780:
  1162                           
  1163                           ;main.c: 139:         if (PORTAbits.RA0 == 0)
  1164     0DC2  1805               	btfsc	5,0	;volatile
  1165     0DC3  2DC5               	goto	u3791
  1166     0DC4  2DC6               	goto	u3790
  1167     0DC5                     u3791:
  1168     0DC5  2D4A               	goto	l2762
  1169     0DC6                     u3790:
  1170     0DC6                     l2782:
  1171                           
  1172                           ;main.c: 140:         {;main.c: 142:             led_on = led_on * (-1);
  1173     0DC6  09EC               	comf	_led_on,f
  1174     0DC7  09ED               	comf	_led_on+1,f
  1175     0DC8  0AEC               	incf	_led_on,f
  1176     0DC9  1903               	skipnz
  1177     0DCA  0AED               	incf	_led_on+1,f
  1178     0DCB                     l2784:
  1179                           
  1180                           ;main.c: 143:             CCPR1L = 0;
  1181     0DCB  0195               	clrf	21	;volatile
  1182     0DCC  2D4A               	goto	l2762
  1183     0DCD  120A  118A  2800   	ljmp	start
  1184     0DD0                     __end_of_main:
  1185                           
  1186                           	psect	text1
  1187     0EC7                     __ptext1:	
  1188 ;; *************** function _dht11_read *****************
  1189 ;; Defined at:
  1190 ;;		line 127 in file "dht11.c"
  1191 ;; Parameters:    Size  Location     Type
  1192 ;;  phum            1    wreg     PTR float 
  1193 ;;		 -> hum(4), 
  1194 ;;  ptemp           1   46[BANK0 ] PTR float 
  1195 ;;		 -> temp(4), 
  1196 ;; Auto vars:     Size  Location     Type
  1197 ;;  phum            1   55[BANK0 ] PTR float 
  1198 ;;		 -> hum(4), 
  1199 ;;  i               1   56[BANK0 ] unsigned char 
  1200 ;; Return value:  Size  Location     Type
  1201 ;;                  1    wreg      unsigned char 
  1202 ;; Registers used:
  1203 ;;		wreg, fsr0l, fsr0h, status,2, status,0, btemp+1, pclath, cstack
  1204 ;; Tracked objects:
  1205 ;;		On entry : 0/0
  1206 ;;		On exit  : 0/0
  1207 ;;		Unchanged: 0/0
  1208 ;; Data sizes:     COMMON   BANK0   BANK1   BANK3   BANK2
  1209 ;;      Params:         0       1       0       0       0
  1210 ;;      Locals:         0       2       0       0       0
  1211 ;;      Temps:          0       8       0       0       0
  1212 ;;      Totals:         0      11       0       0       0
  1213 ;;Total ram usage:       11 bytes
  1214 ;; Hardware stack levels used: 1
  1215 ;; Hardware stack levels required when called: 1
  1216 ;; This function calls:
  1217 ;;		___fladd
  1218 ;;		___fldiv
  1219 ;;		___xxtofl
  1220 ;;		_dht11_read_byte
  1221 ;; This function is called by:
  1222 ;;		_main
  1223 ;; This function uses a non-reentrant model
  1224 ;;
  1225                           
  1226     0EC7                     _dht11_read:	
  1227                           ;psect for function _dht11_read
  1228                           
  1229                           
  1230                           ;incstack = 0
  1231                           ; Regs used in _dht11_read: [wreg-fsr0h+status,2+status,0+btemp+1+pclath+cstack]
  1232                           ;dht11_read@phum stored from wreg
  1233     0EC7  1283               	bcf	3,5	;RP0=0, select bank0
  1234     0EC8  1303               	bcf	3,6	;RP1=0, select bank0
  1235     0EC9  00D7               	movwf	dht11_read@phum
  1236     0ECA                     l2644:
  1237                           
  1238                           ;dht11.c: 127: uint8_t dht11_read(float *phum, float *ptemp);dht11.c: 128: {;dht11.c: 12
      +                          9:     uint8_t i;;dht11.c: 132:     PORTAbits.RA6 = 0; TRISAbits.TRISA6 = 0;;
  1239     0ECA  1305               	bcf	5,6	;volatile
  1240     0ECB  1683               	bsf	3,5	;RP0=1, select bank1
  1241     0ECC  1303               	bcf	3,6	;RP1=0, select bank1
  1242     0ECD  1305               	bcf	5,6	;volatile
  1243     0ECE                     l2646:
  1244                           
  1245                           ;dht11.c: 133:     _delay((unsigned long)((18)*((4000000L)/4000.0)));
  1246     0ECE  3018               	movlw	24
  1247     0ECF  1283               	bcf	3,5	;RP0=0, select bank0
  1248     0ED0  1303               	bcf	3,6	;RP1=0, select bank0
  1249     0ED1  00D0               	movwf	??_dht11_read+1
  1250     0ED2  305E               	movlw	94
  1251     0ED3  00CF               	movwf	??_dht11_read
  1252     0ED4                     u3867:
  1253     0ED4  0BCF               	decfsz	??_dht11_read,f
  1254     0ED5  2ED4               	goto	u3867
  1255     0ED6  0BD0               	decfsz	??_dht11_read+1,f
  1256     0ED7  2ED4               	goto	u3867
  1257     0ED8  0000               	nop
  1258     0ED9                     l2648:
  1259                           
  1260                           ;dht11.c: 134:     TRISAbits.TRISA6 = 1;;
  1261     0ED9  1683               	bsf	3,5	;RP0=1, select bank1
  1262     0EDA  1303               	bcf	3,6	;RP1=0, select bank1
  1263     0EDB  1705               	bsf	5,6	;volatile
  1264     0EDC                     l2650:
  1265                           
  1266                           ;dht11.c: 137:     TMR0= 0;
  1267     0EDC  1283               	bcf	3,5	;RP0=0, select bank0
  1268     0EDD  1303               	bcf	3,6	;RP1=0, select bank0
  1269     0EDE  0181               	clrf	1	;volatile
  1270                           
  1271                           ;dht11.c: 138:     while (PORTAbits.RA6)
  1272     0EDF  2EE7               	goto	l199
  1273     0EE0                     l2652:
  1274                           
  1275                           ;dht11.c: 139:     {;dht11.c: 140:         if (TMR0 > (100)) return 0;
  1276     0EE0  3065               	movlw	101
  1277     0EE1  0201               	subwf	1,w	;volatile
  1278     0EE2  1C03               	skipc
  1279     0EE3  2EE5               	goto	u3681
  1280     0EE4  2EE6               	goto	u3680
  1281     0EE5                     u3681:
  1282     0EE5  2EE7               	goto	l199
  1283     0EE6                     u3680:
  1284     0EE6  2FFF               	goto	l202
  1285     0EE7                     l199:	
  1286                           ;dht11.c: 141:     }
  1287                           
  1288                           
  1289                           ;dht11.c: 138:     while (PORTAbits.RA6)
  1290     0EE7  1B05               	btfsc	5,6	;volatile
  1291     0EE8  2EEA               	goto	u3691
  1292     0EE9  2EEB               	goto	u3690
  1293     0EEA                     u3691:
  1294     0EEA  2EE0               	goto	l2652
  1295     0EEB                     u3690:
  1296     0EEB                     l2656:
  1297                           
  1298                           ;dht11.c: 144:     TMR0= 0;
  1299     0EEB  0181               	clrf	1	;volatile
  1300                           
  1301                           ;dht11.c: 145:     while (!PORTAbits.RA6)
  1302     0EEC  2EF4               	goto	l204
  1303     0EED                     l2658:
  1304                           
  1305                           ;dht11.c: 146:     {;dht11.c: 147:         if (TMR0 > (100)) return 0;
  1306     0EED  3065               	movlw	101
  1307     0EEE  0201               	subwf	1,w	;volatile
  1308     0EEF  1C03               	skipc
  1309     0EF0  2EF2               	goto	u3701
  1310     0EF1  2EF3               	goto	u3700
  1311     0EF2                     u3701:
  1312     0EF2  2EF4               	goto	l204
  1313     0EF3                     u3700:
  1314     0EF3  2FFF               	goto	l202
  1315     0EF4                     l204:	
  1316                           ;dht11.c: 148:     }
  1317                           
  1318                           
  1319                           ;dht11.c: 145:     while (!PORTAbits.RA6)
  1320     0EF4  1F05               	btfss	5,6	;volatile
  1321     0EF5  2EF7               	goto	u3711
  1322     0EF6  2EF8               	goto	u3710
  1323     0EF7                     u3711:
  1324     0EF7  2EED               	goto	l2658
  1325     0EF8                     u3710:
  1326     0EF8                     l2662:
  1327                           
  1328                           ;dht11.c: 151:     TMR0= 0;
  1329     0EF8  0181               	clrf	1	;volatile
  1330                           
  1331                           ;dht11.c: 152:     while (PORTAbits.RA6)
  1332     0EF9  2F01               	goto	l208
  1333     0EFA                     l2664:
  1334                           
  1335                           ;dht11.c: 153:     {;dht11.c: 154:         if (TMR0 > (100)) return 0;
  1336     0EFA  3065               	movlw	101
  1337     0EFB  0201               	subwf	1,w	;volatile
  1338     0EFC  1C03               	skipc
  1339     0EFD  2EFF               	goto	u3721
  1340     0EFE  2F00               	goto	u3720
  1341     0EFF                     u3721:
  1342     0EFF  2F01               	goto	l208
  1343     0F00                     u3720:
  1344     0F00  2FFF               	goto	l202
  1345     0F01                     l208:	
  1346                           ;dht11.c: 155:     }
  1347                           
  1348                           
  1349                           ;dht11.c: 152:     while (PORTAbits.RA6)
  1350     0F01  1B05               	btfsc	5,6	;volatile
  1351     0F02  2F04               	goto	u3731
  1352     0F03  2F05               	goto	u3730
  1353     0F04                     u3731:
  1354     0F04  2EFA               	goto	l2664
  1355     0F05                     u3730:
  1356     0F05                     l2668:
  1357                           
  1358                           ;dht11.c: 161:     for (i = 0; i < (5); i++)
  1359     0F05  01D8               	clrf	dht11_read@i
  1360     0F06                     l2674:
  1361                           
  1362                           ;dht11.c: 162:     {;dht11.c: 163:         if (!dht11_read_byte()) return 0;
  1363     0F06  120A  158A  20C4  120A  158A  	fcall	_dht11_read_byte
  1364     0F0B  3A00               	xorlw	0
  1365     0F0C  1D03               	skipz
  1366     0F0D  2F0F               	goto	u3741
  1367     0F0E  2F10               	goto	u3740
  1368     0F0F                     u3741:
  1369     0F0F  2F11               	goto	l2678
  1370     0F10                     u3740:
  1371     0F10  2FFF               	goto	l202
  1372     0F11                     l2678:
  1373                           
  1374                           ;dht11.c: 164:         dht11_byte[i] = dht11_aux;
  1375     0F11  1283               	bcf	3,5	;RP0=0, select bank0
  1376     0F12  1303               	bcf	3,6	;RP1=0, select bank0
  1377     0F13  0858               	movf	dht11_read@i,w
  1378     0F14  3EA0               	addlw	(low (_dht11_byte| 0))& (0+255)
  1379     0F15  0084               	movwf	4
  1380     0F16  086B               	movf	_dht11_aux,w
  1381     0F17  1383               	bcf	3,7	;select IRP bank1
  1382     0F18  0080               	movwf	0
  1383     0F19                     l2680:
  1384                           
  1385                           ;dht11.c: 165:     }
  1386     0F19  3001               	movlw	1
  1387     0F1A  00FF               	movwf	btemp+1
  1388     0F1B  087F               	movf	btemp+1,w
  1389     0F1C  07D8               	addwf	dht11_read@i,f
  1390     0F1D                     l2682:
  1391     0F1D  3005               	movlw	5
  1392     0F1E  0258               	subwf	dht11_read@i,w
  1393     0F1F  1C03               	skipc
  1394     0F20  2F22               	goto	u3751
  1395     0F21  2F23               	goto	u3750
  1396     0F22                     u3751:
  1397     0F22  2F06               	goto	l2674
  1398     0F23                     u3750:
  1399     0F23                     l2684:
  1400                           
  1401                           ;dht11.c: 175:     *phum = ((float) dht11_byte[0]) + ((float) dht11_byte[1]) / 10;
  1402     0F23  3041               	movlw	65
  1403     0F24  00A3               	movwf	___fldiv@a+3
  1404     0F25  3020               	movlw	32
  1405     0F26  00A2               	movwf	___fldiv@a+2
  1406     0F27  3000               	movlw	0
  1407     0F28  00A1               	movwf	___fldiv@a+1
  1408     0F29  3000               	movlw	0
  1409     0F2A  00A0               	movwf	___fldiv@a
  1410     0F2B  1683               	bsf	3,5	;RP0=1, select bank1
  1411     0F2C  1303               	bcf	3,6	;RP1=0, select bank1
  1412     0F2D  0821               	movf	(_dht11_byte^(0+128)+1),w
  1413     0F2E  1283               	bcf	3,5	;RP0=0, select bank0
  1414     0F2F  1303               	bcf	3,6	;RP1=0, select bank0
  1415     0F30  00CF               	movwf	??_dht11_read
  1416     0F31  01D0               	clrf	??_dht11_read+1
  1417     0F32  01D1               	clrf	??_dht11_read+2
  1418     0F33  01D2               	clrf	??_dht11_read+3
  1419     0F34  0852               	movf	??_dht11_read+3,w
  1420     0F35  00F3               	movwf	___xxtofl@val+3
  1421     0F36  0851               	movf	??_dht11_read+2,w
  1422     0F37  00F2               	movwf	___xxtofl@val+2
  1423     0F38  0850               	movf	??_dht11_read+1,w
  1424     0F39  00F1               	movwf	___xxtofl@val+1
  1425     0F3A  084F               	movf	??_dht11_read,w
  1426     0F3B  00F0               	movwf	___xxtofl@val
  1427     0F3C  3000               	movlw	0
  1428     0F3D  120A  158A  245C  120A  158A  	fcall	___xxtofl
  1429     0F42  0873               	movf	?___xxtofl+3,w
  1430     0F43  1283               	bcf	3,5	;RP0=0, select bank0
  1431     0F44  1303               	bcf	3,6	;RP1=0, select bank0
  1432     0F45  00A7               	movwf	___fldiv@b+3
  1433     0F46  0872               	movf	?___xxtofl+2,w
  1434     0F47  00A6               	movwf	___fldiv@b+2
  1435     0F48  0871               	movf	?___xxtofl+1,w
  1436     0F49  00A5               	movwf	___fldiv@b+1
  1437     0F4A  0870               	movf	?___xxtofl,w
  1438     0F4B  00A4               	movwf	___fldiv@b
  1439     0F4C  120A  118A  206E  120A  158A  	fcall	___fldiv
  1440     0F51  1283               	bcf	3,5	;RP0=0, select bank0
  1441     0F52  1303               	bcf	3,6	;RP1=0, select bank0
  1442     0F53  0823               	movf	?___fldiv+3,w
  1443     0F54  00BD               	movwf	___fladd@b+3
  1444     0F55  0822               	movf	?___fldiv+2,w
  1445     0F56  00BC               	movwf	___fladd@b+2
  1446     0F57  0821               	movf	?___fldiv+1,w
  1447     0F58  00BB               	movwf	___fladd@b+1
  1448     0F59  0820               	movf	?___fldiv,w
  1449     0F5A  00BA               	movwf	___fladd@b
  1450     0F5B  1683               	bsf	3,5	;RP0=1, select bank1
  1451     0F5C  1303               	bcf	3,6	;RP1=0, select bank1
  1452     0F5D  0820               	movf	_dht11_byte^(0+128),w
  1453     0F5E  1283               	bcf	3,5	;RP0=0, select bank0
  1454     0F5F  1303               	bcf	3,6	;RP1=0, select bank0
  1455     0F60  00D3               	movwf	??_dht11_read+4
  1456     0F61  01D4               	clrf	??_dht11_read+5
  1457     0F62  01D5               	clrf	??_dht11_read+6
  1458     0F63  01D6               	clrf	??_dht11_read+7
  1459     0F64  0856               	movf	??_dht11_read+7,w
  1460     0F65  00F3               	movwf	___xxtofl@val+3
  1461     0F66  0855               	movf	??_dht11_read+6,w
  1462     0F67  00F2               	movwf	___xxtofl@val+2
  1463     0F68  0854               	movf	??_dht11_read+5,w
  1464     0F69  00F1               	movwf	___xxtofl@val+1
  1465     0F6A  0853               	movf	??_dht11_read+4,w
  1466     0F6B  00F0               	movwf	___xxtofl@val
  1467     0F6C  3000               	movlw	0
  1468     0F6D  120A  158A  245C  120A  158A  	fcall	___xxtofl
  1469     0F72  0873               	movf	?___xxtofl+3,w
  1470     0F73  1283               	bcf	3,5	;RP0=0, select bank0
  1471     0F74  1303               	bcf	3,6	;RP1=0, select bank0
  1472     0F75  00C1               	movwf	___fladd@a+3
  1473     0F76  0872               	movf	?___xxtofl+2,w
  1474     0F77  00C0               	movwf	___fladd@a+2
  1475     0F78  0871               	movf	?___xxtofl+1,w
  1476     0F79  00BF               	movwf	___fladd@a+1
  1477     0F7A  0870               	movf	?___xxtofl,w
  1478     0F7B  00BE               	movwf	___fladd@a
  1479     0F7C  120A  118A  223D  120A  158A  	fcall	___fladd
  1480     0F81  1283               	bcf	3,5	;RP0=0, select bank0
  1481     0F82  1303               	bcf	3,6	;RP1=0, select bank0
  1482     0F83  0857               	movf	dht11_read@phum,w
  1483     0F84  0084               	movwf	4
  1484     0F85  083A               	movf	?___fladd,w
  1485     0F86  1383               	bcf	3,7	;select IRP bank0
  1486     0F87  0080               	movwf	0
  1487     0F88  0A84               	incf	4,f
  1488     0F89  083B               	movf	?___fladd+1,w
  1489     0F8A  0080               	movwf	0
  1490     0F8B  0A84               	incf	4,f
  1491     0F8C  083C               	movf	?___fladd+2,w
  1492     0F8D  0080               	movwf	0
  1493     0F8E  0A84               	incf	4,f
  1494     0F8F  083D               	movf	?___fladd+3,w
  1495     0F90  0080               	movwf	0
  1496                           
  1497                           ;dht11.c: 176:     *ptemp = ((float) dht11_byte[2]) + ((float) dht11_byte[3]) / 10;
  1498     0F91  3041               	movlw	65
  1499     0F92  00A3               	movwf	___fldiv@a+3
  1500     0F93  3020               	movlw	32
  1501     0F94  00A2               	movwf	___fldiv@a+2
  1502     0F95  3000               	movlw	0
  1503     0F96  00A1               	movwf	___fldiv@a+1
  1504     0F97  3000               	movlw	0
  1505     0F98  00A0               	movwf	___fldiv@a
  1506     0F99  1683               	bsf	3,5	;RP0=1, select bank1
  1507     0F9A  1303               	bcf	3,6	;RP1=0, select bank1
  1508     0F9B  0823               	movf	(_dht11_byte^(0+128)+3),w
  1509     0F9C  1283               	bcf	3,5	;RP0=0, select bank0
  1510     0F9D  1303               	bcf	3,6	;RP1=0, select bank0
  1511     0F9E  00CF               	movwf	??_dht11_read
  1512     0F9F  01D0               	clrf	??_dht11_read+1
  1513     0FA0  01D1               	clrf	??_dht11_read+2
  1514     0FA1  01D2               	clrf	??_dht11_read+3
  1515     0FA2  0852               	movf	??_dht11_read+3,w
  1516     0FA3  00F3               	movwf	___xxtofl@val+3
  1517     0FA4  0851               	movf	??_dht11_read+2,w
  1518     0FA5  00F2               	movwf	___xxtofl@val+2
  1519     0FA6  0850               	movf	??_dht11_read+1,w
  1520     0FA7  00F1               	movwf	___xxtofl@val+1
  1521     0FA8  084F               	movf	??_dht11_read,w
  1522     0FA9  00F0               	movwf	___xxtofl@val
  1523     0FAA  3000               	movlw	0
  1524     0FAB  120A  158A  245C  120A  158A  	fcall	___xxtofl
  1525     0FB0  0873               	movf	?___xxtofl+3,w
  1526     0FB1  1283               	bcf	3,5	;RP0=0, select bank0
  1527     0FB2  1303               	bcf	3,6	;RP1=0, select bank0
  1528     0FB3  00A7               	movwf	___fldiv@b+3
  1529     0FB4  0872               	movf	?___xxtofl+2,w
  1530     0FB5  00A6               	movwf	___fldiv@b+2
  1531     0FB6  0871               	movf	?___xxtofl+1,w
  1532     0FB7  00A5               	movwf	___fldiv@b+1
  1533     0FB8  0870               	movf	?___xxtofl,w
  1534     0FB9  00A4               	movwf	___fldiv@b
  1535     0FBA  120A  118A  206E  120A  158A  	fcall	___fldiv
  1536     0FBF  1283               	bcf	3,5	;RP0=0, select bank0
  1537     0FC0  1303               	bcf	3,6	;RP1=0, select bank0
  1538     0FC1  0823               	movf	?___fldiv+3,w
  1539     0FC2  00BD               	movwf	___fladd@b+3
  1540     0FC3  0822               	movf	?___fldiv+2,w
  1541     0FC4  00BC               	movwf	___fladd@b+2
  1542     0FC5  0821               	movf	?___fldiv+1,w
  1543     0FC6  00BB               	movwf	___fladd@b+1
  1544     0FC7  0820               	movf	?___fldiv,w
  1545     0FC8  00BA               	movwf	___fladd@b
  1546     0FC9  1683               	bsf	3,5	;RP0=1, select bank1
  1547     0FCA  1303               	bcf	3,6	;RP1=0, select bank1
  1548     0FCB  0822               	movf	(_dht11_byte^(0+128)+2),w
  1549     0FCC  1283               	bcf	3,5	;RP0=0, select bank0
  1550     0FCD  1303               	bcf	3,6	;RP1=0, select bank0
  1551     0FCE  00D3               	movwf	??_dht11_read+4
  1552     0FCF  01D4               	clrf	??_dht11_read+5
  1553     0FD0  01D5               	clrf	??_dht11_read+6
  1554     0FD1  01D6               	clrf	??_dht11_read+7
  1555     0FD2  0856               	movf	??_dht11_read+7,w
  1556     0FD3  00F3               	movwf	___xxtofl@val+3
  1557     0FD4  0855               	movf	??_dht11_read+6,w
  1558     0FD5  00F2               	movwf	___xxtofl@val+2
  1559     0FD6  0854               	movf	??_dht11_read+5,w
  1560     0FD7  00F1               	movwf	___xxtofl@val+1
  1561     0FD8  0853               	movf	??_dht11_read+4,w
  1562     0FD9  00F0               	movwf	___xxtofl@val
  1563     0FDA  3000               	movlw	0
  1564     0FDB  120A  158A  245C  120A  158A  	fcall	___xxtofl
  1565     0FE0  0873               	movf	?___xxtofl+3,w
  1566     0FE1  1283               	bcf	3,5	;RP0=0, select bank0
  1567     0FE2  1303               	bcf	3,6	;RP1=0, select bank0
  1568     0FE3  00C1               	movwf	___fladd@a+3
  1569     0FE4  0872               	movf	?___xxtofl+2,w
  1570     0FE5  00C0               	movwf	___fladd@a+2
  1571     0FE6  0871               	movf	?___xxtofl+1,w
  1572     0FE7  00BF               	movwf	___fladd@a+1
  1573     0FE8  0870               	movf	?___xxtofl,w
  1574     0FE9  00BE               	movwf	___fladd@a
  1575     0FEA  120A  118A  223D  120A  158A  	fcall	___fladd
  1576     0FEF  1283               	bcf	3,5	;RP0=0, select bank0
  1577     0FF0  1303               	bcf	3,6	;RP1=0, select bank0
  1578     0FF1  084E               	movf	dht11_read@ptemp,w
  1579     0FF2  0084               	movwf	4
  1580     0FF3  083A               	movf	?___fladd,w
  1581     0FF4  1383               	bcf	3,7	;select IRP bank0
  1582     0FF5  0080               	movwf	0
  1583     0FF6  0A84               	incf	4,f
  1584     0FF7  083B               	movf	?___fladd+1,w
  1585     0FF8  0080               	movwf	0
  1586     0FF9  0A84               	incf	4,f
  1587     0FFA  083C               	movf	?___fladd+2,w
  1588     0FFB  0080               	movwf	0
  1589     0FFC  0A84               	incf	4,f
  1590     0FFD  083D               	movf	?___fladd+3,w
  1591     0FFE  0080               	movwf	0
  1592     0FFF                     l202:
  1593     0FFF  0008               	return
  1594     1000                     __end_of_dht11_read:
  1595                           
  1596                           	psect	text2
  1597     08C4                     __ptext2:	
  1598 ;; *************** function _dht11_read_byte *****************
  1599 ;; Defined at:
  1600 ;;		line 59 in file "dht11.c"
  1601 ;; Parameters:    Size  Location     Type
  1602 ;;		None
  1603 ;; Auto vars:     Size  Location     Type
  1604 ;;  i               1    0[COMMON] unsigned char 
  1605 ;; Return value:  Size  Location     Type
  1606 ;;                  1    wreg      unsigned char 
  1607 ;; Registers used:
  1608 ;;		wreg, status,2, status,0, btemp+1
  1609 ;; Tracked objects:
  1610 ;;		On entry : 0/0
  1611 ;;		On exit  : 0/0
  1612 ;;		Unchanged: 0/0
  1613 ;; Data sizes:     COMMON   BANK0   BANK1   BANK3   BANK2
  1614 ;;      Params:         0       0       0       0       0
  1615 ;;      Locals:         1       0       0       0       0
  1616 ;;      Temps:          0       0       0       0       0
  1617 ;;      Totals:         1       0       0       0       0
  1618 ;;Total ram usage:        1 bytes
  1619 ;; Hardware stack levels used: 1
  1620 ;; This function calls:
  1621 ;;		Nothing
  1622 ;; This function is called by:
  1623 ;;		_dht11_read
  1624 ;; This function uses a non-reentrant model
  1625 ;;
  1626                           
  1627     08C4                     _dht11_read_byte:	
  1628                           ;psect for function _dht11_read_byte
  1629                           
  1630     08C4                     l2134:	
  1631                           ;incstack = 0
  1632                           ; Regs used in _dht11_read_byte: [wreg+status,2+status,0+btemp+1]
  1633                           
  1634                           
  1635                           ;dht11.c: 61:     uint8_t i;;dht11.c: 62:     dht11_aux = 0;
  1636     08C4  1283               	bcf	3,5	;RP0=0, select bank0
  1637     08C5  1303               	bcf	3,6	;RP1=0, select bank0
  1638     08C6  01EB               	clrf	_dht11_aux
  1639                           
  1640                           ;dht11.c: 65:     for (i = 0; i < 8; i++)
  1641     08C7  01F0               	clrf	dht11_read_byte@i
  1642     08C8                     l2140:
  1643                           
  1644                           ;dht11.c: 66:     {;dht11.c: 68:         TMR0= 0;
  1645     08C8  1283               	bcf	3,5	;RP0=0, select bank0
  1646     08C9  1303               	bcf	3,6	;RP1=0, select bank0
  1647     08CA  0181               	clrf	1	;volatile
  1648                           
  1649                           ;dht11.c: 69:         while (!PORTAbits.RA6)
  1650     08CB  28D4               	goto	l185
  1651     08CC                     l2142:
  1652                           
  1653                           ;dht11.c: 70:         {;dht11.c: 71:             if (TMR0 > (100)) return 0;
  1654     08CC  3065               	movlw	101
  1655     08CD  0201               	subwf	1,w	;volatile
  1656     08CE  1C03               	skipc
  1657     08CF  28D1               	goto	u2641
  1658     08D0  28D2               	goto	u2640
  1659     08D1                     u2641:
  1660     08D1  28D4               	goto	l185
  1661     08D2                     u2640:
  1662     08D2                     l2144:
  1663     08D2  3000               	movlw	0
  1664     08D3  28F3               	goto	l188
  1665     08D4                     l185:	
  1666                           ;dht11.c: 72:         }
  1667                           
  1668                           
  1669                           ;dht11.c: 69:         while (!PORTAbits.RA6)
  1670     08D4  1F05               	btfss	5,6	;volatile
  1671     08D5  28D7               	goto	u2651
  1672     08D6  28D8               	goto	u2650
  1673     08D7                     u2651:
  1674     08D7  28CC               	goto	l2142
  1675     08D8                     u2650:
  1676     08D8                     l2148:
  1677                           
  1678                           ;dht11.c: 76:         TMR0= 0;
  1679     08D8  0181               	clrf	1	;volatile
  1680                           
  1681                           ;dht11.c: 77:         while (PORTAbits.RA6)
  1682     08D9  28E1               	goto	l190
  1683     08DA                     l2150:
  1684                           
  1685                           ;dht11.c: 78:         {;dht11.c: 79:             if (TMR0 > (100)) return 0;
  1686     08DA  3065               	movlw	101
  1687     08DB  0201               	subwf	1,w	;volatile
  1688     08DC  1C03               	skipc
  1689     08DD  28DF               	goto	u2661
  1690     08DE  28E0               	goto	u2660
  1691     08DF                     u2661:
  1692     08DF  28E1               	goto	l190
  1693     08E0                     u2660:
  1694     08E0  28D2               	goto	l2144
  1695     08E1                     l190:	
  1696                           ;dht11.c: 80:         }
  1697                           
  1698                           
  1699                           ;dht11.c: 77:         while (PORTAbits.RA6)
  1700     08E1  1B05               	btfsc	5,6	;volatile
  1701     08E2  28E4               	goto	u2671
  1702     08E3  28E5               	goto	u2670
  1703     08E4                     u2671:
  1704     08E4  28DA               	goto	l2150
  1705     08E5                     u2670:
  1706     08E5                     l193:
  1707     08E5  3032               	movlw	50	;# 
  1708     08E6  0201               	subwf	1,w	;# 
  1709     08E7  0DEB               	rlf	_dht11_aux,f	;# 
  1710     08E8                     l2156:
  1711                           
  1712                           ;dht11.c: 90:     }
  1713     08E8  3001               	movlw	1
  1714     08E9  00FF               	movwf	btemp+1
  1715     08EA  087F               	movf	btemp+1,w
  1716     08EB  07F0               	addwf	dht11_read_byte@i,f
  1717     08EC                     l2158:
  1718     08EC  3008               	movlw	8
  1719     08ED  0270               	subwf	dht11_read_byte@i,w
  1720     08EE  1C03               	skipc
  1721     08EF  28F1               	goto	u2681
  1722     08F0  28F2               	goto	u2680
  1723     08F1                     u2681:
  1724     08F1  28C8               	goto	l2140
  1725     08F2                     u2680:
  1726     08F2                     l2160:
  1727                           
  1728                           ;dht11.c: 91:     return 1;
  1729     08F2  3001               	movlw	1
  1730     08F3                     l188:
  1731     08F3  0008               	return
  1732     08F4                     __end_of_dht11_read_byte:
  1733                           
  1734                           	psect	text3
  1735     006E                     __ptext3:	
  1736 ;; *************** function ___fldiv *****************
  1737 ;; Defined at:
  1738 ;;		line 8 in file "C:\Program Files\Microchip\xc8\v2.46\pic\sources\c99\common\sprcdiv.c"
  1739 ;; Parameters:    Size  Location     Type
  1740 ;;  a               4    0[BANK0 ] unsigned char 
  1741 ;;  b               4    4[BANK0 ] unsigned char 
  1742 ;; Auto vars:     Size  Location     Type
  1743 ;;  grs             4   20[BANK0 ] unsigned long 
  1744 ;;  rem             4   13[BANK0 ] unsigned long 
  1745 ;;  new_exp         2   18[BANK0 ] short 
  1746 ;;  aexp            1   25[BANK0 ] unsigned char 
  1747 ;;  bexp            1   24[BANK0 ] unsigned char 
  1748 ;;  sign            1   17[BANK0 ] unsigned char 
  1749 ;; Return value:  Size  Location     Type
  1750 ;;                  4    0[BANK0 ] unsigned char 
  1751 ;; Registers used:
  1752 ;;		wreg, status,2, status,0, btemp+1
  1753 ;; Tracked objects:
  1754 ;;		On entry : 0/0
  1755 ;;		On exit  : 0/0
  1756 ;;		Unchanged: 0/0
  1757 ;; Data sizes:     COMMON   BANK0   BANK1   BANK3   BANK2
  1758 ;;      Params:         0       8       0       0       0
  1759 ;;      Locals:         0      13       0       0       0
  1760 ;;      Temps:          0       5       0       0       0
  1761 ;;      Totals:         0      26       0       0       0
  1762 ;;Total ram usage:       26 bytes
  1763 ;; Hardware stack levels used: 1
  1764 ;; This function calls:
  1765 ;;		Nothing
  1766 ;; This function is called by:
  1767 ;;		_dht11_read
  1768 ;; This function uses a non-reentrant model
  1769 ;;
  1770                           
  1771     006E                     ___fldiv:	
  1772                           ;psect for function ___fldiv
  1773                           
  1774     006E                     l2236:	
  1775                           ;incstack = 0
  1776                           ; Regs used in ___fldiv: [wreg+status,2+status,0+btemp+1]
  1777                           
  1778     006E  1283               	bcf	3,5	;RP0=0, select bank0
  1779     006F  1303               	bcf	3,6	;RP1=0, select bank0
  1780     0070  0827               	movf	___fldiv@b+3,w
  1781     0071  3980               	andlw	128
  1782     0072  00B1               	movwf	___fldiv@sign
  1783     0073                     l2238:
  1784     0073  0827               	movf	___fldiv@b+3,w
  1785     0074  00A8               	movwf	??___fldiv
  1786     0075  0728               	addwf	??___fldiv,w
  1787     0076  00B8               	movwf	___fldiv@bexp
  1788     0077                     l2240:
  1789     0077  1FA6               	btfss	___fldiv@b+2,7
  1790     0078  287A               	goto	u2871
  1791     0079  287B               	goto	u2870
  1792     007A                     u2871:
  1793     007A  287C               	goto	l2244
  1794     007B                     u2870:
  1795     007B                     l2242:
  1796     007B  1438               	bsf	___fldiv@bexp,0
  1797     007C                     l2244:
  1798     007C  0838               	movf	___fldiv@bexp,w
  1799     007D  1903               	btfsc	3,2
  1800     007E  2880               	goto	u2881
  1801     007F  2881               	goto	u2880
  1802     0080                     u2881:
  1803     0080  2891               	goto	l2254
  1804     0081                     u2880:
  1805     0081                     l2246:
  1806     0081  0A38               	incf	___fldiv@bexp,w
  1807     0082  1D03               	btfss	3,2
  1808     0083  2885               	goto	u2891
  1809     0084  2886               	goto	u2890
  1810     0085                     u2891:
  1811     0085  288E               	goto	l2250
  1812     0086                     u2890:
  1813     0086                     l2248:
  1814     0086  3000               	movlw	0
  1815     0087  00A7               	movwf	___fldiv@b+3
  1816     0088  3000               	movlw	0
  1817     0089  00A6               	movwf	___fldiv@b+2
  1818     008A  3000               	movlw	0
  1819     008B  00A5               	movwf	___fldiv@b+1
  1820     008C  3000               	movlw	0
  1821     008D  00A4               	movwf	___fldiv@b
  1822     008E                     l2250:
  1823     008E  17A6               	bsf	___fldiv@b+2,7
  1824     008F                     l2252:
  1825     008F  01A7               	clrf	___fldiv@b+3
  1826     0090  2899               	goto	l2256
  1827     0091                     l2254:
  1828     0091  3000               	movlw	0
  1829     0092  00A7               	movwf	___fldiv@b+3
  1830     0093  3000               	movlw	0
  1831     0094  00A6               	movwf	___fldiv@b+2
  1832     0095  3000               	movlw	0
  1833     0096  00A5               	movwf	___fldiv@b+1
  1834     0097  3000               	movlw	0
  1835     0098  00A4               	movwf	___fldiv@b
  1836     0099                     l2256:
  1837     0099  0823               	movf	___fldiv@a+3,w
  1838     009A  3980               	andlw	128
  1839     009B  00FF               	movwf	btemp+1
  1840     009C  087F               	movf	btemp+1,w
  1841     009D  06B1               	xorwf	___fldiv@sign,f
  1842     009E                     l2258:
  1843     009E  0823               	movf	___fldiv@a+3,w
  1844     009F  00A8               	movwf	??___fldiv
  1845     00A0  0728               	addwf	??___fldiv,w
  1846     00A1  00B9               	movwf	___fldiv@aexp
  1847     00A2                     l2260:
  1848     00A2  1FA2               	btfss	___fldiv@a+2,7
  1849     00A3  28A5               	goto	u2901
  1850     00A4  28A6               	goto	u2900
  1851     00A5                     u2901:
  1852     00A5  28A7               	goto	l2264
  1853     00A6                     u2900:
  1854     00A6                     l2262:
  1855     00A6  1439               	bsf	___fldiv@aexp,0
  1856     00A7                     l2264:
  1857     00A7  0839               	movf	___fldiv@aexp,w
  1858     00A8  1903               	btfsc	3,2
  1859     00A9  28AB               	goto	u2911
  1860     00AA  28AC               	goto	u2910
  1861     00AB                     u2911:
  1862     00AB  28BC               	goto	l2274
  1863     00AC                     u2910:
  1864     00AC                     l2266:
  1865     00AC  0A39               	incf	___fldiv@aexp,w
  1866     00AD  1D03               	btfss	3,2
  1867     00AE  28B0               	goto	u2921
  1868     00AF  28B1               	goto	u2920
  1869     00B0                     u2921:
  1870     00B0  28B9               	goto	l2270
  1871     00B1                     u2920:
  1872     00B1                     l2268:
  1873     00B1  3000               	movlw	0
  1874     00B2  00A3               	movwf	___fldiv@a+3
  1875     00B3  3000               	movlw	0
  1876     00B4  00A2               	movwf	___fldiv@a+2
  1877     00B5  3000               	movlw	0
  1878     00B6  00A1               	movwf	___fldiv@a+1
  1879     00B7  3000               	movlw	0
  1880     00B8  00A0               	movwf	___fldiv@a
  1881     00B9                     l2270:
  1882     00B9  17A2               	bsf	___fldiv@a+2,7
  1883     00BA                     l2272:
  1884     00BA  01A3               	clrf	___fldiv@a+3
  1885     00BB  28C4               	goto	l657
  1886     00BC                     l2274:
  1887     00BC  3000               	movlw	0
  1888     00BD  00A3               	movwf	___fldiv@a+3
  1889     00BE  3000               	movlw	0
  1890     00BF  00A2               	movwf	___fldiv@a+2
  1891     00C0  3000               	movlw	0
  1892     00C1  00A1               	movwf	___fldiv@a+1
  1893     00C2  3000               	movlw	0
  1894     00C3  00A0               	movwf	___fldiv@a
  1895     00C4                     l657:
  1896     00C4  0823               	movf	___fldiv@a+3,w
  1897     00C5  0422               	iorwf	___fldiv@a+2,w
  1898     00C6  0421               	iorwf	___fldiv@a+1,w
  1899     00C7  0420               	iorwf	___fldiv@a,w
  1900     00C8  1D03               	skipz
  1901     00C9  28CB               	goto	u2931
  1902     00CA  28CC               	goto	u2930
  1903     00CB                     u2931:
  1904     00CB  28E5               	goto	l2284
  1905     00CC                     u2930:
  1906     00CC                     l2276:
  1907     00CC  3000               	movlw	0
  1908     00CD  00A7               	movwf	___fldiv@b+3
  1909     00CE  3000               	movlw	0
  1910     00CF  00A6               	movwf	___fldiv@b+2
  1911     00D0  3000               	movlw	0
  1912     00D1  00A5               	movwf	___fldiv@b+1
  1913     00D2  3000               	movlw	0
  1914     00D3  00A4               	movwf	___fldiv@b
  1915     00D4  3080               	movlw	128
  1916     00D5  04A6               	iorwf	___fldiv@b+2,f
  1917     00D6  307F               	movlw	127
  1918     00D7  04A7               	iorwf	___fldiv@b+3,f
  1919     00D8                     l2278:
  1920     00D8  0831               	movf	___fldiv@sign,w
  1921     00D9  00FF               	movwf	btemp+1
  1922     00DA  087F               	movf	btemp+1,w
  1923     00DB  04A7               	iorwf	___fldiv@b+3,f
  1924     00DC                     l2280:
  1925     00DC  0827               	movf	___fldiv@b+3,w
  1926     00DD  00A3               	movwf	?___fldiv+3
  1927     00DE  0826               	movf	___fldiv@b+2,w
  1928     00DF  00A2               	movwf	?___fldiv+2
  1929     00E0  0825               	movf	___fldiv@b+1,w
  1930     00E1  00A1               	movwf	?___fldiv+1
  1931     00E2  0824               	movf	___fldiv@b,w
  1932     00E3  00A0               	movwf	?___fldiv
  1933     00E4  2A3C               	goto	l659
  1934     00E5                     l2284:
  1935     00E5  0838               	movf	___fldiv@bexp,w
  1936     00E6  1D03               	btfss	3,2
  1937     00E7  28E9               	goto	u2941
  1938     00E8  28EA               	goto	u2940
  1939     00E9                     u2941:
  1940     00E9  28F3               	goto	l2290
  1941     00EA                     u2940:
  1942     00EA                     l2286:
  1943     00EA  3000               	movlw	0
  1944     00EB  00A3               	movwf	?___fldiv+3
  1945     00EC  3000               	movlw	0
  1946     00ED  00A2               	movwf	?___fldiv+2
  1947     00EE  3000               	movlw	0
  1948     00EF  00A1               	movwf	?___fldiv+1
  1949     00F0  3000               	movlw	0
  1950     00F1  00A0               	movwf	?___fldiv
  1951     00F2  2A3C               	goto	l659
  1952     00F3                     l2290:
  1953     00F3  0838               	movf	___fldiv@bexp,w
  1954     00F4  00A8               	movwf	??___fldiv
  1955     00F5  01A9               	clrf	??___fldiv+1
  1956     00F6  0829               	movf	??___fldiv+1,w
  1957     00F7  00AB               	movwf	??___fldiv+3
  1958     00F8  0839               	movf	___fldiv@aexp,w
  1959     00F9  0228               	subwf	??___fldiv,w
  1960     00FA  00AA               	movwf	??___fldiv+2
  1961     00FB  1C03               	skipc
  1962     00FC  03AB               	decf	??___fldiv+3,f
  1963     00FD  082A               	movf	??___fldiv+2,w
  1964     00FE  3E7F               	addlw	127
  1965     00FF  00B2               	movwf	___fldiv@new_exp
  1966     0100  082B               	movf	??___fldiv+3,w
  1967     0101  1803               	skipnc
  1968     0102  3E01               	addlw	1
  1969     0103  3E00               	addlw	0
  1970     0104  00B3               	movwf	___fldiv@new_exp+1
  1971     0105                     l2292:
  1972     0105  0827               	movf	___fldiv@b+3,w
  1973     0106  00B0               	movwf	___fldiv@rem+3
  1974     0107  0826               	movf	___fldiv@b+2,w
  1975     0108  00AF               	movwf	___fldiv@rem+2
  1976     0109  0825               	movf	___fldiv@b+1,w
  1977     010A  00AE               	movwf	___fldiv@rem+1
  1978     010B  0824               	movf	___fldiv@b,w
  1979     010C  00AD               	movwf	___fldiv@rem
  1980     010D                     l2294:
  1981     010D  3000               	movlw	0
  1982     010E  00A7               	movwf	___fldiv@b+3
  1983     010F  3000               	movlw	0
  1984     0110  00A6               	movwf	___fldiv@b+2
  1985     0111  3000               	movlw	0
  1986     0112  00A5               	movwf	___fldiv@b+1
  1987     0113  3000               	movlw	0
  1988     0114  00A4               	movwf	___fldiv@b
  1989     0115                     l2296:
  1990     0115  3000               	movlw	0
  1991     0116  00B7               	movwf	___fldiv@grs+3
  1992     0117  3000               	movlw	0
  1993     0118  00B6               	movwf	___fldiv@grs+2
  1994     0119  3000               	movlw	0
  1995     011A  00B5               	movwf	___fldiv@grs+1
  1996     011B  3000               	movlw	0
  1997     011C  00B4               	movwf	___fldiv@grs
  1998     011D                     l2298:
  1999     011D  01B9               	clrf	___fldiv@aexp
  2000     011E  2969               	goto	l2318
  2001     011F                     l2300:
  2002     011F  0839               	movf	___fldiv@aexp,w
  2003     0120  1903               	btfsc	3,2
  2004     0121  2923               	goto	u2951
  2005     0122  2924               	goto	u2950
  2006     0123                     u2951:
  2007     0123  2944               	goto	l2310
  2008     0124                     u2950:
  2009     0124                     l2302:
  2010     0124  3001               	movlw	1
  2011     0125  00A8               	movwf	??___fldiv
  2012     0126                     u2965:
  2013     0126  1003               	clrc
  2014     0127  0DAD               	rlf	___fldiv@rem,f
  2015     0128  0DAE               	rlf	___fldiv@rem+1,f
  2016     0129  0DAF               	rlf	___fldiv@rem+2,f
  2017     012A  0DB0               	rlf	___fldiv@rem+3,f
  2018     012B  0BA8               	decfsz	??___fldiv,f
  2019     012C  2926               	goto	u2965
  2020     012D  3001               	movlw	1
  2021     012E  00A8               	movwf	??___fldiv
  2022     012F                     u2975:
  2023     012F  1003               	clrc
  2024     0130  0DA4               	rlf	___fldiv@b,f
  2025     0131  0DA5               	rlf	___fldiv@b+1,f
  2026     0132  0DA6               	rlf	___fldiv@b+2,f
  2027     0133  0DA7               	rlf	___fldiv@b+3,f
  2028     0134  0BA8               	decfsz	??___fldiv,f
  2029     0135  292F               	goto	u2975
  2030     0136                     l2304:
  2031     0136  1FB7               	btfss	___fldiv@grs+3,7
  2032     0137  2939               	goto	u2981
  2033     0138  293A               	goto	u2980
  2034     0139                     u2981:
  2035     0139  293B               	goto	l2308
  2036     013A                     u2980:
  2037     013A                     l2306:
  2038     013A  1424               	bsf	___fldiv@b,0
  2039     013B                     l2308:
  2040     013B  3001               	movlw	1
  2041     013C  00A8               	movwf	??___fldiv
  2042     013D                     u2995:
  2043     013D  1003               	clrc
  2044     013E  0DB4               	rlf	___fldiv@grs,f
  2045     013F  0DB5               	rlf	___fldiv@grs+1,f
  2046     0140  0DB6               	rlf	___fldiv@grs+2,f
  2047     0141  0DB7               	rlf	___fldiv@grs+3,f
  2048     0142  0BA8               	decfsz	??___fldiv,f
  2049     0143  293D               	goto	u2995
  2050     0144                     l2310:
  2051     0144  0823               	movf	___fldiv@a+3,w
  2052     0145  0230               	subwf	___fldiv@rem+3,w
  2053     0146  1D03               	skipz
  2054     0147  2952               	goto	u3005
  2055     0148  0822               	movf	___fldiv@a+2,w
  2056     0149  022F               	subwf	___fldiv@rem+2,w
  2057     014A  1D03               	skipz
  2058     014B  2952               	goto	u3005
  2059     014C  0821               	movf	___fldiv@a+1,w
  2060     014D  022E               	subwf	___fldiv@rem+1,w
  2061     014E  1D03               	skipz
  2062     014F  2952               	goto	u3005
  2063     0150  0820               	movf	___fldiv@a,w
  2064     0151  022D               	subwf	___fldiv@rem,w
  2065     0152                     u3005:
  2066     0152  1C03               	skipc
  2067     0153  2955               	goto	u3001
  2068     0154  2956               	goto	u3000
  2069     0155                     u3001:
  2070     0155  2965               	goto	l2316
  2071     0156                     u3000:
  2072     0156                     l2312:
  2073     0156  1737               	bsf	___fldiv@grs+3,6
  2074     0157                     l2314:
  2075     0157  0820               	movf	___fldiv@a,w
  2076     0158  02AD               	subwf	___fldiv@rem,f
  2077     0159  0821               	movf	___fldiv@a+1,w
  2078     015A  1C03               	skipc
  2079     015B  0F21               	incfsz	___fldiv@a+1,w
  2080     015C  02AE               	subwf	___fldiv@rem+1,f
  2081     015D  0822               	movf	___fldiv@a+2,w
  2082     015E  1C03               	skipc
  2083     015F  0F22               	incfsz	___fldiv@a+2,w
  2084     0160  02AF               	subwf	___fldiv@rem+2,f
  2085     0161  0823               	movf	___fldiv@a+3,w
  2086     0162  1C03               	skipc
  2087     0163  0F23               	incfsz	___fldiv@a+3,w
  2088     0164  02B0               	subwf	___fldiv@rem+3,f
  2089     0165                     l2316:
  2090     0165  3001               	movlw	1
  2091     0166  00FF               	movwf	btemp+1
  2092     0167  087F               	movf	btemp+1,w
  2093     0168  07B9               	addwf	___fldiv@aexp,f
  2094     0169                     l2318:
  2095     0169  301A               	movlw	26
  2096     016A  0239               	subwf	___fldiv@aexp,w
  2097     016B  1C03               	skipc
  2098     016C  296E               	goto	u3011
  2099     016D  296F               	goto	u3010
  2100     016E                     u3011:
  2101     016E  291F               	goto	l2300
  2102     016F                     u3010:
  2103     016F                     l2320:
  2104     016F  0830               	movf	___fldiv@rem+3,w
  2105     0170  042F               	iorwf	___fldiv@rem+2,w
  2106     0171  042E               	iorwf	___fldiv@rem+1,w
  2107     0172  042D               	iorwf	___fldiv@rem,w
  2108     0173  1903               	skipnz
  2109     0174  2976               	goto	u3021
  2110     0175  2977               	goto	u3020
  2111     0176                     u3021:
  2112     0176  2996               	goto	l2334
  2113     0177                     u3020:
  2114     0177                     l2322:
  2115     0177  1434               	bsf	___fldiv@grs,0
  2116     0178  2996               	goto	l2334
  2117     0179                     l2324:
  2118     0179  3001               	movlw	1
  2119     017A  00A8               	movwf	??___fldiv
  2120     017B                     u3035:
  2121     017B  1003               	clrc
  2122     017C  0DA4               	rlf	___fldiv@b,f
  2123     017D  0DA5               	rlf	___fldiv@b+1,f
  2124     017E  0DA6               	rlf	___fldiv@b+2,f
  2125     017F  0DA7               	rlf	___fldiv@b+3,f
  2126     0180  0BA8               	decfsz	??___fldiv,f
  2127     0181  297B               	goto	u3035
  2128     0182                     l2326:
  2129     0182  1FB7               	btfss	___fldiv@grs+3,7
  2130     0183  2985               	goto	u3041
  2131     0184  2986               	goto	u3040
  2132     0185                     u3041:
  2133     0185  2987               	goto	l2330
  2134     0186                     u3040:
  2135     0186                     l2328:
  2136     0186  1424               	bsf	___fldiv@b,0
  2137     0187                     l2330:
  2138     0187  3001               	movlw	1
  2139     0188  00A8               	movwf	??___fldiv
  2140     0189                     u3055:
  2141     0189  1003               	clrc
  2142     018A  0DB4               	rlf	___fldiv@grs,f
  2143     018B  0DB5               	rlf	___fldiv@grs+1,f
  2144     018C  0DB6               	rlf	___fldiv@grs+2,f
  2145     018D  0DB7               	rlf	___fldiv@grs+3,f
  2146     018E  0BA8               	decfsz	??___fldiv,f
  2147     018F  2989               	goto	u3055
  2148     0190                     l2332:
  2149     0190  30FF               	movlw	255
  2150     0191  07B2               	addwf	___fldiv@new_exp,f
  2151     0192  1803               	skipnc
  2152     0193  0AB3               	incf	___fldiv@new_exp+1,f
  2153     0194  30FF               	movlw	255
  2154     0195  07B3               	addwf	___fldiv@new_exp+1,f
  2155     0196                     l2334:
  2156     0196  1FA6               	btfss	___fldiv@b+2,7
  2157     0197  2999               	goto	u3061
  2158     0198  299A               	goto	u3060
  2159     0199                     u3061:
  2160     0199  2979               	goto	l2324
  2161     019A                     u3060:
  2162     019A                     l2336:
  2163     019A  01B9               	clrf	___fldiv@aexp
  2164     019B                     l2338:
  2165     019B  1FB7               	btfss	___fldiv@grs+3,7
  2166     019C  299E               	goto	u3071
  2167     019D  299F               	goto	u3070
  2168     019E                     u3071:
  2169     019E  29BB               	goto	l2346
  2170     019F                     u3070:
  2171     019F                     l2340:
  2172     019F  30FF               	movlw	255
  2173     01A0  0534               	andwf	___fldiv@grs,w
  2174     01A1  00A8               	movwf	??___fldiv
  2175     01A2  30FF               	movlw	255
  2176     01A3  0535               	andwf	___fldiv@grs+1,w
  2177     01A4  00A9               	movwf	??___fldiv+1
  2178     01A5  30FF               	movlw	255
  2179     01A6  0536               	andwf	___fldiv@grs+2,w
  2180     01A7  00AA               	movwf	??___fldiv+2
  2181     01A8  307F               	movlw	127
  2182     01A9  0537               	andwf	___fldiv@grs+3,w
  2183     01AA  00AB               	movwf	??___fldiv+3
  2184     01AB  082B               	movf	??___fldiv+3,w
  2185     01AC  042A               	iorwf	??___fldiv+2,w
  2186     01AD  0429               	iorwf	??___fldiv+1,w
  2187     01AE  0428               	iorwf	??___fldiv,w
  2188     01AF  1903               	skipnz
  2189     01B0  29B2               	goto	u3081
  2190     01B1  29B3               	goto	u3080
  2191     01B2                     u3081:
  2192     01B2  29B6               	goto	l673
  2193     01B3                     u3080:
  2194     01B3                     l2342:
  2195     01B3  01B9               	clrf	___fldiv@aexp
  2196     01B4  0AB9               	incf	___fldiv@aexp,f
  2197     01B5  29BB               	goto	l2346
  2198     01B6                     l673:
  2199     01B6  1C24               	btfss	___fldiv@b,0
  2200     01B7  29B9               	goto	u3091
  2201     01B8  29BA               	goto	u3090
  2202     01B9                     u3091:
  2203     01B9  29BB               	goto	l2346
  2204     01BA                     u3090:
  2205     01BA  29B3               	goto	l2342
  2206     01BB                     l2346:
  2207     01BB  0839               	movf	___fldiv@aexp,w
  2208     01BC  1903               	btfsc	3,2
  2209     01BD  29BF               	goto	u3101
  2210     01BE  29C0               	goto	u3100
  2211     01BF                     u3101:
  2212     01BF  29F1               	goto	l2356
  2213     01C0                     u3100:
  2214     01C0                     l2348:
  2215     01C0  3001               	movlw	1
  2216     01C1  07A4               	addwf	___fldiv@b,f
  2217     01C2  3000               	movlw	0
  2218     01C3  1803               	skipnc
  2219     01C4  3001               	movlw	1
  2220     01C5  07A5               	addwf	___fldiv@b+1,f
  2221     01C6  3000               	movlw	0
  2222     01C7  1803               	skipnc
  2223     01C8  3001               	movlw	1
  2224     01C9  07A6               	addwf	___fldiv@b+2,f
  2225     01CA  3000               	movlw	0
  2226     01CB  1803               	skipnc
  2227     01CC  3001               	movlw	1
  2228     01CD  07A7               	addwf	___fldiv@b+3,f
  2229     01CE                     l2350:
  2230     01CE  1C27               	btfss	___fldiv@b+3,0
  2231     01CF  29D1               	goto	u3111
  2232     01D0  29D2               	goto	u3110
  2233     01D1                     u3111:
  2234     01D1  29F1               	goto	l2356
  2235     01D2                     u3110:
  2236     01D2                     l2352:
  2237     01D2  0824               	movf	___fldiv@b,w
  2238     01D3  00A8               	movwf	??___fldiv
  2239     01D4  0825               	movf	___fldiv@b+1,w
  2240     01D5  00A9               	movwf	??___fldiv+1
  2241     01D6  0826               	movf	___fldiv@b+2,w
  2242     01D7  00AA               	movwf	??___fldiv+2
  2243     01D8  0827               	movf	___fldiv@b+3,w
  2244     01D9  00AB               	movwf	??___fldiv+3
  2245     01DA  3001               	movlw	1
  2246     01DB  00AC               	movwf	??___fldiv+4
  2247     01DC                     u3125:
  2248     01DC  0D2B               	rlf	??___fldiv+3,w
  2249     01DD  0CAB               	rrf	??___fldiv+3,f
  2250     01DE  0CAA               	rrf	??___fldiv+2,f
  2251     01DF  0CA9               	rrf	??___fldiv+1,f
  2252     01E0  0CA8               	rrf	??___fldiv,f
  2253     01E1                     u3120:
  2254     01E1  0BAC               	decfsz	??___fldiv+4,f
  2255     01E2  29DC               	goto	u3125
  2256     01E3  082B               	movf	??___fldiv+3,w
  2257     01E4  00A7               	movwf	___fldiv@b+3
  2258     01E5  082A               	movf	??___fldiv+2,w
  2259     01E6  00A6               	movwf	___fldiv@b+2
  2260     01E7  0829               	movf	??___fldiv+1,w
  2261     01E8  00A5               	movwf	___fldiv@b+1
  2262     01E9  0828               	movf	??___fldiv,w
  2263     01EA  00A4               	movwf	___fldiv@b
  2264     01EB                     l2354:
  2265     01EB  3001               	movlw	1
  2266     01EC  07B2               	addwf	___fldiv@new_exp,f
  2267     01ED  1803               	skipnc
  2268     01EE  0AB3               	incf	___fldiv@new_exp+1,f
  2269     01EF  3000               	movlw	0
  2270     01F0  07B3               	addwf	___fldiv@new_exp+1,f
  2271     01F1                     l2356:
  2272     01F1  0833               	movf	___fldiv@new_exp+1,w
  2273     01F2  3A80               	xorlw	128
  2274     01F3  00FF               	movwf	btemp+1
  2275     01F4  3080               	movlw	128
  2276     01F5  027F               	subwf	btemp+1,w
  2277     01F6  1D03               	skipz
  2278     01F7  29FA               	goto	u3135
  2279     01F8  30FF               	movlw	255
  2280     01F9  0232               	subwf	___fldiv@new_exp,w
  2281     01FA                     u3135:
  2282     01FA  1C03               	skipc
  2283     01FB  29FD               	goto	u3131
  2284     01FC  29FE               	goto	u3130
  2285     01FD                     u3131:
  2286     01FD  2A0C               	goto	l2360
  2287     01FE                     u3130:
  2288     01FE                     l2358:
  2289     01FE  30FF               	movlw	255
  2290     01FF  1283               	bcf	3,5	;RP0=0, select bank0
  2291     0200  1303               	bcf	3,6	;RP1=0, select bank0
  2292     0201  00B2               	movwf	___fldiv@new_exp
  2293     0202  3000               	movlw	0
  2294     0203  00B3               	movwf	___fldiv@new_exp+1
  2295     0204  3000               	movlw	0
  2296     0205  00A7               	movwf	___fldiv@b+3
  2297     0206  3000               	movlw	0
  2298     0207  00A6               	movwf	___fldiv@b+2
  2299     0208  3000               	movlw	0
  2300     0209  00A5               	movwf	___fldiv@b+1
  2301     020A  3000               	movlw	0
  2302     020B  00A4               	movwf	___fldiv@b
  2303     020C                     l2360:
  2304     020C  1283               	bcf	3,5	;RP0=0, select bank0
  2305     020D  1303               	bcf	3,6	;RP1=0, select bank0
  2306     020E  0833               	movf	___fldiv@new_exp+1,w
  2307     020F  3A80               	xorlw	128
  2308     0210  00FF               	movwf	btemp+1
  2309     0211  3080               	movlw	128
  2310     0212  027F               	subwf	btemp+1,w
  2311     0213  1D03               	skipz
  2312     0214  2A17               	goto	u3145
  2313     0215  3001               	movlw	1
  2314     0216  0232               	subwf	___fldiv@new_exp,w
  2315     0217                     u3145:
  2316     0217  1803               	skipnc
  2317     0218  2A1A               	goto	u3141
  2318     0219  2A1B               	goto	u3140
  2319     021A                     u3141:
  2320     021A  2A28               	goto	l679
  2321     021B                     u3140:
  2322     021B                     l2362:
  2323     021B  1283               	bcf	3,5	;RP0=0, select bank0
  2324     021C  1303               	bcf	3,6	;RP1=0, select bank0
  2325     021D  01B2               	clrf	___fldiv@new_exp
  2326     021E  01B3               	clrf	___fldiv@new_exp+1
  2327     021F                     l2364:
  2328     021F  3000               	movlw	0
  2329     0220  00A7               	movwf	___fldiv@b+3
  2330     0221  3000               	movlw	0
  2331     0222  00A6               	movwf	___fldiv@b+2
  2332     0223  3000               	movlw	0
  2333     0224  00A5               	movwf	___fldiv@b+1
  2334     0225  3000               	movlw	0
  2335     0226  00A4               	movwf	___fldiv@b
  2336     0227                     l2366:
  2337     0227  01B1               	clrf	___fldiv@sign
  2338     0228                     l679:
  2339     0228  1283               	bcf	3,5	;RP0=0, select bank0
  2340     0229  1303               	bcf	3,6	;RP1=0, select bank0
  2341     022A  0832               	movf	___fldiv@new_exp,w
  2342     022B  00B8               	movwf	___fldiv@bexp
  2343     022C                     l2368:
  2344     022C  1C38               	btfss	___fldiv@bexp,0
  2345     022D  2A2F               	goto	u3151
  2346     022E  2A30               	goto	u3150
  2347     022F                     u3151:
  2348     022F  2A32               	goto	l2372
  2349     0230                     u3150:
  2350     0230                     l2370:
  2351     0230  17A6               	bsf	___fldiv@b+2,7
  2352     0231  2A36               	goto	l2374
  2353     0232                     l2372:
  2354     0232  307F               	movlw	127
  2355     0233  00FF               	movwf	btemp+1
  2356     0234  087F               	movf	btemp+1,w
  2357     0235  05A6               	andwf	___fldiv@b+2,f
  2358     0236                     l2374:
  2359     0236  0838               	movf	___fldiv@bexp,w
  2360     0237  00A8               	movwf	??___fldiv
  2361     0238  1003               	clrc
  2362     0239  0C28               	rrf	??___fldiv,w
  2363     023A  00A7               	movwf	___fldiv@b+3
  2364     023B  28D8               	goto	l2278
  2365     023C                     l659:
  2366     023C  0008               	return
  2367     023D                     __end_of___fldiv:
  2368                           
  2369                           	psect	text4
  2370     0834                     __ptext4:	
  2371 ;; *************** function _dht11_config *****************
  2372 ;; Defined at:
  2373 ;;		line 100 in file "dht11.c"
  2374 ;; Parameters:    Size  Location     Type
  2375 ;;		None
  2376 ;; Auto vars:     Size  Location     Type
  2377 ;;		None
  2378 ;; Return value:  Size  Location     Type
  2379 ;;                  1    wreg      void 
  2380 ;; Registers used:
  2381 ;;		wreg
  2382 ;; Tracked objects:
  2383 ;;		On entry : 0/0
  2384 ;;		On exit  : 0/0
  2385 ;;		Unchanged: 0/0
  2386 ;; Data sizes:     COMMON   BANK0   BANK1   BANK3   BANK2
  2387 ;;      Params:         0       0       0       0       0
  2388 ;;      Locals:         0       0       0       0       0
  2389 ;;      Temps:          2       0       0       0       0
  2390 ;;      Totals:         2       0       0       0       0
  2391 ;;Total ram usage:        2 bytes
  2392 ;; Hardware stack levels used: 1
  2393 ;; This function calls:
  2394 ;;		Nothing
  2395 ;; This function is called by:
  2396 ;;		_main
  2397 ;; This function uses a non-reentrant model
  2398 ;;
  2399                           
  2400     0834                     _dht11_config:	
  2401                           ;psect for function _dht11_config
  2402                           
  2403     0834                     l2634:	
  2404                           ;incstack = 0
  2405                           ; Regs used in _dht11_config: [wreg]
  2406                           
  2407                           
  2408                           ;dht11.c: 102:     PORTAbits.RA6 = 0; TRISAbits.TRISA6 = 0;;
  2409     0834  1283               	bcf	3,5	;RP0=0, select bank0
  2410     0835  1303               	bcf	3,6	;RP1=0, select bank0
  2411     0836  1305               	bcf	5,6	;volatile
  2412     0837  1683               	bsf	3,5	;RP0=1, select bank1
  2413     0838  1303               	bcf	3,6	;RP1=0, select bank1
  2414     0839  1305               	bcf	5,6	;volatile
  2415     083A                     l2636:
  2416                           
  2417                           ;dht11.c: 103:     _delay((unsigned long)((18)*((4000000L)/4000.0)));
  2418     083A  3018               	movlw	24
  2419     083B  00F1               	movwf	??_dht11_config+1
  2420     083C  305F               	movlw	95
  2421     083D  00F0               	movwf	??_dht11_config
  2422     083E                     u3877:
  2423     083E  0BF0               	decfsz	??_dht11_config,f
  2424     083F  283E               	goto	u3877
  2425     0840  0BF1               	decfsz	??_dht11_config+1,f
  2426     0841  283E               	goto	u3877
  2427     0842                     l2638:
  2428                           
  2429                           ;dht11.c: 104:     TRISAbits.TRISA6 = 1;;
  2430     0842  1683               	bsf	3,5	;RP0=1, select bank1
  2431     0843  1303               	bcf	3,6	;RP1=0, select bank1
  2432     0844  1705               	bsf	5,6	;volatile
  2433                           
  2434                           ;dht11.c: 105:     _delay((unsigned long)((30)*((4000000L)/4000000.0)));
  2435     0845  3009               	movlw	9
  2436     0846  00F0               	movwf	??_dht11_config
  2437     0847                     u3887:
  2438     0847  0BF0               	decfsz	??_dht11_config,f
  2439     0848  2847               	goto	u3887
  2440     0849  284A               	nop2
  2441     084A                     l2640:
  2442                           
  2443                           ;dht11.c: 106:     OPTION_REGbits.T0CS = 0; OPTION_REGbits.PSA = 1;
  2444     084A  1683               	bsf	3,5	;RP0=1, select bank1
  2445     084B  1303               	bcf	3,6	;RP1=0, select bank1
  2446     084C  1281               	bcf	1,5	;volatile
  2447     084D                     l2642:
  2448     084D  1581               	bsf	1,3	;volatile
  2449     084E                     l196:
  2450     084E  0008               	return
  2451     084F                     __end_of_dht11_config:
  2452                           
  2453                           	psect	text5
  2454     081E                     __ptext5:	
  2455 ;; *************** function _PWM_Init *****************
  2456 ;; Defined at:
  2457 ;;		line 66 in file "main.c"
  2458 ;; Parameters:    Size  Location     Type
  2459 ;;		None
  2460 ;; Auto vars:     Size  Location     Type
  2461 ;;		None
  2462 ;; Return value:  Size  Location     Type
  2463 ;;                  1    wreg      void 
  2464 ;; Registers used:
  2465 ;;		wreg, status,2, status,0
  2466 ;; Tracked objects:
  2467 ;;		On entry : 0/0
  2468 ;;		On exit  : 0/0
  2469 ;;		Unchanged: 0/0
  2470 ;; Data sizes:     COMMON   BANK0   BANK1   BANK3   BANK2
  2471 ;;      Params:         0       0       0       0       0
  2472 ;;      Locals:         0       0       0       0       0
  2473 ;;      Temps:          0       0       0       0       0
  2474 ;;      Totals:         0       0       0       0       0
  2475 ;;Total ram usage:        0 bytes
  2476 ;; Hardware stack levels used: 1
  2477 ;; This function calls:
  2478 ;;		Nothing
  2479 ;; This function is called by:
  2480 ;;		_main
  2481 ;; This function uses a non-reentrant model
  2482 ;;
  2483                           
  2484     081E                     _PWM_Init:	
  2485                           ;psect for function _PWM_Init
  2486                           
  2487     081E                     l2582:	
  2488                           ;incstack = 0
  2489                           ; Regs used in _PWM_Init: [wreg+status,2+status,0]
  2490                           
  2491                           
  2492                           ;main.c: 68:     TRISCbits.TRISC2 = 0;
  2493     081E  1683               	bsf	3,5	;RP0=1, select bank1
  2494     081F  1303               	bcf	3,6	;RP1=0, select bank1
  2495     0820  1107               	bcf	7,2	;volatile
  2496     0821                     l2584:
  2497                           
  2498                           ;main.c: 71:     CCP1CONbits.CCP1M = 0b1100;
  2499     0821  1283               	bcf	3,5	;RP0=0, select bank0
  2500     0822  1303               	bcf	3,6	;RP1=0, select bank0
  2501     0823  0817               	movf	23,w	;volatile
  2502     0824  39F0               	andlw	-16
  2503     0825  380C               	iorlw	12
  2504     0826  0097               	movwf	23	;volatile
  2505     0827                     l2586:
  2506                           
  2507                           ;main.c: 74:     PR2 = 255;
  2508     0827  30FF               	movlw	255
  2509     0828  1683               	bsf	3,5	;RP0=1, select bank1
  2510     0829  1303               	bcf	3,6	;RP1=0, select bank1
  2511     082A  0092               	movwf	18	;volatile
  2512     082B                     l2588:
  2513                           
  2514                           ;main.c: 75:     T2CONbits.T2CKPS = 0b01;
  2515     082B  1283               	bcf	3,5	;RP0=0, select bank0
  2516     082C  1303               	bcf	3,6	;RP1=0, select bank0
  2517     082D  0812               	movf	18,w	;volatile
  2518     082E  39FC               	andlw	-4
  2519     082F  3801               	iorlw	1
  2520     0830  0092               	movwf	18	;volatile
  2521     0831                     l2590:
  2522                           
  2523                           ;main.c: 76:     T2CONbits.TMR2ON = 1;
  2524     0831  1512               	bsf	18,2	;volatile
  2525     0832                     l2592:
  2526                           
  2527                           ;main.c: 79:     CCPR1L = 0;
  2528     0832  0195               	clrf	21	;volatile
  2529     0833                     l78:
  2530     0833  0008               	return
  2531     0834                     __end_of_PWM_Init:
  2532                           
  2533                           	psect	text6
  2534     0A82                     __ptext6:	
  2535 ;; *************** function _LCD_Init *****************
  2536 ;; Defined at:
  2537 ;;		line 109 in file "lcd_msd.c"
  2538 ;; Parameters:    Size  Location     Type
  2539 ;;		None
  2540 ;; Auto vars:     Size  Location     Type
  2541 ;;		None
  2542 ;; Return value:  Size  Location     Type
  2543 ;;                  1    wreg      void 
  2544 ;; Registers used:
  2545 ;;		wreg, status,2, status,0, btemp+1, pclath, cstack
  2546 ;; Tracked objects:
  2547 ;;		On entry : 0/0
  2548 ;;		On exit  : 0/0
  2549 ;;		Unchanged: 0/0
  2550 ;; Data sizes:     COMMON   BANK0   BANK1   BANK3   BANK2
  2551 ;;      Params:         0       0       0       0       0
  2552 ;;      Locals:         0       0       0       0       0
  2553 ;;      Temps:          0       2       0       0       0
  2554 ;;      Totals:         0       2       0       0       0
  2555 ;;Total ram usage:        2 bytes
  2556 ;; Hardware stack levels used: 1
  2557 ;; Hardware stack levels required when called: 3
  2558 ;; This function calls:
  2559 ;;		_LCD_Clear
  2560 ;;		_LCD_Write
  2561 ;; This function is called by:
  2562 ;;		_main
  2563 ;; This function uses a non-reentrant model
  2564 ;;
  2565                           
  2566     0A82                     _LCD_Init:	
  2567                           ;psect for function _LCD_Init
  2568                           
  2569     0A82                     l2594:	
  2570                           ;incstack = 0
  2571                           ; Regs used in _LCD_Init: [wreg+status,2+status,0+btemp+1+pclath+cstack]
  2572                           
  2573                           
  2574                           ;lcd_msd.c: 111:     TRISB = TRISB & 0b11010000u;
  2575     0A82  1683               	bsf	3,5	;RP0=1, select bank1
  2576     0A83  1303               	bcf	3,6	;RP1=0, select bank1
  2577     0A84  0806               	movf	6,w	;volatile
  2578     0A85  39D0               	andlw	208
  2579     0A86  0086               	movwf	6	;volatile
  2580     0A87                     l2596:
  2581                           
  2582                           ;lcd_msd.c: 112:     TRISCbits.TRISC1 = 0;
  2583     0A87  1087               	bcf	7,1	;volatile
  2584     0A88                     l2598:
  2585                           
  2586                           ;lcd_msd.c: 113:     TRISCbits.TRISC3 = 0;
  2587     0A88  1187               	bcf	7,3	;volatile
  2588     0A89                     l2600:
  2589                           
  2590                           ;lcd_msd.c: 114:     PORTCbits.RC3 = 0;
  2591     0A89  1283               	bcf	3,5	;RP0=0, select bank0
  2592     0A8A  1303               	bcf	3,6	;RP1=0, select bank0
  2593     0A8B  1187               	bcf	7,3	;volatile
  2594     0A8C                     l2602:
  2595                           
  2596                           ;lcd_msd.c: 116:     PORTB = 0;
  2597     0A8C  0186               	clrf	6	;volatile
  2598     0A8D                     l2604:
  2599                           
  2600                           ;lcd_msd.c: 117:     PORTCbits.RC1 = 0;
  2601     0A8D  1087               	bcf	7,1	;volatile
  2602                           
  2603                           ;lcd_msd.c: 119:     _delay((unsigned long)((100)*(4000000/4000.0)));
  2604     0A8E  3082               	movlw	130
  2605     0A8F  1283               	bcf	3,5	;RP0=0, select bank0
  2606     0A90  1303               	bcf	3,6	;RP1=0, select bank0
  2607     0A91  00BF               	movwf	??_LCD_Init+1
  2608     0A92  30DD               	movlw	221
  2609     0A93  00BE               	movwf	??_LCD_Init
  2610     0A94                     u3897:
  2611     0A94  0BBE               	decfsz	??_LCD_Init,f
  2612     0A95  2A94               	goto	u3897
  2613     0A96  0BBF               	decfsz	??_LCD_Init+1,f
  2614     0A97  2A94               	goto	u3897
  2615                           
  2616                           ;lcd_msd.c: 120:     PORTB = 0b00000011u;
  2617     0A98  3003               	movlw	3
  2618     0A99  1283               	bcf	3,5	;RP0=0, select bank0
  2619     0A9A  1303               	bcf	3,6	;RP1=0, select bank0
  2620     0A9B  0086               	movwf	6	;volatile
  2621     0A9C                     l2606:
  2622                           
  2623                           ;lcd_msd.c: 121:     ((PORTCbits.RC1=1),(PORTCbits.RC1=0));
  2624     0A9C  1487               	bsf	7,1	;volatile
  2625     0A9D                     l2608:
  2626     0A9D  1087               	bcf	7,1	;volatile
  2627                           
  2628                           ;lcd_msd.c: 122:     _delay((unsigned long)((5)*(4000000/4000.0)));
  2629     0A9E  3007               	movlw	7
  2630     0A9F  1283               	bcf	3,5	;RP0=0, select bank0
  2631     0AA0  1303               	bcf	3,6	;RP1=0, select bank0
  2632     0AA1  00BF               	movwf	??_LCD_Init+1
  2633     0AA2  307C               	movlw	124
  2634     0AA3  00BE               	movwf	??_LCD_Init
  2635     0AA4                     u3907:
  2636     0AA4  0BBE               	decfsz	??_LCD_Init,f
  2637     0AA5  2AA4               	goto	u3907
  2638     0AA6  0BBF               	decfsz	??_LCD_Init+1,f
  2639     0AA7  2AA4               	goto	u3907
  2640     0AA8  0000               	nop
  2641     0AA9                     l2610:
  2642                           
  2643                           ;lcd_msd.c: 123:     ((PORTCbits.RC1=1),(PORTCbits.RC1=0));
  2644     0AA9  1283               	bcf	3,5	;RP0=0, select bank0
  2645     0AAA  1303               	bcf	3,6	;RP1=0, select bank0
  2646     0AAB  1487               	bsf	7,1	;volatile
  2647     0AAC                     l2612:
  2648     0AAC  1087               	bcf	7,1	;volatile
  2649                           
  2650                           ;lcd_msd.c: 124:     _delay((unsigned long)((1)*(4000000/4000.0)));
  2651     0AAD  30C7               	movlw	199
  2652     0AAE  1283               	bcf	3,5	;RP0=0, select bank0
  2653     0AAF  1303               	bcf	3,6	;RP1=0, select bank0
  2654     0AB0  00BE               	movwf	??_LCD_Init
  2655     0AB1                     u3917:
  2656     0AB1  2AB2               	nop2
  2657     0AB2  0BBE               	decfsz	??_LCD_Init,f
  2658     0AB3  2AB1               	goto	u3917
  2659     0AB4  2AB5               	nop2
  2660     0AB5                     l2614:
  2661                           
  2662                           ;lcd_msd.c: 125:     ((PORTCbits.RC1=1),(PORTCbits.RC1=0));
  2663     0AB5  1283               	bcf	3,5	;RP0=0, select bank0
  2664     0AB6  1303               	bcf	3,6	;RP1=0, select bank0
  2665     0AB7  1487               	bsf	7,1	;volatile
  2666     0AB8                     l2616:
  2667     0AB8  1087               	bcf	7,1	;volatile
  2668                           
  2669                           ;lcd_msd.c: 126:     _delay((unsigned long)((1)*(4000000/4000.0)));
  2670     0AB9  30C7               	movlw	199
  2671     0ABA  1283               	bcf	3,5	;RP0=0, select bank0
  2672     0ABB  1303               	bcf	3,6	;RP1=0, select bank0
  2673     0ABC  00BE               	movwf	??_LCD_Init
  2674     0ABD                     u3927:
  2675     0ABD  2ABE               	nop2
  2676     0ABE  0BBE               	decfsz	??_LCD_Init,f
  2677     0ABF  2ABD               	goto	u3927
  2678     0AC0  2AC1               	nop2
  2679                           
  2680                           ;lcd_msd.c: 128:     PORTB = 0b00000010u;
  2681     0AC1  3002               	movlw	2
  2682     0AC2  1283               	bcf	3,5	;RP0=0, select bank0
  2683     0AC3  1303               	bcf	3,6	;RP1=0, select bank0
  2684     0AC4  0086               	movwf	6	;volatile
  2685     0AC5                     l2618:
  2686                           
  2687                           ;lcd_msd.c: 129:     ((PORTCbits.RC1=1),(PORTCbits.RC1=0));
  2688     0AC5  1487               	bsf	7,1	;volatile
  2689     0AC6                     l2620:
  2690     0AC6  1087               	bcf	7,1	;volatile
  2691                           
  2692                           ;lcd_msd.c: 131:     _delay((unsigned long)((100)*(4000000/4000000.0)));
  2693     0AC7  3020               	movlw	32
  2694     0AC8  1283               	bcf	3,5	;RP0=0, select bank0
  2695     0AC9  1303               	bcf	3,6	;RP1=0, select bank0
  2696     0ACA  00BE               	movwf	??_LCD_Init
  2697     0ACB                     u3937:
  2698     0ACB  0BBE               	decfsz	??_LCD_Init,f
  2699     0ACC  2ACB               	goto	u3937
  2700     0ACD  0000               	nop
  2701     0ACE                     l2622:
  2702                           
  2703                           ;lcd_msd.c: 132:     LCD_Write(0b00101000, 0);
  2704     0ACE  01FC               	clrf	LCD_Write@RS
  2705     0ACF  3028               	movlw	40
  2706     0AD0  120A  158A  219F  120A  158A  	fcall	_LCD_Write
  2707     0AD5                     l2624:
  2708                           
  2709                           ;lcd_msd.c: 133:     _delay((unsigned long)((100)*(4000000/4000000.0)));
  2710     0AD5  3020               	movlw	32
  2711     0AD6  1283               	bcf	3,5	;RP0=0, select bank0
  2712     0AD7  1303               	bcf	3,6	;RP1=0, select bank0
  2713     0AD8  00BE               	movwf	??_LCD_Init
  2714     0AD9                     u3947:
  2715     0AD9  0BBE               	decfsz	??_LCD_Init,f
  2716     0ADA  2AD9               	goto	u3947
  2717     0ADB  0000               	nop
  2718                           
  2719                           ;lcd_msd.c: 134:     LCD_Clear();
  2720     0ADC  120A  158A  200C  120A  158A  	fcall	_LCD_Clear
  2721     0AE1                     l2626:
  2722                           
  2723                           ;lcd_msd.c: 135:     _delay((unsigned long)((4)*(4000000/4000.0)));
  2724     0AE1  3006               	movlw	6
  2725     0AE2  1283               	bcf	3,5	;RP0=0, select bank0
  2726     0AE3  1303               	bcf	3,6	;RP1=0, select bank0
  2727     0AE4  00BF               	movwf	??_LCD_Init+1
  2728     0AE5  302F               	movlw	47
  2729     0AE6  00BE               	movwf	??_LCD_Init
  2730     0AE7                     u3957:
  2731     0AE7  0BBE               	decfsz	??_LCD_Init,f
  2732     0AE8  2AE7               	goto	u3957
  2733     0AE9  0BBF               	decfsz	??_LCD_Init+1,f
  2734     0AEA  2AE7               	goto	u3957
  2735     0AEB  2AEC               	nop2
  2736     0AEC                     l2628:
  2737                           
  2738                           ;lcd_msd.c: 136:     LCD_Write(0b00000110, 0);
  2739     0AEC  01FC               	clrf	LCD_Write@RS
  2740     0AED  3006               	movlw	6
  2741     0AEE  120A  158A  219F  120A  158A  	fcall	_LCD_Write
  2742                           
  2743                           ;lcd_msd.c: 137:     _delay((unsigned long)((100)*(4000000/4000000.0)));
  2744     0AF3  3020               	movlw	32
  2745     0AF4  1283               	bcf	3,5	;RP0=0, select bank0
  2746     0AF5  1303               	bcf	3,6	;RP1=0, select bank0
  2747     0AF6  00BE               	movwf	??_LCD_Init
  2748     0AF7                     u3967:
  2749     0AF7  0BBE               	decfsz	??_LCD_Init,f
  2750     0AF8  2AF7               	goto	u3967
  2751     0AF9  0000               	nop
  2752     0AFA                     l2630:
  2753                           
  2754                           ;lcd_msd.c: 138:     LCD_Write(0b00001100, 0);
  2755     0AFA  01FC               	clrf	LCD_Write@RS
  2756     0AFB  300C               	movlw	12
  2757     0AFC  120A  158A  219F  120A  158A  	fcall	_LCD_Write
  2758     0B01                     l2632:
  2759                           
  2760                           ;lcd_msd.c: 139:     _delay((unsigned long)((100)*(4000000/4000000.0)));
  2761     0B01  3020               	movlw	32
  2762     0B02  1283               	bcf	3,5	;RP0=0, select bank0
  2763     0B03  1303               	bcf	3,6	;RP1=0, select bank0
  2764     0B04  00BE               	movwf	??_LCD_Init
  2765     0B05                     u3977:
  2766     0B05  0BBE               	decfsz	??_LCD_Init,f
  2767     0B06  2B05               	goto	u3977
  2768     0B07  0000               	nop
  2769     0B08                     l128:
  2770     0B08  0008               	return
  2771     0B09                     __end_of_LCD_Init:
  2772                           
  2773                           	psect	text7
  2774     080C                     __ptext7:	
  2775 ;; *************** function _LCD_Clear *****************
  2776 ;; Defined at:
  2777 ;;		line 56 in file "lcd_msd.c"
  2778 ;; Parameters:    Size  Location     Type
  2779 ;;		None
  2780 ;; Auto vars:     Size  Location     Type
  2781 ;;		None
  2782 ;; Return value:  Size  Location     Type
  2783 ;;                  1    wreg      void 
  2784 ;; Registers used:
  2785 ;;		wreg, status,2, status,0, btemp+1, pclath, cstack
  2786 ;; Tracked objects:
  2787 ;;		On entry : 0/0
  2788 ;;		On exit  : 0/0
  2789 ;;		Unchanged: 0/0
  2790 ;; Data sizes:     COMMON   BANK0   BANK1   BANK3   BANK2
  2791 ;;      Params:         0       0       0       0       0
  2792 ;;      Locals:         0       0       0       0       0
  2793 ;;      Temps:          0       2       0       0       0
  2794 ;;      Totals:         0       2       0       0       0
  2795 ;;Total ram usage:        2 bytes
  2796 ;; Hardware stack levels used: 1
  2797 ;; Hardware stack levels required when called: 2
  2798 ;; This function calls:
  2799 ;;		_LCD_Write
  2800 ;; This function is called by:
  2801 ;;		_LCD_Init
  2802 ;; This function uses a non-reentrant model
  2803 ;;
  2804                           
  2805     080C                     _LCD_Clear:	
  2806                           ;psect for function _LCD_Clear
  2807                           
  2808     080C                     l2098:	
  2809                           ;incstack = 0
  2810                           ; Regs used in _LCD_Clear: [wreg+status,2+status,0+btemp+1+pclath+cstack]
  2811                           
  2812                           
  2813                           ;lcd_msd.c: 58:     LCD_Write(0x01, 0);
  2814     080C  01FC               	clrf	LCD_Write@RS
  2815     080D  3001               	movlw	1
  2816     080E  120A  158A  219F  120A  158A  	fcall	_LCD_Write
  2817     0813                     l2100:
  2818                           
  2819                           ;lcd_msd.c: 60:     _delay((unsigned long)((2)*(4000000/4000.0)));
  2820     0813  3003               	movlw	3
  2821     0814  1283               	bcf	3,5	;RP0=0, select bank0
  2822     0815  1303               	bcf	3,6	;RP1=0, select bank0
  2823     0816  00BD               	movwf	??_LCD_Clear+1
  2824     0817  3097               	movlw	151
  2825     0818  00BC               	movwf	??_LCD_Clear
  2826     0819                     u3987:
  2827     0819  0BBC               	decfsz	??_LCD_Clear,f
  2828     081A  2819               	goto	u3987
  2829     081B  0BBD               	decfsz	??_LCD_Clear+1,f
  2830     081C  2819               	goto	u3987
  2831     081D                     l107:
  2832     081D  0008               	return
  2833     081E                     __end_of_LCD_Clear:
  2834                           
  2835                           	psect	text8
  2836     089A                     __ptext8:	
  2837 ;; *************** function _LCD_Goto *****************
  2838 ;; Defined at:
  2839 ;;		line 82 in file "lcd_msd.c"
  2840 ;; Parameters:    Size  Location     Type
  2841 ;;  row             1    wreg     unsigned char 
  2842 ;;  pos             1   13[COMMON] unsigned char 
  2843 ;; Auto vars:     Size  Location     Type
  2844 ;;  row             1   28[BANK0 ] unsigned char 
  2845 ;;  data            1   29[BANK0 ] unsigned char 
  2846 ;; Return value:  Size  Location     Type
  2847 ;;                  1    wreg      void 
  2848 ;; Registers used:
  2849 ;;		wreg, fsr0l, fsr0h, status,2, status,0, btemp+1, pclath, cstack
  2850 ;; Tracked objects:
  2851 ;;		On entry : 0/0
  2852 ;;		On exit  : 0/0
  2853 ;;		Unchanged: 0/0
  2854 ;; Data sizes:     COMMON   BANK0   BANK1   BANK3   BANK2
  2855 ;;      Params:         1       0       0       0       0
  2856 ;;      Locals:         0       2       0       0       0
  2857 ;;      Temps:          0       0       0       0       0
  2858 ;;      Totals:         1       2       0       0       0
  2859 ;;Total ram usage:        3 bytes
  2860 ;; Hardware stack levels used: 1
  2861 ;; Hardware stack levels required when called: 2
  2862 ;; This function calls:
  2863 ;;		_LCD_Write
  2864 ;; This function is called by:
  2865 ;;		_main
  2866 ;; This function uses a non-reentrant model
  2867 ;;
  2868                           
  2869     089A                     _LCD_Goto:	
  2870                           ;psect for function _LCD_Goto
  2871                           
  2872                           
  2873                           ;incstack = 0
  2874                           ; Regs used in _LCD_Goto: [wreg-fsr0h+status,2+status,0+btemp+1+pclath+cstack]
  2875                           ;LCD_Goto@row stored from wreg
  2876     089A  1283               	bcf	3,5	;RP0=0, select bank0
  2877     089B  1303               	bcf	3,6	;RP1=0, select bank0
  2878     089C  00BC               	movwf	LCD_Goto@row
  2879     089D                     l2688:
  2880                           
  2881                           ;lcd_msd.c: 82: void LCD_Goto(uint8_t row, uint8_t pos);lcd_msd.c: 83: {;lcd_msd.c: 84: 
      +                              uint8_t data;;lcd_msd.c: 86:     switch (row)
  2882     089D  28AE               	goto	l2700
  2883     089E                     l2690:
  2884                           
  2885                           ;lcd_msd.c: 89:         data = 0x80 + 0x00 + pos;
  2886     089E  087D               	movf	LCD_Goto@pos,w
  2887     089F  3E80               	addlw	128
  2888     08A0  00BD               	movwf	LCD_Goto@data
  2889                           
  2890                           ;lcd_msd.c: 90:         break;
  2891     08A1  28BC               	goto	l2702
  2892     08A2                     l2692:
  2893                           
  2894                           ;lcd_msd.c: 93:         data = 0x80 + 0x40 + pos;
  2895     08A2  087D               	movf	LCD_Goto@pos,w
  2896     08A3  3EC0               	addlw	192
  2897     08A4  00BD               	movwf	LCD_Goto@data
  2898                           
  2899                           ;lcd_msd.c: 94:         break;
  2900     08A5  28BC               	goto	l2702
  2901     08A6                     l2694:
  2902                           
  2903                           ;lcd_msd.c: 97:         data = 0x80 + 0x10 + pos;
  2904     08A6  087D               	movf	LCD_Goto@pos,w
  2905     08A7  3E90               	addlw	144
  2906     08A8  00BD               	movwf	LCD_Goto@data
  2907                           
  2908                           ;lcd_msd.c: 98:         break;
  2909     08A9  28BC               	goto	l2702
  2910     08AA                     l2696:
  2911                           
  2912                           ;lcd_msd.c: 101:         data = 0x80 + 0x50 + pos;
  2913     08AA  087D               	movf	LCD_Goto@pos,w
  2914     08AB  3ED0               	addlw	208
  2915     08AC  00BD               	movwf	LCD_Goto@data
  2916                           
  2917                           ;lcd_msd.c: 102:         break;
  2918     08AD  28BC               	goto	l2702
  2919     08AE                     l2700:
  2920     08AE  083C               	movf	LCD_Goto@row,w
  2921                           
  2922                           ; Switch size 1, requested type "simple"
  2923                           ; Number of cases is 4, Range of values is 0 to 3
  2924                           ; switch strategies available:
  2925                           ; Name         Instructions Cycles
  2926                           ; simple_byte           13     7 (average)
  2927                           ; direct_byte           20     8 (fixed)
  2928                           ; jumptable            260     6 (fixed)
  2929                           ;	Chosen strategy is simple_byte
  2930     08AF  3A00               	xorlw	0	; case 0
  2931     08B0  1903               	skipnz
  2932     08B1  289E               	goto	l2690
  2933     08B2  3A01               	xorlw	1	; case 1
  2934     08B3  1903               	skipnz
  2935     08B4  28A2               	goto	l2692
  2936     08B5  3A03               	xorlw	3	; case 2
  2937     08B6  1903               	skipnz
  2938     08B7  28A6               	goto	l2694
  2939     08B8  3A01               	xorlw	1	; case 3
  2940     08B9  1903               	skipnz
  2941     08BA  28AA               	goto	l2696
  2942     08BB  28BC               	goto	l2702
  2943     08BC                     l2702:
  2944                           
  2945                           ;lcd_msd.c: 104:     LCD_Write(data, 0);
  2946     08BC  01FC               	clrf	LCD_Write@RS
  2947     08BD  083D               	movf	LCD_Goto@data,w
  2948     08BE  120A  158A  219F  120A  158A  	fcall	_LCD_Write
  2949     08C3                     l125:
  2950     08C3  0008               	return
  2951     08C4                     __end_of_LCD_Goto:
  2952                           
  2953                           	psect	text9
  2954     0DD0                     __ptext9:	
  2955 ;; *************** function _LCD_Float *****************
  2956 ;; Defined at:
  2957 ;;		line 214 in file "lcd_msd.c"
  2958 ;; Parameters:    Size  Location     Type
  2959 ;;  value           4   54[BANK0 ] float 
  2960 ;;  positions       1   58[BANK0 ] unsigned char 
  2961 ;;  decimal_pos     1   59[BANK0 ] unsigned char 
  2962 ;; Auto vars:     Size  Location     Type
  2963 ;;  Bruch           4   65[BANK0 ] float 
  2964 ;;  number          4   61[BANK0 ] unsigned long 
  2965 ;;  i               1   60[BANK0 ] unsigned char 
  2966 ;; Return value:  Size  Location     Type
  2967 ;;                  1    wreg      void 
  2968 ;; Registers used:
  2969 ;;		wreg, fsr0l, fsr0h, status,2, status,0, btemp+1, pclath, cstack
  2970 ;; Tracked objects:
  2971 ;;		On entry : 0/0
  2972 ;;		On exit  : 0/0
  2973 ;;		Unchanged: 0/0
  2974 ;; Data sizes:     COMMON   BANK0   BANK1   BANK3   BANK2
  2975 ;;      Params:         0       6       0       0       0
  2976 ;;      Locals:         0       9       0       0       0
  2977 ;;      Temps:          0       0       0       0       0
  2978 ;;      Totals:         0      15       0       0       0
  2979 ;;Total ram usage:       15 bytes
  2980 ;; Hardware stack levels used: 1
  2981 ;; Hardware stack levels required when called: 3
  2982 ;; This function calls:
  2983 ;;		_LCD_Int
  2984 ;;		_LCD_Write
  2985 ;;		___flge
  2986 ;;		___flmul
  2987 ;;		___flneg
  2988 ;;		___flsub
  2989 ;;		___fltol
  2990 ;;		___xxtofl
  2991 ;; This function is called by:
  2992 ;;		_main
  2993 ;; This function uses a non-reentrant model
  2994 ;;
  2995                           
  2996     0DD0                     _LCD_Float:	
  2997                           ;psect for function _LCD_Float
  2998                           
  2999     0DD0                     l2704:	
  3000                           ;incstack = 0
  3001                           ; Regs used in _LCD_Float: [wreg-fsr0h+status,2+status,0+btemp+1+pclath+cstack]
  3002                           
  3003                           
  3004                           ;lcd_msd.c: 214: void LCD_Float(float value, uint8_t positions, uint8_t decimal_pos);lcd
      +                          _msd.c: 215: {;lcd_msd.c: 216:     uint8_t i;;lcd_msd.c: 217:     uint32_t number;;lcd_m
      +                          sd.c: 218:     float Bruch;;lcd_msd.c: 220:     if (value >= 0)
  3005     0DD0  1283               	bcf	3,5	;RP0=0, select bank0
  3006     0DD1  1303               	bcf	3,6	;RP1=0, select bank0
  3007     0DD2  0859               	movf	LCD_Float@value+3,w
  3008     0DD3  00F3               	movwf	___flge@ff1+3
  3009     0DD4  0858               	movf	LCD_Float@value+2,w
  3010     0DD5  00F2               	movwf	___flge@ff1+2
  3011     0DD6  0857               	movf	LCD_Float@value+1,w
  3012     0DD7  00F1               	movwf	___flge@ff1+1
  3013     0DD8  0856               	movf	LCD_Float@value,w
  3014     0DD9  00F0               	movwf	___flge@ff1
  3015     0DDA  3000               	movlw	0
  3016     0DDB  00F7               	movwf	___flge@ff2+3
  3017     0DDC  3000               	movlw	0
  3018     0DDD  00F6               	movwf	___flge@ff2+2
  3019     0DDE  3000               	movlw	0
  3020     0DDF  00F5               	movwf	___flge@ff2+1
  3021     0DE0  3000               	movlw	0
  3022     0DE1  00F4               	movwf	___flge@ff2
  3023     0DE2  120A  158A  2309  120A  158A  	fcall	___flge
  3024     0DE7  1C03               	btfss	3,0
  3025     0DE8  2DEA               	goto	u3761
  3026     0DE9  2DEB               	goto	u3760
  3027     0DEA                     u3761:
  3028     0DEA  2DF4               	goto	l2708
  3029     0DEB                     u3760:
  3030     0DEB                     l2706:
  3031                           
  3032                           ;lcd_msd.c: 221:         LCD_Write('+', 1);
  3033     0DEB  01FC               	clrf	LCD_Write@RS
  3034     0DEC  0AFC               	incf	LCD_Write@RS,f
  3035     0DED  302B               	movlw	43
  3036     0DEE  120A  158A  219F  120A  158A  	fcall	_LCD_Write
  3037     0DF3  2E15               	goto	l2712
  3038     0DF4                     l2708:
  3039                           
  3040                           ;lcd_msd.c: 223:     {;lcd_msd.c: 224:         LCD_Write('-', 1);
  3041     0DF4  01FC               	clrf	LCD_Write@RS
  3042     0DF5  0AFC               	incf	LCD_Write@RS,f
  3043     0DF6  302D               	movlw	45
  3044     0DF7  120A  158A  219F  120A  158A  	fcall	_LCD_Write
  3045     0DFC                     l2710:
  3046                           
  3047                           ;lcd_msd.c: 225:         value = -value;
  3048     0DFC  1283               	bcf	3,5	;RP0=0, select bank0
  3049     0DFD  1303               	bcf	3,6	;RP1=0, select bank0
  3050     0DFE  0859               	movf	LCD_Float@value+3,w
  3051     0DFF  00F3               	movwf	___flneg@f1+3
  3052     0E00  0858               	movf	LCD_Float@value+2,w
  3053     0E01  00F2               	movwf	___flneg@f1+2
  3054     0E02  0857               	movf	LCD_Float@value+1,w
  3055     0E03  00F1               	movwf	___flneg@f1+1
  3056     0E04  0856               	movf	LCD_Float@value,w
  3057     0E05  00F0               	movwf	___flneg@f1
  3058     0E06  160A  118A  27E7  120A  158A  	fcall	___flneg
  3059     0E0B  0873               	movf	?___flneg+3,w
  3060     0E0C  1283               	bcf	3,5	;RP0=0, select bank0
  3061     0E0D  1303               	bcf	3,6	;RP1=0, select bank0
  3062     0E0E  00D9               	movwf	LCD_Float@value+3
  3063     0E0F  0872               	movf	?___flneg+2,w
  3064     0E10  00D8               	movwf	LCD_Float@value+2
  3065     0E11  0871               	movf	?___flneg+1,w
  3066     0E12  00D7               	movwf	LCD_Float@value+1
  3067     0E13  0870               	movf	?___flneg,w
  3068     0E14  00D6               	movwf	LCD_Float@value
  3069     0E15                     l2712:
  3070                           
  3071                           ;lcd_msd.c: 228:     number = (int) value;
  3072     0E15  1283               	bcf	3,5	;RP0=0, select bank0
  3073     0E16  1303               	bcf	3,6	;RP1=0, select bank0
  3074     0E17  0859               	movf	LCD_Float@value+3,w
  3075     0E18  00F3               	movwf	___fltol@f1+3
  3076     0E19  0858               	movf	LCD_Float@value+2,w
  3077     0E1A  00F2               	movwf	___fltol@f1+2
  3078     0E1B  0857               	movf	LCD_Float@value+1,w
  3079     0E1C  00F1               	movwf	___fltol@f1+1
  3080     0E1D  0856               	movf	LCD_Float@value,w
  3081     0E1E  00F0               	movwf	___fltol@f1
  3082     0E1F  120A  158A  220C  120A  158A  	fcall	___fltol
  3083     0E24  0870               	movf	?___fltol,w
  3084     0E25  1283               	bcf	3,5	;RP0=0, select bank0
  3085     0E26  1303               	bcf	3,6	;RP1=0, select bank0
  3086     0E27  00DD               	movwf	LCD_Float@number
  3087     0E28  0871               	movf	?___fltol+1,w
  3088     0E29  00DE               	movwf	LCD_Float@number+1
  3089     0E2A  3000               	movlw	0
  3090     0E2B  1BDE               	btfsc	LCD_Float@number+1,7
  3091     0E2C  30FF               	movlw	255
  3092     0E2D  00DF               	movwf	LCD_Float@number+2
  3093     0E2E  00E0               	movwf	LCD_Float@number+3
  3094     0E2F                     l2714:
  3095                           
  3096                           ;lcd_msd.c: 229:     Bruch = value - number;
  3097     0E2F  0860               	movf	LCD_Float@number+3,w
  3098     0E30  00F3               	movwf	___xxtofl@val+3
  3099     0E31  085F               	movf	LCD_Float@number+2,w
  3100     0E32  00F2               	movwf	___xxtofl@val+2
  3101     0E33  085E               	movf	LCD_Float@number+1,w
  3102     0E34  00F1               	movwf	___xxtofl@val+1
  3103     0E35  085D               	movf	LCD_Float@number,w
  3104     0E36  00F0               	movwf	___xxtofl@val
  3105     0E37  3000               	movlw	0
  3106     0E38  120A  158A  245C  120A  158A  	fcall	___xxtofl
  3107     0E3D  0873               	movf	?___xxtofl+3,w
  3108     0E3E  1283               	bcf	3,5	;RP0=0, select bank0
  3109     0E3F  1303               	bcf	3,6	;RP1=0, select bank0
  3110     0E40  00D1               	movwf	___flsub@a+3
  3111     0E41  0872               	movf	?___xxtofl+2,w
  3112     0E42  00D0               	movwf	___flsub@a+2
  3113     0E43  0871               	movf	?___xxtofl+1,w
  3114     0E44  00CF               	movwf	___flsub@a+1
  3115     0E45  0870               	movf	?___xxtofl,w
  3116     0E46  00CE               	movwf	___flsub@a
  3117     0E47  0859               	movf	LCD_Float@value+3,w
  3118     0E48  00D5               	movwf	___flsub@b+3
  3119     0E49  0858               	movf	LCD_Float@value+2,w
  3120     0E4A  00D4               	movwf	___flsub@b+2
  3121     0E4B  0857               	movf	LCD_Float@value+1,w
  3122     0E4C  00D3               	movwf	___flsub@b+1
  3123     0E4D  0856               	movf	LCD_Float@value,w
  3124     0E4E  00D2               	movwf	___flsub@b
  3125     0E4F  120A  158A  204F  120A  158A  	fcall	___flsub
  3126     0E54  1283               	bcf	3,5	;RP0=0, select bank0
  3127     0E55  1303               	bcf	3,6	;RP1=0, select bank0
  3128     0E56  0851               	movf	?___flsub+3,w
  3129     0E57  00E4               	movwf	LCD_Float@Bruch+3
  3130     0E58  0850               	movf	?___flsub+2,w
  3131     0E59  00E3               	movwf	LCD_Float@Bruch+2
  3132     0E5A  084F               	movf	?___flsub+1,w
  3133     0E5B  00E2               	movwf	LCD_Float@Bruch+1
  3134     0E5C  084E               	movf	?___flsub,w
  3135     0E5D  00E1               	movwf	LCD_Float@Bruch
  3136     0E5E                     l2716:
  3137                           
  3138                           ;lcd_msd.c: 231:     LCD_Int(number, positions - decimal_pos, 1);
  3139     0E5E  0860               	movf	LCD_Float@number+3,w
  3140     0E5F  00BF               	movwf	LCD_Int@value+3
  3141     0E60  085F               	movf	LCD_Float@number+2,w
  3142     0E61  00BE               	movwf	LCD_Int@value+2
  3143     0E62  085E               	movf	LCD_Float@number+1,w
  3144     0E63  00BD               	movwf	LCD_Int@value+1
  3145     0E64  085D               	movf	LCD_Float@number,w
  3146     0E65  00BC               	movwf	LCD_Int@value
  3147     0E66  085B               	movf	LCD_Float@decimal_pos,w
  3148     0E67  025A               	subwf	LCD_Float@positions,w
  3149     0E68  00C0               	movwf	LCD_Int@positions
  3150     0E69  01C1               	clrf	LCD_Int@zeros
  3151     0E6A  0AC1               	incf	LCD_Int@zeros,f
  3152     0E6B  120A  158A  23AB  120A  158A  	fcall	_LCD_Int
  3153     0E70                     l2718:
  3154                           
  3155                           ;lcd_msd.c: 232:     LCD_Write('.', 1);
  3156     0E70  01FC               	clrf	LCD_Write@RS
  3157     0E71  0AFC               	incf	LCD_Write@RS,f
  3158     0E72  302E               	movlw	46
  3159     0E73  120A  158A  219F  120A  158A  	fcall	_LCD_Write
  3160     0E78                     l2720:
  3161                           
  3162                           ;lcd_msd.c: 234:     for (i = 1; i <= decimal_pos; i++)
  3163     0E78  1283               	bcf	3,5	;RP0=0, select bank0
  3164     0E79  1303               	bcf	3,6	;RP1=0, select bank0
  3165     0E7A  01DC               	clrf	LCD_Float@i
  3166     0E7B  0ADC               	incf	LCD_Float@i,f
  3167     0E7C  2EA0               	goto	l2726
  3168     0E7D                     l2722:
  3169                           
  3170                           ;lcd_msd.c: 235:         Bruch = Bruch * 10;
  3171     0E7D  3041               	movlw	65
  3172     0E7E  00A3               	movwf	___flmul@b+3
  3173     0E7F  3020               	movlw	32
  3174     0E80  00A2               	movwf	___flmul@b+2
  3175     0E81  3000               	movlw	0
  3176     0E82  00A1               	movwf	___flmul@b+1
  3177     0E83  3000               	movlw	0
  3178     0E84  00A0               	movwf	___flmul@b
  3179     0E85  0864               	movf	LCD_Float@Bruch+3,w
  3180     0E86  00A7               	movwf	___flmul@a+3
  3181     0E87  0863               	movf	LCD_Float@Bruch+2,w
  3182     0E88  00A6               	movwf	___flmul@a+2
  3183     0E89  0862               	movf	LCD_Float@Bruch+1,w
  3184     0E8A  00A5               	movwf	___flmul@a+1
  3185     0E8B  0861               	movf	LCD_Float@Bruch,w
  3186     0E8C  00A4               	movwf	___flmul@a
  3187     0E8D  120A  118A  2495  120A  158A  	fcall	___flmul
  3188     0E92  1283               	bcf	3,5	;RP0=0, select bank0
  3189     0E93  1303               	bcf	3,6	;RP1=0, select bank0
  3190     0E94  0823               	movf	?___flmul+3,w
  3191     0E95  00E4               	movwf	LCD_Float@Bruch+3
  3192     0E96  0822               	movf	?___flmul+2,w
  3193     0E97  00E3               	movwf	LCD_Float@Bruch+2
  3194     0E98  0821               	movf	?___flmul+1,w
  3195     0E99  00E2               	movwf	LCD_Float@Bruch+1
  3196     0E9A  0820               	movf	?___flmul,w
  3197     0E9B  00E1               	movwf	LCD_Float@Bruch
  3198     0E9C                     l2724:
  3199     0E9C  3001               	movlw	1
  3200     0E9D  00FF               	movwf	btemp+1
  3201     0E9E  087F               	movf	btemp+1,w
  3202     0E9F  07DC               	addwf	LCD_Float@i,f
  3203     0EA0                     l2726:
  3204     0EA0  085C               	movf	LCD_Float@i,w
  3205     0EA1  025B               	subwf	LCD_Float@decimal_pos,w
  3206     0EA2  1803               	skipnc
  3207     0EA3  2EA5               	goto	u3771
  3208     0EA4  2EA6               	goto	u3770
  3209     0EA5                     u3771:
  3210     0EA5  2E7D               	goto	l2722
  3211     0EA6                     u3770:
  3212     0EA6                     l2728:
  3213                           
  3214                           ;lcd_msd.c: 236:     LCD_Int((int) Bruch, decimal_pos, 0);
  3215     0EA6  0864               	movf	LCD_Float@Bruch+3,w
  3216     0EA7  00F3               	movwf	___fltol@f1+3
  3217     0EA8  0863               	movf	LCD_Float@Bruch+2,w
  3218     0EA9  00F2               	movwf	___fltol@f1+2
  3219     0EAA  0862               	movf	LCD_Float@Bruch+1,w
  3220     0EAB  00F1               	movwf	___fltol@f1+1
  3221     0EAC  0861               	movf	LCD_Float@Bruch,w
  3222     0EAD  00F0               	movwf	___fltol@f1
  3223     0EAE  120A  158A  220C  120A  158A  	fcall	___fltol
  3224     0EB3  0870               	movf	?___fltol,w
  3225     0EB4  1283               	bcf	3,5	;RP0=0, select bank0
  3226     0EB5  1303               	bcf	3,6	;RP1=0, select bank0
  3227     0EB6  00BC               	movwf	LCD_Int@value
  3228     0EB7  0871               	movf	?___fltol+1,w
  3229     0EB8  00BD               	movwf	LCD_Int@value+1
  3230     0EB9  3000               	movlw	0
  3231     0EBA  1BBD               	btfsc	LCD_Int@value+1,7
  3232     0EBB  30FF               	movlw	255
  3233     0EBC  00BE               	movwf	LCD_Int@value+2
  3234     0EBD  00BF               	movwf	LCD_Int@value+3
  3235     0EBE  085B               	movf	LCD_Float@decimal_pos,w
  3236     0EBF  00C0               	movwf	LCD_Int@positions
  3237     0EC0  01C1               	clrf	LCD_Int@zeros
  3238     0EC1  120A  158A  23AB  120A  158A  	fcall	_LCD_Int
  3239     0EC6                     l166:
  3240     0EC6  0008               	return
  3241     0EC7                     __end_of_LCD_Float:
  3242                           
  3243                           	psect	text10
  3244     0C5C                     __ptext10:	
  3245 ;; *************** function ___xxtofl *****************
  3246 ;; Defined at:
  3247 ;;		line 10 in file "C:\Program Files\Microchip\xc8\v2.46\pic\sources\c99\common\xxtofl.c"
  3248 ;; Parameters:    Size  Location     Type
  3249 ;;  sign            1    wreg     unsigned char 
  3250 ;;  val             4    0[COMMON] long 
  3251 ;; Auto vars:     Size  Location     Type
  3252 ;;  sign            1    8[COMMON] unsigned char 
  3253 ;;  arg             4   10[COMMON] unsigned long 
  3254 ;;  exp             1    9[COMMON] unsigned char 
  3255 ;; Return value:  Size  Location     Type
  3256 ;;                  4    0[COMMON] unsigned char 
  3257 ;; Registers used:
  3258 ;;		wreg, status,2, status,0, btemp+1
  3259 ;; Tracked objects:
  3260 ;;		On entry : 0/0
  3261 ;;		On exit  : 0/0
  3262 ;;		Unchanged: 0/0
  3263 ;; Data sizes:     COMMON   BANK0   BANK1   BANK3   BANK2
  3264 ;;      Params:         4       0       0       0       0
  3265 ;;      Locals:         6       0       0       0       0
  3266 ;;      Temps:          4       0       0       0       0
  3267 ;;      Totals:        14       0       0       0       0
  3268 ;;Total ram usage:       14 bytes
  3269 ;; Hardware stack levels used: 1
  3270 ;; This function calls:
  3271 ;;		Nothing
  3272 ;; This function is called by:
  3273 ;;		_LCD_Float
  3274 ;;		_dht11_read
  3275 ;; This function uses a non-reentrant model
  3276 ;;
  3277                           
  3278     0C5C                     ___xxtofl:	
  3279                           ;psect for function ___xxtofl
  3280                           
  3281                           
  3282                           ;incstack = 0
  3283                           ; Regs used in ___xxtofl: [wreg+status,2+status,0+btemp+1]
  3284                           ;___xxtofl@sign stored from wreg
  3285     0C5C  00F8               	movwf	___xxtofl@sign
  3286     0C5D                     l2524:
  3287     0C5D  0878               	movf	___xxtofl@sign,w
  3288     0C5E  1903               	btfsc	3,2
  3289     0C5F  2C61               	goto	u3531
  3290     0C60  2C62               	goto	u3530
  3291     0C61                     u3531:
  3292     0C61  2C76               	goto	l2530
  3293     0C62                     u3530:
  3294     0C62                     l2526:
  3295     0C62  1FF3               	btfss	___xxtofl@val+3,7
  3296     0C63  2C65               	goto	u3541
  3297     0C64  2C66               	goto	u3540
  3298     0C65                     u3541:
  3299     0C65  2C76               	goto	l2530
  3300     0C66                     u3540:
  3301     0C66                     l2528:
  3302     0C66  0970               	comf	___xxtofl@val,w
  3303     0C67  00FA               	movwf	___xxtofl@arg
  3304     0C68  0971               	comf	___xxtofl@val+1,w
  3305     0C69  00FB               	movwf	___xxtofl@arg+1
  3306     0C6A  0972               	comf	___xxtofl@val+2,w
  3307     0C6B  00FC               	movwf	___xxtofl@arg+2
  3308     0C6C  0973               	comf	___xxtofl@val+3,w
  3309     0C6D  00FD               	movwf	___xxtofl@arg+3
  3310     0C6E  0AFA               	incf	___xxtofl@arg,f
  3311     0C6F  1903               	skipnz
  3312     0C70  0AFB               	incf	___xxtofl@arg+1,f
  3313     0C71  1903               	skipnz
  3314     0C72  0AFC               	incf	___xxtofl@arg+2,f
  3315     0C73  1903               	skipnz
  3316     0C74  0AFD               	incf	___xxtofl@arg+3,f
  3317     0C75  2C7E               	goto	l741
  3318     0C76                     l2530:
  3319     0C76  0873               	movf	___xxtofl@val+3,w
  3320     0C77  00FD               	movwf	___xxtofl@arg+3
  3321     0C78  0872               	movf	___xxtofl@val+2,w
  3322     0C79  00FC               	movwf	___xxtofl@arg+2
  3323     0C7A  0871               	movf	___xxtofl@val+1,w
  3324     0C7B  00FB               	movwf	___xxtofl@arg+1
  3325     0C7C  0870               	movf	___xxtofl@val,w
  3326     0C7D  00FA               	movwf	___xxtofl@arg
  3327     0C7E                     l741:
  3328     0C7E  0873               	movf	___xxtofl@val+3,w
  3329     0C7F  0472               	iorwf	___xxtofl@val+2,w
  3330     0C80  0471               	iorwf	___xxtofl@val+1,w
  3331     0C81  0470               	iorwf	___xxtofl@val,w
  3332     0C82  1D03               	skipz
  3333     0C83  2C85               	goto	u3551
  3334     0C84  2C86               	goto	u3550
  3335     0C85                     u3551:
  3336     0C85  2C8F               	goto	l2536
  3337     0C86                     u3550:
  3338     0C86                     l2532:
  3339     0C86  3000               	movlw	0
  3340     0C87  00F3               	movwf	?___xxtofl+3
  3341     0C88  3000               	movlw	0
  3342     0C89  00F2               	movwf	?___xxtofl+2
  3343     0C8A  3000               	movlw	0
  3344     0C8B  00F1               	movwf	?___xxtofl+1
  3345     0C8C  3000               	movlw	0
  3346     0C8D  00F0               	movwf	?___xxtofl
  3347     0C8E  2D13               	goto	l743
  3348     0C8F                     l2536:
  3349     0C8F  3096               	movlw	150
  3350     0C90  00F9               	movwf	___xxtofl@exp
  3351     0C91  2C9F               	goto	l2542
  3352     0C92                     l2538:
  3353     0C92  3001               	movlw	1
  3354     0C93  00FF               	movwf	btemp+1
  3355     0C94  087F               	movf	btemp+1,w
  3356     0C95  07F9               	addwf	___xxtofl@exp,f
  3357     0C96                     l2540:
  3358     0C96  3001               	movlw	1
  3359     0C97                     u3565:
  3360     0C97  1003               	clrc
  3361     0C98  0CFD               	rrf	___xxtofl@arg+3,f
  3362     0C99  0CFC               	rrf	___xxtofl@arg+2,f
  3363     0C9A  0CFB               	rrf	___xxtofl@arg+1,f
  3364     0C9B  0CFA               	rrf	___xxtofl@arg,f
  3365     0C9C  3EFF               	addlw	-1
  3366     0C9D  1D03               	skipz
  3367     0C9E  2C97               	goto	u3565
  3368     0C9F                     l2542:
  3369     0C9F  30FE               	movlw	254
  3370     0CA0  057D               	andwf	___xxtofl@arg+3,w
  3371     0CA1  1D03               	btfss	3,2
  3372     0CA2  2CA4               	goto	u3571
  3373     0CA3  2CA5               	goto	u3570
  3374     0CA4                     u3571:
  3375     0CA4  2C92               	goto	l2538
  3376     0CA5                     u3570:
  3377     0CA5  2CC1               	goto	l2550
  3378     0CA6                     l2544:
  3379     0CA6  3001               	movlw	1
  3380     0CA7  00FF               	movwf	btemp+1
  3381     0CA8  087F               	movf	btemp+1,w
  3382     0CA9  07F9               	addwf	___xxtofl@exp,f
  3383     0CAA                     l2546:
  3384     0CAA  3001               	movlw	1
  3385     0CAB  07FA               	addwf	___xxtofl@arg,f
  3386     0CAC  3000               	movlw	0
  3387     0CAD  1803               	skipnc
  3388     0CAE  3001               	movlw	1
  3389     0CAF  07FB               	addwf	___xxtofl@arg+1,f
  3390     0CB0  3000               	movlw	0
  3391     0CB1  1803               	skipnc
  3392     0CB2  3001               	movlw	1
  3393     0CB3  07FC               	addwf	___xxtofl@arg+2,f
  3394     0CB4  3000               	movlw	0
  3395     0CB5  1803               	skipnc
  3396     0CB6  3001               	movlw	1
  3397     0CB7  07FD               	addwf	___xxtofl@arg+3,f
  3398     0CB8                     l2548:
  3399     0CB8  3001               	movlw	1
  3400     0CB9                     u3585:
  3401     0CB9  1003               	clrc
  3402     0CBA  0CFD               	rrf	___xxtofl@arg+3,f
  3403     0CBB  0CFC               	rrf	___xxtofl@arg+2,f
  3404     0CBC  0CFB               	rrf	___xxtofl@arg+1,f
  3405     0CBD  0CFA               	rrf	___xxtofl@arg,f
  3406     0CBE  3EFF               	addlw	-1
  3407     0CBF  1D03               	skipz
  3408     0CC0  2CB9               	goto	u3585
  3409     0CC1                     l2550:
  3410     0CC1  30FF               	movlw	255
  3411     0CC2  057D               	andwf	___xxtofl@arg+3,w
  3412     0CC3  1D03               	btfss	3,2
  3413     0CC4  2CC6               	goto	u3591
  3414     0CC5  2CC7               	goto	u3590
  3415     0CC6                     u3591:
  3416     0CC6  2CA6               	goto	l2544
  3417     0CC7                     u3590:
  3418     0CC7  2CD3               	goto	l2554
  3419     0CC8                     l2552:
  3420     0CC8  3001               	movlw	1
  3421     0CC9  02F9               	subwf	___xxtofl@exp,f
  3422     0CCA  3001               	movlw	1
  3423     0CCB  00F4               	movwf	??___xxtofl
  3424     0CCC                     u3605:
  3425     0CCC  1003               	clrc
  3426     0CCD  0DFA               	rlf	___xxtofl@arg,f
  3427     0CCE  0DFB               	rlf	___xxtofl@arg+1,f
  3428     0CCF  0DFC               	rlf	___xxtofl@arg+2,f
  3429     0CD0  0DFD               	rlf	___xxtofl@arg+3,f
  3430     0CD1  0BF4               	decfsz	??___xxtofl,f
  3431     0CD2  2CCC               	goto	u3605
  3432     0CD3                     l2554:
  3433     0CD3  1BFC               	btfsc	___xxtofl@arg+2,7
  3434     0CD4  2CD6               	goto	u3611
  3435     0CD5  2CD7               	goto	u3610
  3436     0CD6                     u3611:
  3437     0CD6  2CDD               	goto	l754
  3438     0CD7                     u3610:
  3439     0CD7                     l2556:
  3440     0CD7  3002               	movlw	2
  3441     0CD8  0279               	subwf	___xxtofl@exp,w
  3442     0CD9  1803               	skipnc
  3443     0CDA  2CDC               	goto	u3621
  3444     0CDB  2CDD               	goto	u3620
  3445     0CDC                     u3621:
  3446     0CDC  2CC8               	goto	l2552
  3447     0CDD                     u3620:
  3448     0CDD                     l754:
  3449     0CDD  1879               	btfsc	___xxtofl@exp,0
  3450     0CDE  2CE0               	goto	u3631
  3451     0CDF  2CE1               	goto	u3630
  3452     0CE0                     u3631:
  3453     0CE0  2CE9               	goto	l755
  3454     0CE1                     u3630:
  3455     0CE1                     l2558:
  3456     0CE1  30FF               	movlw	255
  3457     0CE2  05FA               	andwf	___xxtofl@arg,f
  3458     0CE3  30FF               	movlw	255
  3459     0CE4  05FB               	andwf	___xxtofl@arg+1,f
  3460     0CE5  307F               	movlw	127
  3461     0CE6  05FC               	andwf	___xxtofl@arg+2,f
  3462     0CE7  30FF               	movlw	255
  3463     0CE8  05FD               	andwf	___xxtofl@arg+3,f
  3464     0CE9                     l755:
  3465     0CE9  1003               	clrc
  3466     0CEA  0CF9               	rrf	___xxtofl@exp,f
  3467     0CEB                     l2560:
  3468     0CEB  0879               	movf	___xxtofl@exp,w
  3469     0CEC  00F4               	movwf	??___xxtofl
  3470     0CED  01F5               	clrf	??___xxtofl+1
  3471     0CEE  01F6               	clrf	??___xxtofl+2
  3472     0CEF  01F7               	clrf	??___xxtofl+3
  3473     0CF0  3018               	movlw	24
  3474     0CF1                     u3645:
  3475     0CF1  1003               	clrc
  3476     0CF2  0DF4               	rlf	??___xxtofl,f
  3477     0CF3  0DF5               	rlf	??___xxtofl+1,f
  3478     0CF4  0DF6               	rlf	??___xxtofl+2,f
  3479     0CF5  0DF7               	rlf	??___xxtofl+3,f
  3480     0CF6                     u3640:
  3481     0CF6  3EFF               	addlw	-1
  3482     0CF7  1D03               	skipz
  3483     0CF8  2CF1               	goto	u3645
  3484     0CF9  0874               	movf	??___xxtofl,w
  3485     0CFA  04FA               	iorwf	___xxtofl@arg,f
  3486     0CFB  0875               	movf	??___xxtofl+1,w
  3487     0CFC  04FB               	iorwf	___xxtofl@arg+1,f
  3488     0CFD  0876               	movf	??___xxtofl+2,w
  3489     0CFE  04FC               	iorwf	___xxtofl@arg+2,f
  3490     0CFF  0877               	movf	??___xxtofl+3,w
  3491     0D00  04FD               	iorwf	___xxtofl@arg+3,f
  3492     0D01                     l2562:
  3493     0D01  0878               	movf	___xxtofl@sign,w
  3494     0D02  1903               	btfsc	3,2
  3495     0D03  2D05               	goto	u3651
  3496     0D04  2D06               	goto	u3650
  3497     0D05                     u3651:
  3498     0D05  2D0B               	goto	l2568
  3499     0D06                     u3650:
  3500     0D06                     l2564:
  3501     0D06  1FF3               	btfss	___xxtofl@val+3,7
  3502     0D07  2D09               	goto	u3661
  3503     0D08  2D0A               	goto	u3660
  3504     0D09                     u3661:
  3505     0D09  2D0B               	goto	l2568
  3506     0D0A                     u3660:
  3507     0D0A                     l2566:
  3508     0D0A  17FD               	bsf	___xxtofl@arg+3,7
  3509     0D0B                     l2568:
  3510     0D0B  087D               	movf	___xxtofl@arg+3,w
  3511     0D0C  00F3               	movwf	?___xxtofl+3
  3512     0D0D  087C               	movf	___xxtofl@arg+2,w
  3513     0D0E  00F2               	movwf	?___xxtofl+2
  3514     0D0F  087B               	movf	___xxtofl@arg+1,w
  3515     0D10  00F1               	movwf	?___xxtofl+1
  3516     0D11  087A               	movf	___xxtofl@arg,w
  3517     0D12  00F0               	movwf	?___xxtofl
  3518     0D13                     l743:
  3519     0D13  0008               	return
  3520     0D14                     __end_of___xxtofl:
  3521                           
  3522                           	psect	text11
  3523     0A0C                     __ptext11:	
  3524 ;; *************** function ___fltol *****************
  3525 ;; Defined at:
  3526 ;;		line 43 in file "C:\Program Files\Microchip\xc8\v2.46\pic\sources\c99\common\fltol.c"
  3527 ;; Parameters:    Size  Location     Type
  3528 ;;  f1              4    0[COMMON] unsigned char 
  3529 ;; Auto vars:     Size  Location     Type
  3530 ;;  exp1            1    9[COMMON] unsigned char 
  3531 ;;  sign1           1    8[COMMON] unsigned char 
  3532 ;; Return value:  Size  Location     Type
  3533 ;;                  4    0[COMMON] long 
  3534 ;; Registers used:
  3535 ;;		wreg, status,2, status,0, btemp+1
  3536 ;; Tracked objects:
  3537 ;;		On entry : 0/0
  3538 ;;		On exit  : 0/0
  3539 ;;		Unchanged: 0/0
  3540 ;; Data sizes:     COMMON   BANK0   BANK1   BANK3   BANK2
  3541 ;;      Params:         4       0       0       0       0
  3542 ;;      Locals:         2       0       0       0       0
  3543 ;;      Temps:          4       0       0       0       0
  3544 ;;      Totals:        10       0       0       0       0
  3545 ;;Total ram usage:       10 bytes
  3546 ;; Hardware stack levels used: 1
  3547 ;; This function calls:
  3548 ;;		Nothing
  3549 ;; This function is called by:
  3550 ;;		_LCD_Float
  3551 ;; This function uses a non-reentrant model
  3552 ;;
  3553                           
  3554     0A0C                     ___fltol:	
  3555                           ;psect for function ___fltol
  3556                           
  3557     0A0C                     l2192:	
  3558                           ;incstack = 0
  3559                           ; Regs used in ___fltol: [wreg+status,2+status,0+btemp+1]
  3560                           
  3561     0A0C  1003               	clrc
  3562     0A0D  0D72               	rlf	___fltol@f1+2,w
  3563     0A0E  0D73               	rlf	___fltol@f1+3,w
  3564     0A0F  00F9               	movwf	___fltol@exp1
  3565     0A10  0879               	movf	___fltol@exp1,w
  3566     0A11  1D03               	btfss	3,2
  3567     0A12  2A14               	goto	u2771
  3568     0A13  2A15               	goto	u2770
  3569     0A14                     u2771:
  3570     0A14  2A1E               	goto	l2198
  3571     0A15                     u2770:
  3572     0A15                     l2194:
  3573     0A15  3000               	movlw	0
  3574     0A16  00F3               	movwf	?___fltol+3
  3575     0A17  3000               	movlw	0
  3576     0A18  00F2               	movwf	?___fltol+2
  3577     0A19  3000               	movlw	0
  3578     0A1A  00F1               	movwf	?___fltol+1
  3579     0A1B  3000               	movlw	0
  3580     0A1C  00F0               	movwf	?___fltol
  3581     0A1D  2A81               	goto	l494
  3582     0A1E                     l2198:
  3583     0A1E  0870               	movf	___fltol@f1,w
  3584     0A1F  00F4               	movwf	??___fltol
  3585     0A20  0871               	movf	___fltol@f1+1,w
  3586     0A21  00F5               	movwf	??___fltol+1
  3587     0A22  0872               	movf	___fltol@f1+2,w
  3588     0A23  00F6               	movwf	??___fltol+2
  3589     0A24  0873               	movf	___fltol@f1+3,w
  3590     0A25  00F7               	movwf	??___fltol+3
  3591     0A26  301F               	movlw	31
  3592     0A27                     u2785:
  3593     0A27  1003               	clrc
  3594     0A28  0CF7               	rrf	??___fltol+3,f
  3595     0A29  0CF6               	rrf	??___fltol+2,f
  3596     0A2A  0CF5               	rrf	??___fltol+1,f
  3597     0A2B  0CF4               	rrf	??___fltol,f
  3598     0A2C                     u2780:
  3599     0A2C  3EFF               	addlw	-1
  3600     0A2D  1D03               	skipz
  3601     0A2E  2A27               	goto	u2785
  3602     0A2F  0874               	movf	??___fltol,w
  3603     0A30  00F8               	movwf	___fltol@sign1
  3604     0A31                     l2200:
  3605     0A31  17F2               	bsf	___fltol@f1+2,7
  3606     0A32                     l2202:
  3607     0A32  30FF               	movlw	255
  3608     0A33  05F0               	andwf	___fltol@f1,f
  3609     0A34  30FF               	movlw	255
  3610     0A35  05F1               	andwf	___fltol@f1+1,f
  3611     0A36  30FF               	movlw	255
  3612     0A37  05F2               	andwf	___fltol@f1+2,f
  3613     0A38  3000               	movlw	0
  3614     0A39  05F3               	andwf	___fltol@f1+3,f
  3615     0A3A                     l2204:
  3616     0A3A  3096               	movlw	150
  3617     0A3B  02F9               	subwf	___fltol@exp1,f
  3618     0A3C                     l2206:
  3619     0A3C  1FF9               	btfss	___fltol@exp1,7
  3620     0A3D  2A3F               	goto	u2791
  3621     0A3E  2A40               	goto	u2790
  3622     0A3F                     u2791:
  3623     0A3F  2A5A               	goto	l2218
  3624     0A40                     u2790:
  3625     0A40                     l2208:
  3626     0A40  0879               	movf	___fltol@exp1,w
  3627     0A41  3A80               	xorlw	128
  3628     0A42  3E97               	addlw	151
  3629     0A43  1803               	skipnc
  3630     0A44  2A46               	goto	u2801
  3631     0A45  2A47               	goto	u2800
  3632     0A46                     u2801:
  3633     0A46  2A48               	goto	l2214
  3634     0A47                     u2800:
  3635     0A47  2A15               	goto	l2194
  3636     0A48                     l2214:
  3637     0A48  3001               	movlw	1
  3638     0A49                     u2815:
  3639     0A49  1003               	clrc
  3640     0A4A  0CF3               	rrf	___fltol@f1+3,f
  3641     0A4B  0CF2               	rrf	___fltol@f1+2,f
  3642     0A4C  0CF1               	rrf	___fltol@f1+1,f
  3643     0A4D  0CF0               	rrf	___fltol@f1,f
  3644     0A4E  3EFF               	addlw	-1
  3645     0A4F  1D03               	skipz
  3646     0A50  2A49               	goto	u2815
  3647     0A51                     l2216:
  3648     0A51  3001               	movlw	1
  3649     0A52  00FF               	movwf	btemp+1
  3650     0A53  087F               	movf	btemp+1,w
  3651     0A54  07F9               	addwf	___fltol@exp1,f
  3652     0A55  1D03               	btfss	3,2
  3653     0A56  2A58               	goto	u2821
  3654     0A57  2A59               	goto	u2820
  3655     0A58                     u2821:
  3656     0A58  2A48               	goto	l2214
  3657     0A59                     u2820:
  3658     0A59  2A71               	goto	l2226
  3659     0A5A                     l2218:
  3660     0A5A  3020               	movlw	32
  3661     0A5B  0279               	subwf	___fltol@exp1,w
  3662     0A5C  1C03               	skipc
  3663     0A5D  2A5F               	goto	u2831
  3664     0A5E  2A60               	goto	u2830
  3665     0A5F                     u2831:
  3666     0A5F  2A6C               	goto	l501
  3667     0A60                     u2830:
  3668     0A60  2A15               	goto	l2194
  3669     0A61                     l2224:
  3670     0A61  3001               	movlw	1
  3671     0A62  00F4               	movwf	??___fltol
  3672     0A63                     u2845:
  3673     0A63  1003               	clrc
  3674     0A64  0DF0               	rlf	___fltol@f1,f
  3675     0A65  0DF1               	rlf	___fltol@f1+1,f
  3676     0A66  0DF2               	rlf	___fltol@f1+2,f
  3677     0A67  0DF3               	rlf	___fltol@f1+3,f
  3678     0A68  0BF4               	decfsz	??___fltol,f
  3679     0A69  2A63               	goto	u2845
  3680     0A6A  3001               	movlw	1
  3681     0A6B  02F9               	subwf	___fltol@exp1,f
  3682     0A6C                     l501:
  3683     0A6C  0879               	movf	___fltol@exp1,w
  3684     0A6D  1D03               	btfss	3,2
  3685     0A6E  2A70               	goto	u2851
  3686     0A6F  2A71               	goto	u2850
  3687     0A70                     u2851:
  3688     0A70  2A61               	goto	l2224
  3689     0A71                     u2850:
  3690     0A71                     l2226:
  3691     0A71  0878               	movf	___fltol@sign1,w
  3692     0A72  1903               	btfsc	3,2
  3693     0A73  2A75               	goto	u2861
  3694     0A74  2A76               	goto	u2860
  3695     0A75                     u2861:
  3696     0A75  2A81               	goto	l504
  3697     0A76                     u2860:
  3698     0A76                     l2228:
  3699     0A76  09F0               	comf	___fltol@f1,f
  3700     0A77  09F1               	comf	___fltol@f1+1,f
  3701     0A78  09F2               	comf	___fltol@f1+2,f
  3702     0A79  09F3               	comf	___fltol@f1+3,f
  3703     0A7A  0AF0               	incf	___fltol@f1,f
  3704     0A7B  1903               	skipnz
  3705     0A7C  0AF1               	incf	___fltol@f1+1,f
  3706     0A7D  1903               	skipnz
  3707     0A7E  0AF2               	incf	___fltol@f1+2,f
  3708     0A7F  1903               	skipnz
  3709     0A80  0AF3               	incf	___fltol@f1+3,f
  3710     0A81                     l504:
  3711     0A81                     l494:
  3712     0A81  0008               	return
  3713     0A82                     __end_of___fltol:
  3714                           
  3715                           	psect	text12
  3716     084F                     __ptext12:	
  3717 ;; *************** function ___flsub *****************
  3718 ;; Defined at:
  3719 ;;		line 242 in file "C:\Program Files\Microchip\xc8\v2.46\pic\sources\c99\common\sprcadd.c"
  3720 ;; Parameters:    Size  Location     Type
  3721 ;;  a               4   46[BANK0 ] long 
  3722 ;;  b               4   50[BANK0 ] long 
  3723 ;; Auto vars:     Size  Location     Type
  3724 ;;		None
  3725 ;; Return value:  Size  Location     Type
  3726 ;;                  4   46[BANK0 ] long 
  3727 ;; Registers used:
  3728 ;;		wreg, status,2, status,0, btemp+1, pclath, cstack
  3729 ;; Tracked objects:
  3730 ;;		On entry : 0/0
  3731 ;;		On exit  : 0/0
  3732 ;;		Unchanged: 0/0
  3733 ;; Data sizes:     COMMON   BANK0   BANK1   BANK3   BANK2
  3734 ;;      Params:         0       8       0       0       0
  3735 ;;      Locals:         0       0       0       0       0
  3736 ;;      Temps:          0       0       0       0       0
  3737 ;;      Totals:         0       8       0       0       0
  3738 ;;Total ram usage:        8 bytes
  3739 ;; Hardware stack levels used: 1
  3740 ;; Hardware stack levels required when called: 1
  3741 ;; This function calls:
  3742 ;;		___fladd
  3743 ;; This function is called by:
  3744 ;;		_LCD_Float
  3745 ;; This function uses a non-reentrant model
  3746 ;;
  3747                           
  3748     084F                     ___flsub:	
  3749                           ;psect for function ___flsub
  3750                           
  3751     084F                     l2230:	
  3752                           ;incstack = 0
  3753                           ; Regs used in ___flsub: [wreg+status,2+status,0+btemp+1+pclath+cstack]
  3754                           
  3755     084F  3080               	movlw	128
  3756     0850  1283               	bcf	3,5	;RP0=0, select bank0
  3757     0851  1303               	bcf	3,6	;RP1=0, select bank0
  3758     0852  06D1               	xorwf	___flsub@a+3,f
  3759     0853                     l2232:
  3760     0853  0855               	movf	___flsub@b+3,w
  3761     0854  00BD               	movwf	___fladd@b+3
  3762     0855  0854               	movf	___flsub@b+2,w
  3763     0856  00BC               	movwf	___fladd@b+2
  3764     0857  0853               	movf	___flsub@b+1,w
  3765     0858  00BB               	movwf	___fladd@b+1
  3766     0859  0852               	movf	___flsub@b,w
  3767     085A  00BA               	movwf	___fladd@b
  3768     085B  0851               	movf	___flsub@a+3,w
  3769     085C  00C1               	movwf	___fladd@a+3
  3770     085D  0850               	movf	___flsub@a+2,w
  3771     085E  00C0               	movwf	___fladd@a+2
  3772     085F  084F               	movf	___flsub@a+1,w
  3773     0860  00BF               	movwf	___fladd@a+1
  3774     0861  084E               	movf	___flsub@a,w
  3775     0862  00BE               	movwf	___fladd@a
  3776     0863  120A  118A  223D  120A  158A  	fcall	___fladd
  3777     0868  1283               	bcf	3,5	;RP0=0, select bank0
  3778     0869  1303               	bcf	3,6	;RP1=0, select bank0
  3779     086A  083D               	movf	?___fladd+3,w
  3780     086B  00D1               	movwf	?___flsub+3
  3781     086C  083C               	movf	?___fladd+2,w
  3782     086D  00D0               	movwf	?___flsub+2
  3783     086E  083B               	movf	?___fladd+1,w
  3784     086F  00CF               	movwf	?___flsub+1
  3785     0870  083A               	movf	?___fladd,w
  3786     0871  00CE               	movwf	?___flsub
  3787     0872                     l647:
  3788     0872  0008               	return
  3789     0873                     __end_of___flsub:
  3790                           
  3791                           	psect	text13
  3792     023D                     __ptext13:	
  3793 ;; *************** function ___fladd *****************
  3794 ;; Defined at:
  3795 ;;		line 10 in file "C:\Program Files\Microchip\xc8\v2.46\pic\sources\c99\common\sprcadd.c"
  3796 ;; Parameters:    Size  Location     Type
  3797 ;;  b               4   26[BANK0 ] long 
  3798 ;;  a               4   30[BANK0 ] long 
  3799 ;; Auto vars:     Size  Location     Type
  3800 ;;  grs             1   45[BANK0 ] unsigned char 
  3801 ;;  bexp            1   44[BANK0 ] unsigned char 
  3802 ;;  aexp            1   43[BANK0 ] unsigned char 
  3803 ;;  signs           1   42[BANK0 ] unsigned char 
  3804 ;; Return value:  Size  Location     Type
  3805 ;;                  4   26[BANK0 ] unsigned char 
  3806 ;; Registers used:
  3807 ;;		wreg, status,2, status,0, btemp+1
  3808 ;; Tracked objects:
  3809 ;;		On entry : 0/0
  3810 ;;		On exit  : 0/0
  3811 ;;		Unchanged: 0/0
  3812 ;; Data sizes:     COMMON   BANK0   BANK1   BANK3   BANK2
  3813 ;;      Params:         0       8       0       0       0
  3814 ;;      Locals:         0       4       0       0       0
  3815 ;;      Temps:          0       8       0       0       0
  3816 ;;      Totals:         0      20       0       0       0
  3817 ;;Total ram usage:       20 bytes
  3818 ;; Hardware stack levels used: 1
  3819 ;; This function calls:
  3820 ;;		Nothing
  3821 ;; This function is called by:
  3822 ;;		_dht11_read
  3823 ;;		___flsub
  3824 ;; This function uses a non-reentrant model
  3825 ;;
  3826                           
  3827     023D                     ___fladd:	
  3828                           ;psect for function ___fladd
  3829                           
  3830     023D                     l1884:	
  3831                           ;incstack = 0
  3832                           ; Regs used in ___fladd: [wreg+status,2+status,0+btemp+1]
  3833                           
  3834     023D  1283               	bcf	3,5	;RP0=0, select bank0
  3835     023E  1303               	bcf	3,6	;RP1=0, select bank0
  3836     023F  083D               	movf	___fladd@b+3,w
  3837     0240  3980               	andlw	128
  3838     0241  00CA               	movwf	___fladd@signs
  3839     0242                     l1886:
  3840     0242  083D               	movf	___fladd@b+3,w
  3841     0243  00C2               	movwf	??___fladd
  3842     0244  0742               	addwf	??___fladd,w
  3843     0245  00CC               	movwf	___fladd@bexp
  3844     0246                     l1888:
  3845     0246  1FBC               	btfss	___fladd@b+2,7
  3846     0247  2A49               	goto	u2101
  3847     0248  2A4A               	goto	u2100
  3848     0249                     u2101:
  3849     0249  2A4B               	goto	l1892
  3850     024A                     u2100:
  3851     024A                     l1890:
  3852     024A  144C               	bsf	___fladd@bexp,0
  3853     024B                     l1892:
  3854     024B  084C               	movf	___fladd@bexp,w
  3855     024C  1903               	btfsc	3,2
  3856     024D  2A4F               	goto	u2111
  3857     024E  2A50               	goto	u2110
  3858     024F                     u2111:
  3859     024F  2A60               	goto	l1902
  3860     0250                     u2110:
  3861     0250                     l1894:
  3862     0250  0A4C               	incf	___fladd@bexp,w
  3863     0251  1D03               	btfss	3,2
  3864     0252  2A54               	goto	u2121
  3865     0253  2A55               	goto	u2120
  3866     0254                     u2121:
  3867     0254  2A5D               	goto	l1898
  3868     0255                     u2120:
  3869     0255                     l1896:
  3870     0255  3000               	movlw	0
  3871     0256  00BD               	movwf	___fladd@b+3
  3872     0257  3000               	movlw	0
  3873     0258  00BC               	movwf	___fladd@b+2
  3874     0259  3000               	movlw	0
  3875     025A  00BB               	movwf	___fladd@b+1
  3876     025B  3000               	movlw	0
  3877     025C  00BA               	movwf	___fladd@b
  3878     025D                     l1898:
  3879     025D  17BC               	bsf	___fladd@b+2,7
  3880     025E                     l1900:
  3881     025E  01BD               	clrf	___fladd@b+3
  3882     025F  2A68               	goto	l1904
  3883     0260                     l1902:
  3884     0260  3000               	movlw	0
  3885     0261  00BD               	movwf	___fladd@b+3
  3886     0262  3000               	movlw	0
  3887     0263  00BC               	movwf	___fladd@b+2
  3888     0264  3000               	movlw	0
  3889     0265  00BB               	movwf	___fladd@b+1
  3890     0266  3000               	movlw	0
  3891     0267  00BA               	movwf	___fladd@b
  3892     0268                     l1904:
  3893     0268  0841               	movf	___fladd@a+3,w
  3894     0269  3980               	andlw	128
  3895     026A  00CB               	movwf	___fladd@aexp
  3896     026B                     l1906:
  3897     026B  084B               	movf	___fladd@aexp,w
  3898     026C  064A               	xorwf	___fladd@signs,w
  3899     026D  1903               	skipnz
  3900     026E  2A70               	goto	u2131
  3901     026F  2A71               	goto	u2130
  3902     0270                     u2131:
  3903     0270  2A72               	goto	l1910
  3904     0271                     u2130:
  3905     0271                     l1908:
  3906     0271  174A               	bsf	___fladd@signs,6
  3907     0272                     l1910:
  3908     0272  0841               	movf	___fladd@a+3,w
  3909     0273  00C2               	movwf	??___fladd
  3910     0274  0742               	addwf	??___fladd,w
  3911     0275  00CB               	movwf	___fladd@aexp
  3912     0276                     l1912:
  3913     0276  1FC0               	btfss	___fladd@a+2,7
  3914     0277  2A79               	goto	u2141
  3915     0278  2A7A               	goto	u2140
  3916     0279                     u2141:
  3917     0279  2A7B               	goto	l1916
  3918     027A                     u2140:
  3919     027A                     l1914:
  3920     027A  144B               	bsf	___fladd@aexp,0
  3921     027B                     l1916:
  3922     027B  084B               	movf	___fladd@aexp,w
  3923     027C  1903               	btfsc	3,2
  3924     027D  2A7F               	goto	u2151
  3925     027E  2A80               	goto	u2150
  3926     027F                     u2151:
  3927     027F  2A90               	goto	l1926
  3928     0280                     u2150:
  3929     0280                     l1918:
  3930     0280  0A4B               	incf	___fladd@aexp,w
  3931     0281  1D03               	btfss	3,2
  3932     0282  2A84               	goto	u2161
  3933     0283  2A85               	goto	u2160
  3934     0284                     u2161:
  3935     0284  2A8D               	goto	l1922
  3936     0285                     u2160:
  3937     0285                     l1920:
  3938     0285  3000               	movlw	0
  3939     0286  00C1               	movwf	___fladd@a+3
  3940     0287  3000               	movlw	0
  3941     0288  00C0               	movwf	___fladd@a+2
  3942     0289  3000               	movlw	0
  3943     028A  00BF               	movwf	___fladd@a+1
  3944     028B  3000               	movlw	0
  3945     028C  00BE               	movwf	___fladd@a
  3946     028D                     l1922:
  3947     028D  17C0               	bsf	___fladd@a+2,7
  3948     028E                     l1924:
  3949     028E  01C1               	clrf	___fladd@a+3
  3950     028F  2A98               	goto	l601
  3951     0290                     l1926:
  3952     0290  3000               	movlw	0
  3953     0291  00C1               	movwf	___fladd@a+3
  3954     0292  3000               	movlw	0
  3955     0293  00C0               	movwf	___fladd@a+2
  3956     0294  3000               	movlw	0
  3957     0295  00BF               	movwf	___fladd@a+1
  3958     0296  3000               	movlw	0
  3959     0297  00BE               	movwf	___fladd@a
  3960     0298                     l601:
  3961     0298  084C               	movf	___fladd@bexp,w
  3962     0299  024B               	subwf	___fladd@aexp,w
  3963     029A  1803               	skipnc
  3964     029B  2A9D               	goto	u2171
  3965     029C  2A9E               	goto	u2170
  3966     029D                     u2171:
  3967     029D  2AC4               	goto	l1962
  3968     029E                     u2170:
  3969     029E                     l1928:
  3970     029E  1F4A               	btfss	___fladd@signs,6
  3971     029F  2AA1               	goto	u2181
  3972     02A0  2AA2               	goto	u2180
  3973     02A1                     u2181:
  3974     02A1  2AA6               	goto	l1932
  3975     02A2                     u2180:
  3976     02A2                     l1930:
  3977     02A2  3080               	movlw	128
  3978     02A3  00FF               	movwf	btemp+1
  3979     02A4  087F               	movf	btemp+1,w
  3980     02A5  06CA               	xorwf	___fladd@signs,f
  3981     02A6                     l1932:
  3982     02A6  084C               	movf	___fladd@bexp,w
  3983     02A7  00CD               	movwf	___fladd@grs
  3984     02A8                     l1934:
  3985     02A8  084B               	movf	___fladd@aexp,w
  3986     02A9  00CC               	movwf	___fladd@bexp
  3987     02AA                     l1936:
  3988     02AA  084D               	movf	___fladd@grs,w
  3989     02AB  00CB               	movwf	___fladd@aexp
  3990     02AC                     l1938:
  3991     02AC  083A               	movf	___fladd@b,w
  3992     02AD  00CD               	movwf	___fladd@grs
  3993     02AE                     l1940:
  3994     02AE  083E               	movf	___fladd@a,w
  3995     02AF  00BA               	movwf	___fladd@b
  3996     02B0                     l1942:
  3997     02B0  084D               	movf	___fladd@grs,w
  3998     02B1  00BE               	movwf	___fladd@a
  3999     02B2                     l1944:
  4000     02B2  083B               	movf	___fladd@b+1,w
  4001     02B3  00CD               	movwf	___fladd@grs
  4002     02B4                     l1946:
  4003     02B4  083F               	movf	___fladd@a+1,w
  4004     02B5  00BB               	movwf	___fladd@b+1
  4005     02B6                     l1948:
  4006     02B6  084D               	movf	___fladd@grs,w
  4007     02B7  00BF               	movwf	___fladd@a+1
  4008     02B8                     l1950:
  4009     02B8  083C               	movf	___fladd@b+2,w
  4010     02B9  00CD               	movwf	___fladd@grs
  4011     02BA                     l1952:
  4012     02BA  0840               	movf	___fladd@a+2,w
  4013     02BB  00BC               	movwf	___fladd@b+2
  4014     02BC                     l1954:
  4015     02BC  084D               	movf	___fladd@grs,w
  4016     02BD  00C0               	movwf	___fladd@a+2
  4017     02BE                     l1956:
  4018     02BE  083D               	movf	___fladd@b+3,w
  4019     02BF  00CD               	movwf	___fladd@grs
  4020     02C0                     l1958:
  4021     02C0  0841               	movf	___fladd@a+3,w
  4022     02C1  00BD               	movwf	___fladd@b+3
  4023     02C2                     l1960:
  4024     02C2  084D               	movf	___fladd@grs,w
  4025     02C3  00C1               	movwf	___fladd@a+3
  4026     02C4                     l1962:
  4027     02C4  01CD               	clrf	___fladd@grs
  4028     02C5                     l1964:
  4029     02C5  084B               	movf	___fladd@aexp,w
  4030     02C6  00C2               	movwf	??___fladd
  4031     02C7  01C3               	clrf	??___fladd+1
  4032     02C8  0843               	movf	??___fladd+1,w
  4033     02C9  00C5               	movwf	??___fladd+3
  4034     02CA  084C               	movf	___fladd@bexp,w
  4035     02CB  0242               	subwf	??___fladd,w
  4036     02CC  00C4               	movwf	??___fladd+2
  4037     02CD  1C03               	skipc
  4038     02CE  03C5               	decf	??___fladd+3,f
  4039     02CF  0845               	movf	??___fladd+3,w
  4040     02D0  3A80               	xorlw	128
  4041     02D1  00FF               	movwf	btemp+1
  4042     02D2  3080               	movlw	128
  4043     02D3  027F               	subwf	btemp+1,w
  4044     02D4  1D03               	skipz
  4045     02D5  2AD8               	goto	u2195
  4046     02D6  301A               	movlw	26
  4047     02D7  0244               	subwf	??___fladd+2,w
  4048     02D8                     u2195:
  4049     02D8  1C03               	skipc
  4050     02D9  2ADB               	goto	u2191
  4051     02DA  2ADC               	goto	u2190
  4052     02DB                     u2191:
  4053     02DB  2B13               	goto	l1980
  4054     02DC                     u2190:
  4055     02DC                     l1966:
  4056     02DC  1283               	bcf	3,5	;RP0=0, select bank0
  4057     02DD  1303               	bcf	3,6	;RP1=0, select bank0
  4058     02DE  083D               	movf	___fladd@b+3,w
  4059     02DF  043C               	iorwf	___fladd@b+2,w
  4060     02E0  043B               	iorwf	___fladd@b+1,w
  4061     02E1  043A               	iorwf	___fladd@b,w
  4062     02E2  1D03               	skipz
  4063     02E3  2AE5               	goto	u2201
  4064     02E4  2AE7               	goto	u2200
  4065     02E5                     u2201:
  4066     02E5  3001               	movlw	1
  4067     02E6  2AE8               	goto	u2210
  4068     02E7                     u2200:
  4069     02E7  3000               	movlw	0
  4070     02E8                     u2210:
  4071     02E8  00CD               	movwf	___fladd@grs
  4072     02E9  3000               	movlw	0
  4073     02EA  00BD               	movwf	___fladd@b+3
  4074     02EB  3000               	movlw	0
  4075     02EC  00BC               	movwf	___fladd@b+2
  4076     02ED  3000               	movlw	0
  4077     02EE  00BB               	movwf	___fladd@b+1
  4078     02EF  3000               	movlw	0
  4079     02F0  00BA               	movwf	___fladd@b
  4080     02F1  084B               	movf	___fladd@aexp,w
  4081     02F2  00CC               	movwf	___fladd@bexp
  4082     02F3  2B1B               	goto	l605
  4083     02F4                     l607:
  4084     02F4  1C4D               	btfss	___fladd@grs,0
  4085     02F5  2AF7               	goto	u2221
  4086     02F6  2AF8               	goto	u2220
  4087     02F7                     u2221:
  4088     02F7  2AFF               	goto	l1970
  4089     02F8                     u2220:
  4090     02F8                     l1968:
  4091     02F8  084D               	movf	___fladd@grs,w
  4092     02F9  00C2               	movwf	??___fladd
  4093     02FA  1003               	clrc
  4094     02FB  0C42               	rrf	??___fladd,w
  4095     02FC  3801               	iorlw	1
  4096     02FD  00CD               	movwf	___fladd@grs
  4097     02FE  2B01               	goto	l1972
  4098     02FF                     l1970:
  4099     02FF  1003               	clrc
  4100     0300  0CCD               	rrf	___fladd@grs,f
  4101     0301                     l1972:
  4102     0301  1C3A               	btfss	___fladd@b,0
  4103     0302  2B04               	goto	u2231
  4104     0303  2B05               	goto	u2230
  4105     0304                     u2231:
  4106     0304  2B06               	goto	l1976
  4107     0305                     u2230:
  4108     0305                     l1974:
  4109     0305  17CD               	bsf	___fladd@grs,7
  4110     0306                     l1976:
  4111     0306  3001               	movlw	1
  4112     0307  00C2               	movwf	??___fladd
  4113     0308                     u2245:
  4114     0308  0D3D               	rlf	___fladd@b+3,w
  4115     0309  0CBD               	rrf	___fladd@b+3,f
  4116     030A  0CBC               	rrf	___fladd@b+2,f
  4117     030B  0CBB               	rrf	___fladd@b+1,f
  4118     030C  0CBA               	rrf	___fladd@b,f
  4119     030D  0BC2               	decfsz	??___fladd& (0+127),f
  4120     030E  2B08               	goto	u2245
  4121     030F                     l1978:
  4122     030F  3001               	movlw	1
  4123     0310  00FF               	movwf	btemp+1
  4124     0311  087F               	movf	btemp+1,w
  4125     0312  07CC               	addwf	___fladd@bexp,f
  4126     0313                     l1980:
  4127     0313  1283               	bcf	3,5	;RP0=0, select bank0
  4128     0314  1303               	bcf	3,6	;RP1=0, select bank0
  4129     0315  084B               	movf	___fladd@aexp,w
  4130     0316  024C               	subwf	___fladd@bexp,w
  4131     0317  1C03               	skipc
  4132     0318  2B1A               	goto	u2251
  4133     0319  2B1B               	goto	u2250
  4134     031A                     u2251:
  4135     031A  2AF4               	goto	l607
  4136     031B                     u2250:
  4137     031B                     l605:
  4138     031B  1B4A               	btfsc	___fladd@signs,6
  4139     031C  2B1E               	goto	u2261
  4140     031D  2B1F               	goto	u2260
  4141     031E                     u2261:
  4142     031E  2B68               	goto	l2006
  4143     031F                     u2260:
  4144     031F                     l1982:
  4145     031F  084C               	movf	___fladd@bexp,w
  4146     0320  1D03               	btfss	3,2
  4147     0321  2B23               	goto	u2271
  4148     0322  2B24               	goto	u2270
  4149     0323                     u2271:
  4150     0323  2B2D               	goto	l1988
  4151     0324                     u2270:
  4152     0324                     l1984:
  4153     0324  3000               	movlw	0
  4154     0325  00BD               	movwf	?___fladd+3
  4155     0326  3000               	movlw	0
  4156     0327  00BC               	movwf	?___fladd+2
  4157     0328  3000               	movlw	0
  4158     0329  00BB               	movwf	?___fladd+1
  4159     032A  3000               	movlw	0
  4160     032B  00BA               	movwf	?___fladd
  4161     032C  2C94               	goto	l614
  4162     032D                     l1988:
  4163     032D  083E               	movf	___fladd@a,w
  4164     032E  07BA               	addwf	___fladd@b,f
  4165     032F  083F               	movf	___fladd@a+1,w
  4166     0330  1103               	clrz
  4167     0331  1803               	skipnc
  4168     0332  3E01               	addlw	1
  4169     0333  1903               	skipnz
  4170     0334  2B36               	goto	u2281
  4171     0335  07BB               	addwf	___fladd@b+1,f
  4172     0336                     u2281:
  4173     0336  0840               	movf	___fladd@a+2,w
  4174     0337  1103               	clrz
  4175     0338  1803               	skipnc
  4176     0339  3E01               	addlw	1
  4177     033A  1903               	skipnz
  4178     033B  2B3D               	goto	u2282
  4179     033C  07BC               	addwf	___fladd@b+2,f
  4180     033D                     u2282:
  4181     033D  0841               	movf	___fladd@a+3,w
  4182     033E  1103               	clrz
  4183     033F  1803               	skipnc
  4184     0340  3E01               	addlw	1
  4185     0341  1903               	skipnz
  4186     0342  2B44               	goto	u2283
  4187     0343  07BD               	addwf	___fladd@b+3,f
  4188     0344                     u2283:
  4189     0344                     l1990:
  4190     0344  1C3D               	btfss	___fladd@b+3,0
  4191     0345  2B47               	goto	u2291
  4192     0346  2B48               	goto	u2290
  4193     0347                     u2291:
  4194     0347  2C1C               	goto	l2042
  4195     0348                     u2290:
  4196     0348                     l1992:
  4197     0348  1C4D               	btfss	___fladd@grs,0
  4198     0349  2B4B               	goto	u2301
  4199     034A  2B4C               	goto	u2300
  4200     034B                     u2301:
  4201     034B  2B53               	goto	l1996
  4202     034C                     u2300:
  4203     034C                     l1994:
  4204     034C  084D               	movf	___fladd@grs,w
  4205     034D  00C2               	movwf	??___fladd
  4206     034E  1003               	clrc
  4207     034F  0C42               	rrf	??___fladd,w
  4208     0350  3801               	iorlw	1
  4209     0351  00CD               	movwf	___fladd@grs
  4210     0352  2B55               	goto	l1998
  4211     0353                     l1996:
  4212     0353  1003               	clrc
  4213     0354  0CCD               	rrf	___fladd@grs,f
  4214     0355                     l1998:
  4215     0355  1C3A               	btfss	___fladd@b,0
  4216     0356  2B58               	goto	u2311
  4217     0357  2B59               	goto	u2310
  4218     0358                     u2311:
  4219     0358  2B5A               	goto	l2002
  4220     0359                     u2310:
  4221     0359                     l2000:
  4222     0359  17CD               	bsf	___fladd@grs,7
  4223     035A                     l2002:
  4224     035A  3001               	movlw	1
  4225     035B  00C2               	movwf	??___fladd
  4226     035C                     u2325:
  4227     035C  0D3D               	rlf	___fladd@b+3,w
  4228     035D  0CBD               	rrf	___fladd@b+3,f
  4229     035E  0CBC               	rrf	___fladd@b+2,f
  4230     035F  0CBB               	rrf	___fladd@b+1,f
  4231     0360  0CBA               	rrf	___fladd@b,f
  4232     0361  0BC2               	decfsz	??___fladd& (0+127),f
  4233     0362  2B5C               	goto	u2325
  4234     0363                     l2004:
  4235     0363  3001               	movlw	1
  4236     0364  00FF               	movwf	btemp+1
  4237     0365  087F               	movf	btemp+1,w
  4238     0366  07CC               	addwf	___fladd@bexp,f
  4239     0367  2C1C               	goto	l2042
  4240     0368                     l2006:
  4241     0368  083D               	movf	___fladd@b+3,w
  4242     0369  3A80               	xorlw	128
  4243     036A  00FF               	movwf	btemp+1
  4244     036B  0841               	movf	___fladd@a+3,w
  4245     036C  3A80               	xorlw	128
  4246     036D  027F               	subwf	btemp+1,w
  4247     036E  1D03               	skipz
  4248     036F  2B7A               	goto	u2333
  4249     0370  0840               	movf	___fladd@a+2,w
  4250     0371  023C               	subwf	___fladd@b+2,w
  4251     0372  1D03               	skipz
  4252     0373  2B7A               	goto	u2333
  4253     0374  083F               	movf	___fladd@a+1,w
  4254     0375  023B               	subwf	___fladd@b+1,w
  4255     0376  1D03               	skipz
  4256     0377  2B7A               	goto	u2333
  4257     0378  083E               	movf	___fladd@a,w
  4258     0379  023A               	subwf	___fladd@b,w
  4259     037A                     u2333:
  4260     037A  1803               	skipnc
  4261     037B  2B7D               	goto	u2331
  4262     037C  2B7E               	goto	u2330
  4263     037D                     u2331:
  4264     037D  2BD6               	goto	l2018
  4265     037E                     u2330:
  4266     037E                     l2008:
  4267     037E  30FF               	movlw	255
  4268     037F  00C2               	movwf	??___fladd
  4269     0380  30FF               	movlw	255
  4270     0381  00C3               	movwf	??___fladd+1
  4271     0382  30FF               	movlw	255
  4272     0383  00C4               	movwf	??___fladd+2
  4273     0384  30FF               	movlw	255
  4274     0385  00C5               	movwf	??___fladd+3
  4275     0386  083E               	movf	___fladd@a,w
  4276     0387  00C6               	movwf	??___fladd+4
  4277     0388  083F               	movf	___fladd@a+1,w
  4278     0389  00C7               	movwf	??___fladd+5
  4279     038A  0840               	movf	___fladd@a+2,w
  4280     038B  00C8               	movwf	??___fladd+6
  4281     038C  0841               	movf	___fladd@a+3,w
  4282     038D  00C9               	movwf	??___fladd+7
  4283     038E  083A               	movf	___fladd@b,w
  4284     038F  02C6               	subwf	??___fladd+4,f
  4285     0390  083B               	movf	___fladd@b+1,w
  4286     0391  1C03               	skipc
  4287     0392  0F3B               	incfsz	___fladd@b+1,w
  4288     0393  2B95               	goto	u2341
  4289     0394  2B96               	goto	u2342
  4290     0395                     u2341:
  4291     0395  02C7               	subwf	??___fladd+5,f
  4292     0396                     u2342:
  4293     0396  083C               	movf	___fladd@b+2,w
  4294     0397  1C03               	skipc
  4295     0398  0F3C               	incfsz	___fladd@b+2,w
  4296     0399  2B9B               	goto	u2343
  4297     039A  2B9C               	goto	u2344
  4298     039B                     u2343:
  4299     039B  02C8               	subwf	??___fladd+6,f
  4300     039C                     u2344:
  4301     039C  083D               	movf	___fladd@b+3,w
  4302     039D  1C03               	skipc
  4303     039E  0F3D               	incfsz	___fladd@b+3,w
  4304     039F  2BA1               	goto	u2345
  4305     03A0  2BA2               	goto	u2346
  4306     03A1                     u2345:
  4307     03A1  02C9               	subwf	??___fladd+7,f
  4308     03A2                     u2346:
  4309     03A2  0846               	movf	??___fladd+4,w
  4310     03A3  07C2               	addwf	??___fladd,f
  4311     03A4  0847               	movf	??___fladd+5,w
  4312     03A5  1803               	skipnc
  4313     03A6  0F47               	incfsz	??___fladd+5,w
  4314     03A7  2BA9               	goto	u2350
  4315     03A8  2BAA               	goto	u2351
  4316     03A9                     u2350:
  4317     03A9  07C3               	addwf	??___fladd+1,f
  4318     03AA                     u2351:
  4319     03AA  0848               	movf	??___fladd+6,w
  4320     03AB  1803               	skipnc
  4321     03AC  0F48               	incfsz	??___fladd+6,w
  4322     03AD  2BAF               	goto	u2352
  4323     03AE  2BB0               	goto	u2353
  4324     03AF                     u2352:
  4325     03AF  07C4               	addwf	??___fladd+2,f
  4326     03B0                     u2353:
  4327     03B0  0849               	movf	??___fladd+7,w
  4328     03B1  1803               	skipnc
  4329     03B2  0A49               	incf	??___fladd+7,w
  4330     03B3  07C5               	addwf	??___fladd+3,f
  4331     03B4  0845               	movf	??___fladd+3,w
  4332     03B5  00BD               	movwf	___fladd@b+3
  4333     03B6  0844               	movf	??___fladd+2,w
  4334     03B7  00BC               	movwf	___fladd@b+2
  4335     03B8  0843               	movf	??___fladd+1,w
  4336     03B9  00BB               	movwf	___fladd@b+1
  4337     03BA  0842               	movf	??___fladd,w
  4338     03BB  00BA               	movwf	___fladd@b
  4339     03BC                     l2010:
  4340     03BC  3080               	movlw	128
  4341     03BD  00FF               	movwf	btemp+1
  4342     03BE  087F               	movf	btemp+1,w
  4343     03BF  06CA               	xorwf	___fladd@signs,f
  4344     03C0                     l2012:
  4345     03C0  09CD               	comf	___fladd@grs,f
  4346     03C1  0ACD               	incf	___fladd@grs,f
  4347     03C2                     l2014:
  4348     03C2  084D               	movf	___fladd@grs,w
  4349     03C3  1D03               	btfss	3,2
  4350     03C4  2BC6               	goto	u2361
  4351     03C5  2BC7               	goto	u2360
  4352     03C6                     u2361:
  4353     03C6  2BE4               	goto	l622
  4354     03C7                     u2360:
  4355     03C7                     l2016:
  4356     03C7  3001               	movlw	1
  4357     03C8  07BA               	addwf	___fladd@b,f
  4358     03C9  3000               	movlw	0
  4359     03CA  1803               	skipnc
  4360     03CB  3001               	movlw	1
  4361     03CC  07BB               	addwf	___fladd@b+1,f
  4362     03CD  3000               	movlw	0
  4363     03CE  1803               	skipnc
  4364     03CF  3001               	movlw	1
  4365     03D0  07BC               	addwf	___fladd@b+2,f
  4366     03D1  3000               	movlw	0
  4367     03D2  1803               	skipnc
  4368     03D3  3001               	movlw	1
  4369     03D4  07BD               	addwf	___fladd@b+3,f
  4370     03D5  2BE4               	goto	l622
  4371     03D6                     l2018:
  4372     03D6  083E               	movf	___fladd@a,w
  4373     03D7  02BA               	subwf	___fladd@b,f
  4374     03D8  083F               	movf	___fladd@a+1,w
  4375     03D9  1C03               	skipc
  4376     03DA  0F3F               	incfsz	___fladd@a+1,w
  4377     03DB  02BB               	subwf	___fladd@b+1,f
  4378     03DC  0840               	movf	___fladd@a+2,w
  4379     03DD  1C03               	skipc
  4380     03DE  0F40               	incfsz	___fladd@a+2,w
  4381     03DF  02BC               	subwf	___fladd@b+2,f
  4382     03E0  0841               	movf	___fladd@a+3,w
  4383     03E1  1C03               	skipc
  4384     03E2  0F41               	incfsz	___fladd@a+3,w
  4385     03E3  02BD               	subwf	___fladd@b+3,f
  4386     03E4                     l622:
  4387     03E4  083D               	movf	___fladd@b+3,w
  4388     03E5  043C               	iorwf	___fladd@b+2,w
  4389     03E6  043B               	iorwf	___fladd@b+1,w
  4390     03E7  043A               	iorwf	___fladd@b,w
  4391     03E8  1D03               	skipz
  4392     03E9  2BEB               	goto	u2371
  4393     03EA  2BEC               	goto	u2370
  4394     03EB                     u2371:
  4395     03EB  2C18               	goto	l2040
  4396     03EC                     u2370:
  4397     03EC                     l2020:
  4398     03EC  084D               	movf	___fladd@grs,w
  4399     03ED  1D03               	btfss	3,2
  4400     03EE  2BF0               	goto	u2381
  4401     03EF  2BF1               	goto	u2380
  4402     03F0                     u2381:
  4403     03F0  2C18               	goto	l2040
  4404     03F1                     u2380:
  4405     03F1                     l2022:
  4406     03F1  3000               	movlw	0
  4407     03F2  00BD               	movwf	?___fladd+3
  4408     03F3  3000               	movlw	0
  4409     03F4  00BC               	movwf	?___fladd+2
  4410     03F5  3000               	movlw	0
  4411     03F6  00BB               	movwf	?___fladd+1
  4412     03F7  3000               	movlw	0
  4413     03F8  00BA               	movwf	?___fladd
  4414     03F9  2C94               	goto	l614
  4415     03FA                     l2026:
  4416     03FA  3001               	movlw	1
  4417     03FB  00C2               	movwf	??___fladd
  4418     03FC                     u2395:
  4419     03FC  1003               	clrc
  4420     03FD  0DBA               	rlf	___fladd@b,f
  4421     03FE  0DBB               	rlf	___fladd@b+1,f
  4422     03FF  0DBC               	rlf	___fladd@b+2,f
  4423     0400  0DBD               	rlf	___fladd@b+3,f
  4424     0401  0BC2               	decfsz	??___fladd,f
  4425     0402  2BFC               	goto	u2395
  4426     0403                     l2028:
  4427     0403  1FCD               	btfss	___fladd@grs,7
  4428     0404  2C06               	goto	u2401
  4429     0405  2C07               	goto	u2400
  4430     0406                     u2401:
  4431     0406  2C08               	goto	l626
  4432     0407                     u2400:
  4433     0407                     l2030:
  4434     0407  143A               	bsf	___fladd@b,0
  4435     0408                     l626:
  4436     0408  1C4D               	btfss	___fladd@grs,0
  4437     0409  2C0B               	goto	u2411
  4438     040A  2C0C               	goto	u2410
  4439     040B                     u2411:
  4440     040B  2C0F               	goto	l2034
  4441     040C                     u2410:
  4442     040C                     l2032:
  4443     040C  1403               	setc
  4444     040D  0DCD               	rlf	___fladd@grs,f
  4445     040E  2C11               	goto	l2036
  4446     040F                     l2034:
  4447     040F  1003               	clrc
  4448     0410  0DCD               	rlf	___fladd@grs,f
  4449     0411                     l2036:
  4450     0411  084C               	movf	___fladd@bexp,w
  4451     0412  1903               	btfsc	3,2
  4452     0413  2C15               	goto	u2421
  4453     0414  2C16               	goto	u2420
  4454     0415                     u2421:
  4455     0415  2C18               	goto	l2040
  4456     0416                     u2420:
  4457     0416                     l2038:
  4458     0416  3001               	movlw	1
  4459     0417  02CC               	subwf	___fladd@bexp,f
  4460     0418                     l2040:
  4461     0418  1FBC               	btfss	___fladd@b+2,7
  4462     0419  2C1B               	goto	u2431
  4463     041A  2C1C               	goto	u2430
  4464     041B                     u2431:
  4465     041B  2BFA               	goto	l2026
  4466     041C                     u2430:
  4467     041C                     l2042:
  4468     041C  01CB               	clrf	___fladd@aexp
  4469     041D                     l2044:
  4470     041D  1FCD               	btfss	___fladd@grs,7
  4471     041E  2C20               	goto	u2441
  4472     041F  2C21               	goto	u2440
  4473     0420                     u2441:
  4474     0420  2C2F               	goto	l2052
  4475     0421                     u2440:
  4476     0421                     l2046:
  4477     0421  084D               	movf	___fladd@grs,w
  4478     0422  397F               	andlw	127
  4479     0423  1903               	btfsc	3,2
  4480     0424  2C26               	goto	u2451
  4481     0425  2C27               	goto	u2450
  4482     0426                     u2451:
  4483     0426  2C2A               	goto	l632
  4484     0427                     u2450:
  4485     0427                     l2048:
  4486     0427  01CB               	clrf	___fladd@aexp
  4487     0428  0ACB               	incf	___fladd@aexp,f
  4488     0429  2C2F               	goto	l2052
  4489     042A                     l632:
  4490     042A  1C3A               	btfss	___fladd@b,0
  4491     042B  2C2D               	goto	u2461
  4492     042C  2C2E               	goto	u2460
  4493     042D                     u2461:
  4494     042D  2C2F               	goto	l2052
  4495     042E                     u2460:
  4496     042E  2C27               	goto	l2048
  4497     042F                     l2052:
  4498     042F  084B               	movf	___fladd@aexp,w
  4499     0430  1903               	btfsc	3,2
  4500     0431  2C33               	goto	u2471
  4501     0432  2C34               	goto	u2470
  4502     0433                     u2471:
  4503     0433  2C68               	goto	l2062
  4504     0434                     u2470:
  4505     0434                     l2054:
  4506     0434  3001               	movlw	1
  4507     0435  07BA               	addwf	___fladd@b,f
  4508     0436  3000               	movlw	0
  4509     0437  1803               	skipnc
  4510     0438  3001               	movlw	1
  4511     0439  07BB               	addwf	___fladd@b+1,f
  4512     043A  3000               	movlw	0
  4513     043B  1803               	skipnc
  4514     043C  3001               	movlw	1
  4515     043D  07BC               	addwf	___fladd@b+2,f
  4516     043E  3000               	movlw	0
  4517     043F  1803               	skipnc
  4518     0440  3001               	movlw	1
  4519     0441  07BD               	addwf	___fladd@b+3,f
  4520     0442                     l2056:
  4521     0442  1C3D               	btfss	___fladd@b+3,0
  4522     0443  2C45               	goto	u2481
  4523     0444  2C46               	goto	u2480
  4524     0445                     u2481:
  4525     0445  2C68               	goto	l2062
  4526     0446                     u2480:
  4527     0446                     l2058:
  4528     0446  083A               	movf	___fladd@b,w
  4529     0447  00C2               	movwf	??___fladd
  4530     0448  083B               	movf	___fladd@b+1,w
  4531     0449  00C3               	movwf	??___fladd+1
  4532     044A  083C               	movf	___fladd@b+2,w
  4533     044B  00C4               	movwf	??___fladd+2
  4534     044C  083D               	movf	___fladd@b+3,w
  4535     044D  00C5               	movwf	??___fladd+3
  4536     044E  3001               	movlw	1
  4537     044F  00C6               	movwf	??___fladd+4
  4538     0450                     u2495:
  4539     0450  0D45               	rlf	??___fladd+3,w
  4540     0451  0CC5               	rrf	??___fladd+3,f
  4541     0452  0CC4               	rrf	??___fladd+2,f
  4542     0453  0CC3               	rrf	??___fladd+1,f
  4543     0454  0CC2               	rrf	??___fladd,f
  4544     0455                     u2490:
  4545     0455  0BC6               	decfsz	??___fladd+4,f
  4546     0456  2C50               	goto	u2495
  4547     0457  0845               	movf	??___fladd+3,w
  4548     0458  00BD               	movwf	___fladd@b+3
  4549     0459  0844               	movf	??___fladd+2,w
  4550     045A  00BC               	movwf	___fladd@b+2
  4551     045B  0843               	movf	??___fladd+1,w
  4552     045C  00BB               	movwf	___fladd@b+1
  4553     045D  0842               	movf	??___fladd,w
  4554     045E  00BA               	movwf	___fladd@b
  4555     045F  0A4C               	incf	___fladd@bexp,w
  4556     0460  1903               	btfsc	3,2
  4557     0461  2C63               	goto	u2501
  4558     0462  2C64               	goto	u2500
  4559     0463                     u2501:
  4560     0463  2C68               	goto	l2062
  4561     0464                     u2500:
  4562     0464                     l2060:
  4563     0464  3001               	movlw	1
  4564     0465  00FF               	movwf	btemp+1
  4565     0466  087F               	movf	btemp+1,w
  4566     0467  07CC               	addwf	___fladd@bexp,f
  4567     0468                     l2062:
  4568     0468  0A4C               	incf	___fladd@bexp,w
  4569     0469  1903               	btfsc	3,2
  4570     046A  2C6C               	goto	u2511
  4571     046B  2C6D               	goto	u2510
  4572     046C                     u2511:
  4573     046C  2C72               	goto	l2066
  4574     046D                     u2510:
  4575     046D                     l2064:
  4576     046D  084C               	movf	___fladd@bexp,w
  4577     046E  1D03               	btfss	3,2
  4578     046F  2C71               	goto	u2521
  4579     0470  2C72               	goto	u2520
  4580     0471                     u2521:
  4581     0471  2C80               	goto	l2072
  4582     0472                     u2520:
  4583     0472                     l2066:
  4584     0472  3000               	movlw	0
  4585     0473  00BD               	movwf	___fladd@b+3
  4586     0474  3000               	movlw	0
  4587     0475  00BC               	movwf	___fladd@b+2
  4588     0476  3000               	movlw	0
  4589     0477  00BB               	movwf	___fladd@b+1
  4590     0478  3000               	movlw	0
  4591     0479  00BA               	movwf	___fladd@b
  4592     047A                     l2068:
  4593     047A  084C               	movf	___fladd@bexp,w
  4594     047B  1D03               	btfss	3,2
  4595     047C  2C7E               	goto	u2531
  4596     047D  2C7F               	goto	u2530
  4597     047E                     u2531:
  4598     047E  2C80               	goto	l2072
  4599     047F                     u2530:
  4600     047F                     l2070:
  4601     047F  01CA               	clrf	___fladd@signs
  4602     0480                     l2072:
  4603     0480  1C4C               	btfss	___fladd@bexp,0
  4604     0481  2C83               	goto	u2541
  4605     0482  2C84               	goto	u2540
  4606     0483                     u2541:
  4607     0483  2C86               	goto	l2076
  4608     0484                     u2540:
  4609     0484                     l2074:
  4610     0484  17BC               	bsf	___fladd@b+2,7
  4611     0485  2C8A               	goto	l2078
  4612     0486                     l2076:
  4613     0486  307F               	movlw	127
  4614     0487  00FF               	movwf	btemp+1
  4615     0488  087F               	movf	btemp+1,w
  4616     0489  05BC               	andwf	___fladd@b+2,f
  4617     048A                     l2078:
  4618     048A  084C               	movf	___fladd@bexp,w
  4619     048B  00C2               	movwf	??___fladd
  4620     048C  1003               	clrc
  4621     048D  0C42               	rrf	??___fladd,w
  4622     048E  00BD               	movwf	___fladd@b+3
  4623     048F                     l2080:
  4624     048F  1FCA               	btfss	___fladd@signs,7
  4625     0490  2C92               	goto	u2551
  4626     0491  2C93               	goto	u2550
  4627     0492                     u2551:
  4628     0492  2C94               	goto	l644
  4629     0493                     u2550:
  4630     0493                     l2082:
  4631     0493  17BD               	bsf	___fladd@b+3,7
  4632     0494                     l644:
  4633     0494                     l614:
  4634     0494  0008               	return
  4635     0495                     __end_of___fladd:
  4636                           
  4637                           	psect	text14
  4638     17E7                     __ptext14:	
  4639 ;; *************** function ___flneg *****************
  4640 ;; Defined at:
  4641 ;;		line 15 in file "C:\Program Files\Microchip\xc8\v2.46\pic\sources\c99\common\flneg.c"
  4642 ;; Parameters:    Size  Location     Type
  4643 ;;  f1              4    0[COMMON] unsigned char 
  4644 ;; Auto vars:     Size  Location     Type
  4645 ;;		None
  4646 ;; Return value:  Size  Location     Type
  4647 ;;                  4    0[COMMON] unsigned char 
  4648 ;; Registers used:
  4649 ;;		wreg
  4650 ;; Tracked objects:
  4651 ;;		On entry : 0/0
  4652 ;;		On exit  : 0/0
  4653 ;;		Unchanged: 0/0
  4654 ;; Data sizes:     COMMON   BANK0   BANK1   BANK3   BANK2
  4655 ;;      Params:         4       0       0       0       0
  4656 ;;      Locals:         0       0       0       0       0
  4657 ;;      Temps:          0       0       0       0       0
  4658 ;;      Totals:         4       0       0       0       0
  4659 ;;Total ram usage:        4 bytes
  4660 ;; Hardware stack levels used: 1
  4661 ;; This function calls:
  4662 ;;		Nothing
  4663 ;; This function is called by:
  4664 ;;		_LCD_Float
  4665 ;; This function uses a non-reentrant model
  4666 ;;
  4667                           
  4668     17E7                     ___flneg:	
  4669                           ;psect for function ___flneg
  4670                           
  4671     17E7                     l2184:	
  4672                           ;incstack = 0
  4673                           ; Regs used in ___flneg: [wreg]
  4674                           
  4675     17E7  0873               	movf	___flneg@f1+3,w
  4676     17E8  0472               	iorwf	___flneg@f1+2,w
  4677     17E9  0471               	iorwf	___flneg@f1+1,w
  4678     17EA  0470               	iorwf	___flneg@f1,w
  4679     17EB  1903               	skipnz
  4680     17EC  2FEE               	goto	u2761
  4681     17ED  2FEF               	goto	u2760
  4682     17EE                     u2761:
  4683     17EE  2FF1               	goto	l2188
  4684     17EF                     u2760:
  4685     17EF                     l2186:
  4686     17EF  3080               	movlw	128
  4687     17F0  06F3               	xorwf	___flneg@f1+3,f
  4688     17F1                     l2188:
  4689     17F1                     l490:
  4690     17F1  0008               	return
  4691     17F2                     __end_of___flneg:
  4692                           
  4693                           	psect	text15
  4694     0495                     __ptext15:	
  4695 ;; *************** function ___flmul *****************
  4696 ;; Defined at:
  4697 ;;		line 8 in file "C:\Program Files\Microchip\xc8\v2.46\pic\sources\c99\common\sprcmul.c"
  4698 ;; Parameters:    Size  Location     Type
  4699 ;;  b               4    0[BANK0 ] unsigned char 
  4700 ;;  a               4    4[BANK0 ] unsigned char 
  4701 ;; Auto vars:     Size  Location     Type
  4702 ;;  prod            4   15[BANK0 ] struct .
  4703 ;;  grs             4    9[BANK0 ] unsigned long 
  4704 ;;  temp            2   19[BANK0 ] struct .
  4705 ;;  bexp            1   14[BANK0 ] unsigned char 
  4706 ;;  aexp            1   13[BANK0 ] unsigned char 
  4707 ;;  sign            1    8[BANK0 ] unsigned char 
  4708 ;; Return value:  Size  Location     Type
  4709 ;;                  4    0[BANK0 ] unsigned char 
  4710 ;; Registers used:
  4711 ;;		wreg, status,2, status,0, btemp+1, pclath, cstack
  4712 ;; Tracked objects:
  4713 ;;		On entry : 0/0
  4714 ;;		On exit  : 0/0
  4715 ;;		Unchanged: 0/0
  4716 ;; Data sizes:     COMMON   BANK0   BANK1   BANK3   BANK2
  4717 ;;      Params:         0       8       0       0       0
  4718 ;;      Locals:         0      13       0       0       0
  4719 ;;      Temps:          5       0       0       0       0
  4720 ;;      Totals:         5      21       0       0       0
  4721 ;;Total ram usage:       26 bytes
  4722 ;; Hardware stack levels used: 1
  4723 ;; Hardware stack levels required when called: 1
  4724 ;; This function calls:
  4725 ;;		__Umul8_16
  4726 ;; This function is called by:
  4727 ;;		_LCD_Float
  4728 ;; This function uses a non-reentrant model
  4729 ;;
  4730                           
  4731     0495                     ___flmul:	
  4732                           ;psect for function ___flmul
  4733                           
  4734     0495                     l2382:	
  4735                           ;incstack = 0
  4736                           ; Regs used in ___flmul: [wreg+status,2+status,0+btemp+1+pclath+cstack]
  4737                           
  4738     0495  1283               	bcf	3,5	;RP0=0, select bank0
  4739     0496  1303               	bcf	3,6	;RP1=0, select bank0
  4740     0497  0823               	movf	___flmul@b+3,w
  4741     0498  3980               	andlw	128
  4742     0499  00A8               	movwf	___flmul@sign
  4743     049A                     l2384:
  4744     049A  0823               	movf	___flmul@b+3,w
  4745     049B  00F9               	movwf	??___flmul
  4746     049C  0779               	addwf	??___flmul,w
  4747     049D  00AE               	movwf	___flmul@bexp
  4748     049E                     l2386:
  4749     049E  1FA2               	btfss	___flmul@b+2,7
  4750     049F  2CA1               	goto	u3161
  4751     04A0  2CA2               	goto	u3160
  4752     04A1                     u3161:
  4753     04A1  2CA3               	goto	l2390
  4754     04A2                     u3160:
  4755     04A2                     l2388:
  4756     04A2  142E               	bsf	___flmul@bexp,0
  4757     04A3                     l2390:
  4758     04A3  082E               	movf	___flmul@bexp,w
  4759     04A4  1903               	btfsc	3,2
  4760     04A5  2CA7               	goto	u3171
  4761     04A6  2CA8               	goto	u3170
  4762     04A7                     u3171:
  4763     04A7  2CB7               	goto	l2398
  4764     04A8                     u3170:
  4765     04A8                     l2392:
  4766     04A8  0A2E               	incf	___flmul@bexp,w
  4767     04A9  1D03               	btfss	3,2
  4768     04AA  2CAC               	goto	u3181
  4769     04AB  2CAD               	goto	u3180
  4770     04AC                     u3181:
  4771     04AC  2CB5               	goto	l2396
  4772     04AD                     u3180:
  4773     04AD                     l2394:
  4774     04AD  3000               	movlw	0
  4775     04AE  00A3               	movwf	___flmul@b+3
  4776     04AF  3000               	movlw	0
  4777     04B0  00A2               	movwf	___flmul@b+2
  4778     04B1  3000               	movlw	0
  4779     04B2  00A1               	movwf	___flmul@b+1
  4780     04B3  3000               	movlw	0
  4781     04B4  00A0               	movwf	___flmul@b
  4782     04B5                     l2396:
  4783     04B5  17A2               	bsf	___flmul@b+2,7
  4784     04B6  2CBF               	goto	l2400
  4785     04B7                     l2398:
  4786     04B7  3000               	movlw	0
  4787     04B8  00A3               	movwf	___flmul@b+3
  4788     04B9  3000               	movlw	0
  4789     04BA  00A2               	movwf	___flmul@b+2
  4790     04BB  3000               	movlw	0
  4791     04BC  00A1               	movwf	___flmul@b+1
  4792     04BD  3000               	movlw	0
  4793     04BE  00A0               	movwf	___flmul@b
  4794     04BF                     l2400:
  4795     04BF  0827               	movf	___flmul@a+3,w
  4796     04C0  3980               	andlw	128
  4797     04C1  00FF               	movwf	btemp+1
  4798     04C2  087F               	movf	btemp+1,w
  4799     04C3  06A8               	xorwf	___flmul@sign,f
  4800     04C4                     l2402:
  4801     04C4  0827               	movf	___flmul@a+3,w
  4802     04C5  00F9               	movwf	??___flmul
  4803     04C6  0779               	addwf	??___flmul,w
  4804     04C7  00AD               	movwf	___flmul@aexp
  4805     04C8                     l2404:
  4806     04C8  1FA6               	btfss	___flmul@a+2,7
  4807     04C9  2CCB               	goto	u3191
  4808     04CA  2CCC               	goto	u3190
  4809     04CB                     u3191:
  4810     04CB  2CCD               	goto	l2408
  4811     04CC                     u3190:
  4812     04CC                     l2406:
  4813     04CC  142D               	bsf	___flmul@aexp,0
  4814     04CD                     l2408:
  4815     04CD  082D               	movf	___flmul@aexp,w
  4816     04CE  1903               	btfsc	3,2
  4817     04CF  2CD1               	goto	u3201
  4818     04D0  2CD2               	goto	u3200
  4819     04D1                     u3201:
  4820     04D1  2CE1               	goto	l2416
  4821     04D2                     u3200:
  4822     04D2                     l2410:
  4823     04D2  0A2D               	incf	___flmul@aexp,w
  4824     04D3  1D03               	btfss	3,2
  4825     04D4  2CD6               	goto	u3211
  4826     04D5  2CD7               	goto	u3210
  4827     04D6                     u3211:
  4828     04D6  2CDF               	goto	l2414
  4829     04D7                     u3210:
  4830     04D7                     l2412:
  4831     04D7  3000               	movlw	0
  4832     04D8  00A7               	movwf	___flmul@a+3
  4833     04D9  3000               	movlw	0
  4834     04DA  00A6               	movwf	___flmul@a+2
  4835     04DB  3000               	movlw	0
  4836     04DC  00A5               	movwf	___flmul@a+1
  4837     04DD  3000               	movlw	0
  4838     04DE  00A4               	movwf	___flmul@a
  4839     04DF                     l2414:
  4840     04DF  17A6               	bsf	___flmul@a+2,7
  4841     04E0  2CE9               	goto	l2418
  4842     04E1                     l2416:
  4843     04E1  3000               	movlw	0
  4844     04E2  00A7               	movwf	___flmul@a+3
  4845     04E3  3000               	movlw	0
  4846     04E4  00A6               	movwf	___flmul@a+2
  4847     04E5  3000               	movlw	0
  4848     04E6  00A5               	movwf	___flmul@a+1
  4849     04E7  3000               	movlw	0
  4850     04E8  00A4               	movwf	___flmul@a
  4851     04E9                     l2418:
  4852     04E9  082D               	movf	___flmul@aexp,w
  4853     04EA  1903               	btfsc	3,2
  4854     04EB  2CED               	goto	u3221
  4855     04EC  2CEE               	goto	u3220
  4856     04ED                     u3221:
  4857     04ED  2CF3               	goto	l2422
  4858     04EE                     u3220:
  4859     04EE                     l2420:
  4860     04EE  082E               	movf	___flmul@bexp,w
  4861     04EF  1D03               	btfss	3,2
  4862     04F0  2CF2               	goto	u3231
  4863     04F1  2CF3               	goto	u3230
  4864     04F2                     u3231:
  4865     04F2  2CFC               	goto	l2426
  4866     04F3                     u3230:
  4867     04F3                     l2422:
  4868     04F3  3000               	movlw	0
  4869     04F4  00A3               	movwf	?___flmul+3
  4870     04F5  3000               	movlw	0
  4871     04F6  00A2               	movwf	?___flmul+2
  4872     04F7  3000               	movlw	0
  4873     04F8  00A1               	movwf	?___flmul+1
  4874     04F9  3000               	movlw	0
  4875     04FA  00A0               	movwf	?___flmul
  4876     04FB  2FD9               	goto	l697
  4877     04FC                     l2426:
  4878     04FC  0820               	movf	___flmul@b,w
  4879     04FD  00F0               	movwf	__Umul8_16@multiplicand
  4880     04FE  0826               	movf	___flmul@a+2,w
  4881     04FF  120A  158A  2073  120A  118A  	fcall	__Umul8_16
  4882     0504  0871               	movf	?__Umul8_16+1,w
  4883     0505  1283               	bcf	3,5	;RP0=0, select bank0
  4884     0506  1303               	bcf	3,6	;RP1=0, select bank0
  4885     0507  00B4               	movwf	___flmul@temp+1
  4886     0508  0870               	movf	?__Umul8_16,w
  4887     0509  00B3               	movwf	___flmul@temp
  4888     050A                     l2428:
  4889     050A  0833               	movf	___flmul@temp,w
  4890     050B  00F9               	movwf	??___flmul
  4891     050C  01FA               	clrf	??___flmul+1
  4892     050D  01FB               	clrf	??___flmul+2
  4893     050E  01FC               	clrf	??___flmul+3
  4894     050F  087C               	movf	??___flmul+3,w
  4895     0510  00AC               	movwf	___flmul@grs+3
  4896     0511  087B               	movf	??___flmul+2,w
  4897     0512  00AB               	movwf	___flmul@grs+2
  4898     0513  087A               	movf	??___flmul+1,w
  4899     0514  00AA               	movwf	___flmul@grs+1
  4900     0515  0879               	movf	??___flmul,w
  4901     0516  00A9               	movwf	___flmul@grs
  4902     0517                     l2430:
  4903     0517  0834               	movf	___flmul@temp+1,w
  4904     0518  00F9               	movwf	??___flmul
  4905     0519  01FA               	clrf	??___flmul+1
  4906     051A  01FB               	clrf	??___flmul+2
  4907     051B  01FC               	clrf	??___flmul+3
  4908     051C  087C               	movf	??___flmul+3,w
  4909     051D  00B2               	movwf	___flmul@prod+3
  4910     051E  087B               	movf	??___flmul+2,w
  4911     051F  00B1               	movwf	___flmul@prod+2
  4912     0520  087A               	movf	??___flmul+1,w
  4913     0521  00B0               	movwf	___flmul@prod+1
  4914     0522  0879               	movf	??___flmul,w
  4915     0523  00AF               	movwf	___flmul@prod
  4916     0524  0821               	movf	___flmul@b+1,w
  4917     0525  00F0               	movwf	__Umul8_16@multiplicand
  4918     0526  0825               	movf	___flmul@a+1,w
  4919     0527  120A  158A  2073  120A  118A  	fcall	__Umul8_16
  4920     052C  0871               	movf	?__Umul8_16+1,w
  4921     052D  1283               	bcf	3,5	;RP0=0, select bank0
  4922     052E  1303               	bcf	3,6	;RP1=0, select bank0
  4923     052F  00B4               	movwf	___flmul@temp+1
  4924     0530  0870               	movf	?__Umul8_16,w
  4925     0531  00B3               	movwf	___flmul@temp
  4926     0532                     l2432:
  4927     0532  0833               	movf	___flmul@temp,w
  4928     0533  00F9               	movwf	??___flmul
  4929     0534  01FA               	clrf	??___flmul+1
  4930     0535  01FB               	clrf	??___flmul+2
  4931     0536  01FC               	clrf	??___flmul+3
  4932     0537  0879               	movf	??___flmul,w
  4933     0538  07A9               	addwf	___flmul@grs,f
  4934     0539  087A               	movf	??___flmul+1,w
  4935     053A  1103               	clrz
  4936     053B  1803               	skipnc
  4937     053C  3E01               	addlw	1
  4938     053D  1903               	skipnz
  4939     053E  2D40               	goto	u3241
  4940     053F  07AA               	addwf	___flmul@grs+1,f
  4941     0540                     u3241:
  4942     0540  087B               	movf	??___flmul+2,w
  4943     0541  1103               	clrz
  4944     0542  1803               	skipnc
  4945     0543  3E01               	addlw	1
  4946     0544  1903               	skipnz
  4947     0545  2D47               	goto	u3242
  4948     0546  07AB               	addwf	___flmul@grs+2,f
  4949     0547                     u3242:
  4950     0547  087C               	movf	??___flmul+3,w
  4951     0548  1103               	clrz
  4952     0549  1803               	skipnc
  4953     054A  3E01               	addlw	1
  4954     054B  1903               	skipnz
  4955     054C  2D4E               	goto	u3243
  4956     054D  07AC               	addwf	___flmul@grs+3,f
  4957     054E                     u3243:
  4958     054E                     l2434:
  4959     054E  0834               	movf	___flmul@temp+1,w
  4960     054F  00F9               	movwf	??___flmul
  4961     0550  01FA               	clrf	??___flmul+1
  4962     0551  01FB               	clrf	??___flmul+2
  4963     0552  01FC               	clrf	??___flmul+3
  4964     0553  0879               	movf	??___flmul,w
  4965     0554  07AF               	addwf	___flmul@prod,f
  4966     0555  087A               	movf	??___flmul+1,w
  4967     0556  1103               	clrz
  4968     0557  1803               	skipnc
  4969     0558  3E01               	addlw	1
  4970     0559  1903               	skipnz
  4971     055A  2D5C               	goto	u3251
  4972     055B  07B0               	addwf	___flmul@prod+1,f
  4973     055C                     u3251:
  4974     055C  087B               	movf	??___flmul+2,w
  4975     055D  1103               	clrz
  4976     055E  1803               	skipnc
  4977     055F  3E01               	addlw	1
  4978     0560  1903               	skipnz
  4979     0561  2D63               	goto	u3252
  4980     0562  07B1               	addwf	___flmul@prod+2,f
  4981     0563                     u3252:
  4982     0563  087C               	movf	??___flmul+3,w
  4983     0564  1103               	clrz
  4984     0565  1803               	skipnc
  4985     0566  3E01               	addlw	1
  4986     0567  1903               	skipnz
  4987     0568  2D6A               	goto	u3253
  4988     0569  07B2               	addwf	___flmul@prod+3,f
  4989     056A                     u3253:
  4990     056A  0822               	movf	___flmul@b+2,w
  4991     056B  00F0               	movwf	__Umul8_16@multiplicand
  4992     056C  0824               	movf	___flmul@a,w
  4993     056D  120A  158A  2073  120A  118A  	fcall	__Umul8_16
  4994     0572  0871               	movf	?__Umul8_16+1,w
  4995     0573  1283               	bcf	3,5	;RP0=0, select bank0
  4996     0574  1303               	bcf	3,6	;RP1=0, select bank0
  4997     0575  00B4               	movwf	___flmul@temp+1
  4998     0576  0870               	movf	?__Umul8_16,w
  4999     0577  00B3               	movwf	___flmul@temp
  5000     0578                     l2436:
  5001     0578  0833               	movf	___flmul@temp,w
  5002     0579  00F9               	movwf	??___flmul
  5003     057A  01FA               	clrf	??___flmul+1
  5004     057B  01FB               	clrf	??___flmul+2
  5005     057C  01FC               	clrf	??___flmul+3
  5006     057D  0879               	movf	??___flmul,w
  5007     057E  07A9               	addwf	___flmul@grs,f
  5008     057F  087A               	movf	??___flmul+1,w
  5009     0580  1103               	clrz
  5010     0581  1803               	skipnc
  5011     0582  3E01               	addlw	1
  5012     0583  1903               	skipnz
  5013     0584  2D86               	goto	u3261
  5014     0585  07AA               	addwf	___flmul@grs+1,f
  5015     0586                     u3261:
  5016     0586  087B               	movf	??___flmul+2,w
  5017     0587  1103               	clrz
  5018     0588  1803               	skipnc
  5019     0589  3E01               	addlw	1
  5020     058A  1903               	skipnz
  5021     058B  2D8D               	goto	u3262
  5022     058C  07AB               	addwf	___flmul@grs+2,f
  5023     058D                     u3262:
  5024     058D  087C               	movf	??___flmul+3,w
  5025     058E  1103               	clrz
  5026     058F  1803               	skipnc
  5027     0590  3E01               	addlw	1
  5028     0591  1903               	skipnz
  5029     0592  2D94               	goto	u3263
  5030     0593  07AC               	addwf	___flmul@grs+3,f
  5031     0594                     u3263:
  5032     0594                     l2438:
  5033     0594  0834               	movf	___flmul@temp+1,w
  5034     0595  00F9               	movwf	??___flmul
  5035     0596  01FA               	clrf	??___flmul+1
  5036     0597  01FB               	clrf	??___flmul+2
  5037     0598  01FC               	clrf	??___flmul+3
  5038     0599  0879               	movf	??___flmul,w
  5039     059A  07AF               	addwf	___flmul@prod,f
  5040     059B  087A               	movf	??___flmul+1,w
  5041     059C  1103               	clrz
  5042     059D  1803               	skipnc
  5043     059E  3E01               	addlw	1
  5044     059F  1903               	skipnz
  5045     05A0  2DA2               	goto	u3271
  5046     05A1  07B0               	addwf	___flmul@prod+1,f
  5047     05A2                     u3271:
  5048     05A2  087B               	movf	??___flmul+2,w
  5049     05A3  1103               	clrz
  5050     05A4  1803               	skipnc
  5051     05A5  3E01               	addlw	1
  5052     05A6  1903               	skipnz
  5053     05A7  2DA9               	goto	u3272
  5054     05A8  07B1               	addwf	___flmul@prod+2,f
  5055     05A9                     u3272:
  5056     05A9  087C               	movf	??___flmul+3,w
  5057     05AA  1103               	clrz
  5058     05AB  1803               	skipnc
  5059     05AC  3E01               	addlw	1
  5060     05AD  1903               	skipnz
  5061     05AE  2DB0               	goto	u3273
  5062     05AF  07B2               	addwf	___flmul@prod+3,f
  5063     05B0                     u3273:
  5064     05B0                     l2440:
  5065     05B0  3008               	movlw	8
  5066     05B1  00F9               	movwf	??___flmul
  5067     05B2                     u3285:
  5068     05B2  1003               	clrc
  5069     05B3  0DA9               	rlf	___flmul@grs,f
  5070     05B4  0DAA               	rlf	___flmul@grs+1,f
  5071     05B5  0DAB               	rlf	___flmul@grs+2,f
  5072     05B6  0DAC               	rlf	___flmul@grs+3,f
  5073     05B7  0BF9               	decfsz	??___flmul,f
  5074     05B8  2DB2               	goto	u3285
  5075     05B9                     l2442:
  5076     05B9  0821               	movf	___flmul@b+1,w
  5077     05BA  00F0               	movwf	__Umul8_16@multiplicand
  5078     05BB  0824               	movf	___flmul@a,w
  5079     05BC  120A  158A  2073  120A  118A  	fcall	__Umul8_16
  5080     05C1  0871               	movf	?__Umul8_16+1,w
  5081     05C2  1283               	bcf	3,5	;RP0=0, select bank0
  5082     05C3  1303               	bcf	3,6	;RP1=0, select bank0
  5083     05C4  00B4               	movwf	___flmul@temp+1
  5084     05C5  0870               	movf	?__Umul8_16,w
  5085     05C6  00B3               	movwf	___flmul@temp
  5086     05C7                     l2444:
  5087     05C7  0833               	movf	___flmul@temp,w
  5088     05C8  00F9               	movwf	??___flmul
  5089     05C9  0834               	movf	___flmul@temp+1,w
  5090     05CA  00FA               	movwf	??___flmul+1
  5091     05CB  01FB               	clrf	??___flmul+2
  5092     05CC  01FC               	clrf	??___flmul+3
  5093     05CD  0879               	movf	??___flmul,w
  5094     05CE  07A9               	addwf	___flmul@grs,f
  5095     05CF  087A               	movf	??___flmul+1,w
  5096     05D0  1103               	clrz
  5097     05D1  1803               	skipnc
  5098     05D2  3E01               	addlw	1
  5099     05D3  1903               	skipnz
  5100     05D4  2DD6               	goto	u3291
  5101     05D5  07AA               	addwf	___flmul@grs+1,f
  5102     05D6                     u3291:
  5103     05D6  087B               	movf	??___flmul+2,w
  5104     05D7  1103               	clrz
  5105     05D8  1803               	skipnc
  5106     05D9  3E01               	addlw	1
  5107     05DA  1903               	skipnz
  5108     05DB  2DDD               	goto	u3292
  5109     05DC  07AB               	addwf	___flmul@grs+2,f
  5110     05DD                     u3292:
  5111     05DD  087C               	movf	??___flmul+3,w
  5112     05DE  1103               	clrz
  5113     05DF  1803               	skipnc
  5114     05E0  3E01               	addlw	1
  5115     05E1  1903               	skipnz
  5116     05E2  2DE4               	goto	u3293
  5117     05E3  07AC               	addwf	___flmul@grs+3,f
  5118     05E4                     u3293:
  5119     05E4                     l2446:
  5120     05E4  0820               	movf	___flmul@b,w
  5121     05E5  00F0               	movwf	__Umul8_16@multiplicand
  5122     05E6  0825               	movf	___flmul@a+1,w
  5123     05E7  120A  158A  2073  120A  118A  	fcall	__Umul8_16
  5124     05EC  0871               	movf	?__Umul8_16+1,w
  5125     05ED  1283               	bcf	3,5	;RP0=0, select bank0
  5126     05EE  1303               	bcf	3,6	;RP1=0, select bank0
  5127     05EF  00B4               	movwf	___flmul@temp+1
  5128     05F0  0870               	movf	?__Umul8_16,w
  5129     05F1  00B3               	movwf	___flmul@temp
  5130     05F2                     l2448:
  5131     05F2  0833               	movf	___flmul@temp,w
  5132     05F3  00F9               	movwf	??___flmul
  5133     05F4  0834               	movf	___flmul@temp+1,w
  5134     05F5  00FA               	movwf	??___flmul+1
  5135     05F6  01FB               	clrf	??___flmul+2
  5136     05F7  01FC               	clrf	??___flmul+3
  5137     05F8  0879               	movf	??___flmul,w
  5138     05F9  07A9               	addwf	___flmul@grs,f
  5139     05FA  087A               	movf	??___flmul+1,w
  5140     05FB  1103               	clrz
  5141     05FC  1803               	skipnc
  5142     05FD  3E01               	addlw	1
  5143     05FE  1903               	skipnz
  5144     05FF  2E01               	goto	u3301
  5145     0600  07AA               	addwf	___flmul@grs+1,f
  5146     0601                     u3301:
  5147     0601  087B               	movf	??___flmul+2,w
  5148     0602  1103               	clrz
  5149     0603  1803               	skipnc
  5150     0604  3E01               	addlw	1
  5151     0605  1903               	skipnz
  5152     0606  2E08               	goto	u3302
  5153     0607  07AB               	addwf	___flmul@grs+2,f
  5154     0608                     u3302:
  5155     0608  087C               	movf	??___flmul+3,w
  5156     0609  1103               	clrz
  5157     060A  1803               	skipnc
  5158     060B  3E01               	addlw	1
  5159     060C  1903               	skipnz
  5160     060D  2E0F               	goto	u3303
  5161     060E  07AC               	addwf	___flmul@grs+3,f
  5162     060F                     u3303:
  5163     060F                     l2450:
  5164     060F  3008               	movlw	8
  5165     0610  00F9               	movwf	??___flmul
  5166     0611                     u3315:
  5167     0611  1003               	clrc
  5168     0612  0DA9               	rlf	___flmul@grs,f
  5169     0613  0DAA               	rlf	___flmul@grs+1,f
  5170     0614  0DAB               	rlf	___flmul@grs+2,f
  5171     0615  0DAC               	rlf	___flmul@grs+3,f
  5172     0616  0BF9               	decfsz	??___flmul,f
  5173     0617  2E11               	goto	u3315
  5174     0618  0820               	movf	___flmul@b,w
  5175     0619  00F0               	movwf	__Umul8_16@multiplicand
  5176     061A  0824               	movf	___flmul@a,w
  5177     061B  120A  158A  2073  120A  118A  	fcall	__Umul8_16
  5178     0620  0871               	movf	?__Umul8_16+1,w
  5179     0621  1283               	bcf	3,5	;RP0=0, select bank0
  5180     0622  1303               	bcf	3,6	;RP1=0, select bank0
  5181     0623  00B4               	movwf	___flmul@temp+1
  5182     0624  0870               	movf	?__Umul8_16,w
  5183     0625  00B3               	movwf	___flmul@temp
  5184     0626                     l2452:
  5185     0626  0833               	movf	___flmul@temp,w
  5186     0627  00F9               	movwf	??___flmul
  5187     0628  0834               	movf	___flmul@temp+1,w
  5188     0629  00FA               	movwf	??___flmul+1
  5189     062A  01FB               	clrf	??___flmul+2
  5190     062B  01FC               	clrf	??___flmul+3
  5191     062C  0879               	movf	??___flmul,w
  5192     062D  07A9               	addwf	___flmul@grs,f
  5193     062E  087A               	movf	??___flmul+1,w
  5194     062F  1103               	clrz
  5195     0630  1803               	skipnc
  5196     0631  3E01               	addlw	1
  5197     0632  1903               	skipnz
  5198     0633  2E35               	goto	u3321
  5199     0634  07AA               	addwf	___flmul@grs+1,f
  5200     0635                     u3321:
  5201     0635  087B               	movf	??___flmul+2,w
  5202     0636  1103               	clrz
  5203     0637  1803               	skipnc
  5204     0638  3E01               	addlw	1
  5205     0639  1903               	skipnz
  5206     063A  2E3C               	goto	u3322
  5207     063B  07AB               	addwf	___flmul@grs+2,f
  5208     063C                     u3322:
  5209     063C  087C               	movf	??___flmul+3,w
  5210     063D  1103               	clrz
  5211     063E  1803               	skipnc
  5212     063F  3E01               	addlw	1
  5213     0640  1903               	skipnz
  5214     0641  2E43               	goto	u3323
  5215     0642  07AC               	addwf	___flmul@grs+3,f
  5216     0643                     u3323:
  5217     0643                     l2454:
  5218     0643  0821               	movf	___flmul@b+1,w
  5219     0644  00F0               	movwf	__Umul8_16@multiplicand
  5220     0645  0826               	movf	___flmul@a+2,w
  5221     0646  120A  158A  2073  120A  118A  	fcall	__Umul8_16
  5222     064B  0871               	movf	?__Umul8_16+1,w
  5223     064C  1283               	bcf	3,5	;RP0=0, select bank0
  5224     064D  1303               	bcf	3,6	;RP1=0, select bank0
  5225     064E  00B4               	movwf	___flmul@temp+1
  5226     064F  0870               	movf	?__Umul8_16,w
  5227     0650  00B3               	movwf	___flmul@temp
  5228     0651  0833               	movf	___flmul@temp,w
  5229     0652  00F9               	movwf	??___flmul
  5230     0653  0834               	movf	___flmul@temp+1,w
  5231     0654  00FA               	movwf	??___flmul+1
  5232     0655  01FB               	clrf	??___flmul+2
  5233     0656  01FC               	clrf	??___flmul+3
  5234     0657  0879               	movf	??___flmul,w
  5235     0658  07AF               	addwf	___flmul@prod,f
  5236     0659  087A               	movf	??___flmul+1,w
  5237     065A  1103               	clrz
  5238     065B  1803               	skipnc
  5239     065C  3E01               	addlw	1
  5240     065D  1903               	skipnz
  5241     065E  2E60               	goto	u3331
  5242     065F  07B0               	addwf	___flmul@prod+1,f
  5243     0660                     u3331:
  5244     0660  087B               	movf	??___flmul+2,w
  5245     0661  1103               	clrz
  5246     0662  1803               	skipnc
  5247     0663  3E01               	addlw	1
  5248     0664  1903               	skipnz
  5249     0665  2E67               	goto	u3332
  5250     0666  07B1               	addwf	___flmul@prod+2,f
  5251     0667                     u3332:
  5252     0667  087C               	movf	??___flmul+3,w
  5253     0668  1103               	clrz
  5254     0669  1803               	skipnc
  5255     066A  3E01               	addlw	1
  5256     066B  1903               	skipnz
  5257     066C  2E6E               	goto	u3333
  5258     066D  07B2               	addwf	___flmul@prod+3,f
  5259     066E                     u3333:
  5260     066E                     l2456:
  5261     066E  0822               	movf	___flmul@b+2,w
  5262     066F  00F0               	movwf	__Umul8_16@multiplicand
  5263     0670  0825               	movf	___flmul@a+1,w
  5264     0671  120A  158A  2073  120A  118A  	fcall	__Umul8_16
  5265     0676  0871               	movf	?__Umul8_16+1,w
  5266     0677  1283               	bcf	3,5	;RP0=0, select bank0
  5267     0678  1303               	bcf	3,6	;RP1=0, select bank0
  5268     0679  00B4               	movwf	___flmul@temp+1
  5269     067A  0870               	movf	?__Umul8_16,w
  5270     067B  00B3               	movwf	___flmul@temp
  5271     067C                     l2458:
  5272     067C  0833               	movf	___flmul@temp,w
  5273     067D  00F9               	movwf	??___flmul
  5274     067E  0834               	movf	___flmul@temp+1,w
  5275     067F  00FA               	movwf	??___flmul+1
  5276     0680  01FB               	clrf	??___flmul+2
  5277     0681  01FC               	clrf	??___flmul+3
  5278     0682  0879               	movf	??___flmul,w
  5279     0683  07AF               	addwf	___flmul@prod,f
  5280     0684  087A               	movf	??___flmul+1,w
  5281     0685  1103               	clrz
  5282     0686  1803               	skipnc
  5283     0687  3E01               	addlw	1
  5284     0688  1903               	skipnz
  5285     0689  2E8B               	goto	u3341
  5286     068A  07B0               	addwf	___flmul@prod+1,f
  5287     068B                     u3341:
  5288     068B  087B               	movf	??___flmul+2,w
  5289     068C  1103               	clrz
  5290     068D  1803               	skipnc
  5291     068E  3E01               	addlw	1
  5292     068F  1903               	skipnz
  5293     0690  2E92               	goto	u3342
  5294     0691  07B1               	addwf	___flmul@prod+2,f
  5295     0692                     u3342:
  5296     0692  087C               	movf	??___flmul+3,w
  5297     0693  1103               	clrz
  5298     0694  1803               	skipnc
  5299     0695  3E01               	addlw	1
  5300     0696  1903               	skipnz
  5301     0697  2E99               	goto	u3343
  5302     0698  07B2               	addwf	___flmul@prod+3,f
  5303     0699                     u3343:
  5304     0699  0822               	movf	___flmul@b+2,w
  5305     069A  00F0               	movwf	__Umul8_16@multiplicand
  5306     069B  0826               	movf	___flmul@a+2,w
  5307     069C  120A  158A  2073  120A  118A  	fcall	__Umul8_16
  5308     06A1  0871               	movf	?__Umul8_16+1,w
  5309     06A2  1283               	bcf	3,5	;RP0=0, select bank0
  5310     06A3  1303               	bcf	3,6	;RP1=0, select bank0
  5311     06A4  00B4               	movwf	___flmul@temp+1
  5312     06A5  0870               	movf	?__Umul8_16,w
  5313     06A6  00B3               	movwf	___flmul@temp
  5314     06A7                     l2460:
  5315     06A7  0833               	movf	___flmul@temp,w
  5316     06A8  00F9               	movwf	??___flmul
  5317     06A9  0834               	movf	___flmul@temp+1,w
  5318     06AA  00FA               	movwf	??___flmul+1
  5319     06AB  01FB               	clrf	??___flmul+2
  5320     06AC  01FC               	clrf	??___flmul+3
  5321     06AD  3008               	movlw	8
  5322     06AE                     u3355:
  5323     06AE  1003               	clrc
  5324     06AF  0DF9               	rlf	??___flmul,f
  5325     06B0  0DFA               	rlf	??___flmul+1,f
  5326     06B1  0DFB               	rlf	??___flmul+2,f
  5327     06B2  0DFC               	rlf	??___flmul+3,f
  5328     06B3                     u3350:
  5329     06B3  3EFF               	addlw	-1
  5330     06B4  1D03               	skipz
  5331     06B5  2EAE               	goto	u3355
  5332     06B6  0879               	movf	??___flmul,w
  5333     06B7  07AF               	addwf	___flmul@prod,f
  5334     06B8  087A               	movf	??___flmul+1,w
  5335     06B9  1103               	clrz
  5336     06BA  1803               	skipnc
  5337     06BB  3E01               	addlw	1
  5338     06BC  1903               	skipnz
  5339     06BD  2EBF               	goto	u3361
  5340     06BE  07B0               	addwf	___flmul@prod+1,f
  5341     06BF                     u3361:
  5342     06BF  087B               	movf	??___flmul+2,w
  5343     06C0  1103               	clrz
  5344     06C1  1803               	skipnc
  5345     06C2  3E01               	addlw	1
  5346     06C3  1903               	skipnz
  5347     06C4  2EC6               	goto	u3362
  5348     06C5  07B1               	addwf	___flmul@prod+2,f
  5349     06C6                     u3362:
  5350     06C6  087C               	movf	??___flmul+3,w
  5351     06C7  1103               	clrz
  5352     06C8  1803               	skipnc
  5353     06C9  3E01               	addlw	1
  5354     06CA  1903               	skipnz
  5355     06CB  2ECD               	goto	u3363
  5356     06CC  07B2               	addwf	___flmul@prod+3,f
  5357     06CD                     u3363:
  5358     06CD                     l2462:
  5359     06CD  0829               	movf	___flmul@grs,w
  5360     06CE  00F9               	movwf	??___flmul
  5361     06CF  082A               	movf	___flmul@grs+1,w
  5362     06D0  00FA               	movwf	??___flmul+1
  5363     06D1  082B               	movf	___flmul@grs+2,w
  5364     06D2  00FB               	movwf	??___flmul+2
  5365     06D3  082C               	movf	___flmul@grs+3,w
  5366     06D4  00FC               	movwf	??___flmul+3
  5367     06D5  3018               	movlw	24
  5368     06D6                     u3375:
  5369     06D6  1003               	clrc
  5370     06D7  0CFC               	rrf	??___flmul+3,f
  5371     06D8  0CFB               	rrf	??___flmul+2,f
  5372     06D9  0CFA               	rrf	??___flmul+1,f
  5373     06DA  0CF9               	rrf	??___flmul,f
  5374     06DB                     u3370:
  5375     06DB  3EFF               	addlw	-1
  5376     06DC  1D03               	skipz
  5377     06DD  2ED6               	goto	u3375
  5378     06DE  0879               	movf	??___flmul,w
  5379     06DF  07AF               	addwf	___flmul@prod,f
  5380     06E0  087A               	movf	??___flmul+1,w
  5381     06E1  1103               	clrz
  5382     06E2  1803               	skipnc
  5383     06E3  3E01               	addlw	1
  5384     06E4  1903               	skipnz
  5385     06E5  2EE7               	goto	u3381
  5386     06E6  07B0               	addwf	___flmul@prod+1,f
  5387     06E7                     u3381:
  5388     06E7  087B               	movf	??___flmul+2,w
  5389     06E8  1103               	clrz
  5390     06E9  1803               	skipnc
  5391     06EA  3E01               	addlw	1
  5392     06EB  1903               	skipnz
  5393     06EC  2EEE               	goto	u3382
  5394     06ED  07B1               	addwf	___flmul@prod+2,f
  5395     06EE                     u3382:
  5396     06EE  087C               	movf	??___flmul+3,w
  5397     06EF  1103               	clrz
  5398     06F0  1803               	skipnc
  5399     06F1  3E01               	addlw	1
  5400     06F2  1903               	skipnz
  5401     06F3  2EF5               	goto	u3383
  5402     06F4  07B2               	addwf	___flmul@prod+3,f
  5403     06F5                     u3383:
  5404     06F5                     l2464:
  5405     06F5  3008               	movlw	8
  5406     06F6  00F9               	movwf	??___flmul
  5407     06F7                     u3395:
  5408     06F7  1003               	clrc
  5409     06F8  0DA9               	rlf	___flmul@grs,f
  5410     06F9  0DAA               	rlf	___flmul@grs+1,f
  5411     06FA  0DAB               	rlf	___flmul@grs+2,f
  5412     06FB  0DAC               	rlf	___flmul@grs+3,f
  5413     06FC  0BF9               	decfsz	??___flmul,f
  5414     06FD  2EF7               	goto	u3395
  5415     06FE                     l2466:
  5416     06FE  082E               	movf	___flmul@bexp,w
  5417     06FF  072D               	addwf	___flmul@aexp,w
  5418     0700  00F9               	movwf	??___flmul
  5419     0701  01FA               	clrf	??___flmul+1
  5420     0702  0DFA               	rlf	??___flmul+1,f
  5421     0703  0879               	movf	??___flmul,w
  5422     0704  3E82               	addlw	130
  5423     0705  00B3               	movwf	___flmul@temp
  5424     0706  087A               	movf	??___flmul+1,w
  5425     0707  1803               	skipnc
  5426     0708  3E01               	addlw	1
  5427     0709  3EFF               	addlw	255
  5428     070A  00B4               	movwf	___flmul@temp+1
  5429     070B  2F29               	goto	l2478
  5430     070C                     l2468:
  5431     070C  3001               	movlw	1
  5432     070D  00F9               	movwf	??___flmul
  5433     070E                     u3405:
  5434     070E  1003               	clrc
  5435     070F  0DAF               	rlf	___flmul@prod,f
  5436     0710  0DB0               	rlf	___flmul@prod+1,f
  5437     0711  0DB1               	rlf	___flmul@prod+2,f
  5438     0712  0DB2               	rlf	___flmul@prod+3,f
  5439     0713  0BF9               	decfsz	??___flmul,f
  5440     0714  2F0E               	goto	u3405
  5441     0715                     l2470:
  5442     0715  1FAC               	btfss	___flmul@grs+3,7
  5443     0716  2F18               	goto	u3411
  5444     0717  2F19               	goto	u3410
  5445     0718                     u3411:
  5446     0718  2F1A               	goto	l2474
  5447     0719                     u3410:
  5448     0719                     l2472:
  5449     0719  142F               	bsf	___flmul@prod,0
  5450     071A                     l2474:
  5451     071A  3001               	movlw	1
  5452     071B  00F9               	movwf	??___flmul
  5453     071C                     u3425:
  5454     071C  1003               	clrc
  5455     071D  0DA9               	rlf	___flmul@grs,f
  5456     071E  0DAA               	rlf	___flmul@grs+1,f
  5457     071F  0DAB               	rlf	___flmul@grs+2,f
  5458     0720  0DAC               	rlf	___flmul@grs+3,f
  5459     0721  0BF9               	decfsz	??___flmul,f
  5460     0722  2F1C               	goto	u3425
  5461     0723                     l2476:
  5462     0723  30FF               	movlw	255
  5463     0724  07B3               	addwf	___flmul@temp,f
  5464     0725  1803               	skipnc
  5465     0726  0AB4               	incf	___flmul@temp+1,f
  5466     0727  30FF               	movlw	255
  5467     0728  07B4               	addwf	___flmul@temp+1,f
  5468     0729                     l2478:
  5469     0729  1FB1               	btfss	___flmul@prod+2,7
  5470     072A  2F2C               	goto	u3431
  5471     072B  2F2D               	goto	u3430
  5472     072C                     u3431:
  5473     072C  2F0C               	goto	l2468
  5474     072D                     u3430:
  5475     072D                     l2480:
  5476     072D  01AD               	clrf	___flmul@aexp
  5477     072E                     l2482:
  5478     072E  1FAC               	btfss	___flmul@grs+3,7
  5479     072F  2F31               	goto	u3441
  5480     0730  2F32               	goto	u3440
  5481     0731                     u3441:
  5482     0731  2F4E               	goto	l2490
  5483     0732                     u3440:
  5484     0732                     l2484:
  5485     0732  30FF               	movlw	255
  5486     0733  0529               	andwf	___flmul@grs,w
  5487     0734  00F9               	movwf	??___flmul
  5488     0735  30FF               	movlw	255
  5489     0736  052A               	andwf	___flmul@grs+1,w
  5490     0737  00FA               	movwf	??___flmul+1
  5491     0738  30FF               	movlw	255
  5492     0739  052B               	andwf	___flmul@grs+2,w
  5493     073A  00FB               	movwf	??___flmul+2
  5494     073B  307F               	movlw	127
  5495     073C  052C               	andwf	___flmul@grs+3,w
  5496     073D  00FC               	movwf	??___flmul+3
  5497     073E  087C               	movf	??___flmul+3,w
  5498     073F  047B               	iorwf	??___flmul+2,w
  5499     0740  047A               	iorwf	??___flmul+1,w
  5500     0741  0479               	iorwf	??___flmul,w
  5501     0742  1903               	skipnz
  5502     0743  2F45               	goto	u3451
  5503     0744  2F46               	goto	u3450
  5504     0745                     u3451:
  5505     0745  2F49               	goto	l703
  5506     0746                     u3450:
  5507     0746                     l2486:
  5508     0746  01AD               	clrf	___flmul@aexp
  5509     0747  0AAD               	incf	___flmul@aexp,f
  5510     0748  2F4E               	goto	l2490
  5511     0749                     l703:
  5512     0749  1C2F               	btfss	___flmul@prod,0
  5513     074A  2F4C               	goto	u3461
  5514     074B  2F4D               	goto	u3460
  5515     074C                     u3461:
  5516     074C  2F4E               	goto	l2490
  5517     074D                     u3460:
  5518     074D  2F46               	goto	l2486
  5519     074E                     l2490:
  5520     074E  082D               	movf	___flmul@aexp,w
  5521     074F  1903               	btfsc	3,2
  5522     0750  2F52               	goto	u3471
  5523     0751  2F53               	goto	u3470
  5524     0752                     u3471:
  5525     0752  2F84               	goto	l2500
  5526     0753                     u3470:
  5527     0753                     l2492:
  5528     0753  3001               	movlw	1
  5529     0754  07AF               	addwf	___flmul@prod,f
  5530     0755  3000               	movlw	0
  5531     0756  1803               	skipnc
  5532     0757  3001               	movlw	1
  5533     0758  07B0               	addwf	___flmul@prod+1,f
  5534     0759  3000               	movlw	0
  5535     075A  1803               	skipnc
  5536     075B  3001               	movlw	1
  5537     075C  07B1               	addwf	___flmul@prod+2,f
  5538     075D  3000               	movlw	0
  5539     075E  1803               	skipnc
  5540     075F  3001               	movlw	1
  5541     0760  07B2               	addwf	___flmul@prod+3,f
  5542     0761                     l2494:
  5543     0761  1C32               	btfss	___flmul@prod+3,0
  5544     0762  2F64               	goto	u3481
  5545     0763  2F65               	goto	u3480
  5546     0764                     u3481:
  5547     0764  2F84               	goto	l2500
  5548     0765                     u3480:
  5549     0765                     l2496:
  5550     0765  082F               	movf	___flmul@prod,w
  5551     0766  00F9               	movwf	??___flmul
  5552     0767  0830               	movf	___flmul@prod+1,w
  5553     0768  00FA               	movwf	??___flmul+1
  5554     0769  0831               	movf	___flmul@prod+2,w
  5555     076A  00FB               	movwf	??___flmul+2
  5556     076B  0832               	movf	___flmul@prod+3,w
  5557     076C  00FC               	movwf	??___flmul+3
  5558     076D  3001               	movlw	1
  5559     076E  00FD               	movwf	??___flmul+4
  5560     076F                     u3495:
  5561     076F  0D7C               	rlf	??___flmul+3,w
  5562     0770  0CFC               	rrf	??___flmul+3,f
  5563     0771  0CFB               	rrf	??___flmul+2,f
  5564     0772  0CFA               	rrf	??___flmul+1,f
  5565     0773  0CF9               	rrf	??___flmul,f
  5566     0774                     u3490:
  5567     0774  0BFD               	decfsz	??___flmul+4,f
  5568     0775  2F6F               	goto	u3495
  5569     0776  087C               	movf	??___flmul+3,w
  5570     0777  00B2               	movwf	___flmul@prod+3
  5571     0778  087B               	movf	??___flmul+2,w
  5572     0779  00B1               	movwf	___flmul@prod+2
  5573     077A  087A               	movf	??___flmul+1,w
  5574     077B  00B0               	movwf	___flmul@prod+1
  5575     077C  0879               	movf	??___flmul,w
  5576     077D  00AF               	movwf	___flmul@prod
  5577     077E                     l2498:
  5578     077E  3001               	movlw	1
  5579     077F  07B3               	addwf	___flmul@temp,f
  5580     0780  1803               	skipnc
  5581     0781  0AB4               	incf	___flmul@temp+1,f
  5582     0782  3000               	movlw	0
  5583     0783  07B4               	addwf	___flmul@temp+1,f
  5584     0784                     l2500:
  5585     0784  0834               	movf	___flmul@temp+1,w
  5586     0785  3A80               	xorlw	128
  5587     0786  00FF               	movwf	btemp+1
  5588     0787  3080               	movlw	128
  5589     0788  027F               	subwf	btemp+1,w
  5590     0789  1D03               	skipz
  5591     078A  2F8D               	goto	u3505
  5592     078B  30FF               	movlw	255
  5593     078C  0233               	subwf	___flmul@temp,w
  5594     078D                     u3505:
  5595     078D  1C03               	skipc
  5596     078E  2F90               	goto	u3501
  5597     078F  2F91               	goto	u3500
  5598     0790                     u3501:
  5599     0790  2F9C               	goto	l2504
  5600     0791                     u3500:
  5601     0791                     l2502:
  5602     0791  307F               	movlw	127
  5603     0792  1283               	bcf	3,5	;RP0=0, select bank0
  5604     0793  1303               	bcf	3,6	;RP1=0, select bank0
  5605     0794  00B2               	movwf	___flmul@prod+3
  5606     0795  3080               	movlw	128
  5607     0796  00B1               	movwf	___flmul@prod+2
  5608     0797  3000               	movlw	0
  5609     0798  00B0               	movwf	___flmul@prod+1
  5610     0799  3000               	movlw	0
  5611     079A  00AF               	movwf	___flmul@prod
  5612     079B  2FCD               	goto	l2518
  5613     079C                     l2504:
  5614     079C  1283               	bcf	3,5	;RP0=0, select bank0
  5615     079D  1303               	bcf	3,6	;RP1=0, select bank0
  5616     079E  0834               	movf	___flmul@temp+1,w
  5617     079F  3A80               	xorlw	128
  5618     07A0  00FF               	movwf	btemp+1
  5619     07A1  3080               	movlw	128
  5620     07A2  027F               	subwf	btemp+1,w
  5621     07A3  1D03               	skipz
  5622     07A4  2FA7               	goto	u3515
  5623     07A5  3001               	movlw	1
  5624     07A6  0233               	subwf	___flmul@temp,w
  5625     07A7                     u3515:
  5626     07A7  1803               	skipnc
  5627     07A8  2FAA               	goto	u3511
  5628     07A9  2FAB               	goto	u3510
  5629     07AA                     u3511:
  5630     07AA  2FB7               	goto	l2510
  5631     07AB                     u3510:
  5632     07AB                     l2506:
  5633     07AB  3000               	movlw	0
  5634     07AC  1283               	bcf	3,5	;RP0=0, select bank0
  5635     07AD  1303               	bcf	3,6	;RP1=0, select bank0
  5636     07AE  00B2               	movwf	___flmul@prod+3
  5637     07AF  3000               	movlw	0
  5638     07B0  00B1               	movwf	___flmul@prod+2
  5639     07B1  3000               	movlw	0
  5640     07B2  00B0               	movwf	___flmul@prod+1
  5641     07B3  3000               	movlw	0
  5642     07B4  00AF               	movwf	___flmul@prod
  5643     07B5                     l2508:
  5644     07B5  01A8               	clrf	___flmul@sign
  5645     07B6  2FCD               	goto	l2518
  5646     07B7                     l2510:
  5647     07B7  1283               	bcf	3,5	;RP0=0, select bank0
  5648     07B8  1303               	bcf	3,6	;RP1=0, select bank0
  5649     07B9  0833               	movf	___flmul@temp,w
  5650     07BA  00AE               	movwf	___flmul@bexp
  5651     07BB  30FF               	movlw	255
  5652     07BC  05AF               	andwf	___flmul@prod,f
  5653     07BD  30FF               	movlw	255
  5654     07BE  05B0               	andwf	___flmul@prod+1,f
  5655     07BF  307F               	movlw	127
  5656     07C0  05B1               	andwf	___flmul@prod+2,f
  5657     07C1  3000               	movlw	0
  5658     07C2  05B2               	andwf	___flmul@prod+3,f
  5659     07C3                     l2512:
  5660     07C3  1C2E               	btfss	___flmul@bexp,0
  5661     07C4  2FC6               	goto	u3521
  5662     07C5  2FC7               	goto	u3520
  5663     07C6                     u3521:
  5664     07C6  2FC8               	goto	l2516
  5665     07C7                     u3520:
  5666     07C7                     l2514:
  5667     07C7  17B1               	bsf	___flmul@prod+2,7
  5668     07C8                     l2516:
  5669     07C8  082E               	movf	___flmul@bexp,w
  5670     07C9  00F9               	movwf	??___flmul
  5671     07CA  1003               	clrc
  5672     07CB  0C79               	rrf	??___flmul,w
  5673     07CC  00B2               	movwf	___flmul@prod+3
  5674     07CD                     l2518:
  5675     07CD  0828               	movf	___flmul@sign,w
  5676     07CE  00FF               	movwf	btemp+1
  5677     07CF  087F               	movf	btemp+1,w
  5678     07D0  04B2               	iorwf	___flmul@prod+3,f
  5679     07D1                     l2520:
  5680     07D1  0832               	movf	___flmul@prod+3,w
  5681     07D2  00A3               	movwf	?___flmul+3
  5682     07D3  0831               	movf	___flmul@prod+2,w
  5683     07D4  00A2               	movwf	?___flmul+2
  5684     07D5  0830               	movf	___flmul@prod+1,w
  5685     07D6  00A1               	movwf	?___flmul+1
  5686     07D7  082F               	movf	___flmul@prod,w
  5687     07D8  00A0               	movwf	?___flmul
  5688     07D9                     l697:
  5689     07D9  0008               	return
  5690     07DA                     __end_of___flmul:
  5691                           
  5692                           	psect	text16
  5693     0873                     __ptext16:	
  5694 ;; *************** function __Umul8_16 *****************
  5695 ;; Defined at:
  5696 ;;		line 4 in file "C:\Program Files\Microchip\xc8\v2.46\pic\sources\c99\common\Umul8_16.c"
  5697 ;; Parameters:    Size  Location     Type
  5698 ;;  multiplier      1    wreg     unsigned char 
  5699 ;;  multiplicand    1    0[COMMON] unsigned char 
  5700 ;; Auto vars:     Size  Location     Type
  5701 ;;  multiplier      1    8[COMMON] unsigned char 
  5702 ;;  word_mpld       2    6[COMMON] unsigned short 
  5703 ;;  product         2    4[COMMON] unsigned short 
  5704 ;; Return value:  Size  Location     Type
  5705 ;;                  2    0[COMMON] unsigned int 
  5706 ;; Registers used:
  5707 ;;		wreg, status,2, status,0
  5708 ;; Tracked objects:
  5709 ;;		On entry : 0/0
  5710 ;;		On exit  : 0/0
  5711 ;;		Unchanged: 0/0
  5712 ;; Data sizes:     COMMON   BANK0   BANK1   BANK3   BANK2
  5713 ;;      Params:         2       0       0       0       0
  5714 ;;      Locals:         5       0       0       0       0
  5715 ;;      Temps:          2       0       0       0       0
  5716 ;;      Totals:         9       0       0       0       0
  5717 ;;Total ram usage:        9 bytes
  5718 ;; Hardware stack levels used: 1
  5719 ;; This function calls:
  5720 ;;		Nothing
  5721 ;; This function is called by:
  5722 ;;		___flmul
  5723 ;; This function uses a non-reentrant model
  5724 ;;
  5725                           
  5726     0873                     __Umul8_16:	
  5727                           ;psect for function __Umul8_16
  5728                           
  5729                           
  5730                           ;incstack = 0
  5731                           ; Regs used in __Umul8_16: [wreg+status,2+status,0]
  5732                           ;__Umul8_16@multiplier stored from wreg
  5733     0873  00F8               	movwf	__Umul8_16@multiplier
  5734     0874                     l2084:
  5735     0874  01F4               	clrf	__Umul8_16@product
  5736     0875  01F5               	clrf	__Umul8_16@product+1
  5737     0876                     l2086:
  5738     0876  0870               	movf	__Umul8_16@multiplicand,w
  5739     0877  00F2               	movwf	??__Umul8_16
  5740     0878  01F3               	clrf	??__Umul8_16+1
  5741     0879  0872               	movf	??__Umul8_16,w
  5742     087A  00F6               	movwf	__Umul8_16@word_mpld
  5743     087B  0873               	movf	??__Umul8_16+1,w
  5744     087C  00F7               	movwf	__Umul8_16@word_mpld+1
  5745     087D                     l2088:
  5746     087D  1C78               	btfss	__Umul8_16@multiplier,0
  5747     087E  2880               	goto	u2561
  5748     087F  2881               	goto	u2560
  5749     0880                     u2561:
  5750     0880  2887               	goto	l716
  5751     0881                     u2560:
  5752     0881                     l2090:
  5753     0881  0876               	movf	__Umul8_16@word_mpld,w
  5754     0882  07F4               	addwf	__Umul8_16@product,f
  5755     0883  1803               	skipnc
  5756     0884  0AF5               	incf	__Umul8_16@product+1,f
  5757     0885  0877               	movf	__Umul8_16@word_mpld+1,w
  5758     0886  07F5               	addwf	__Umul8_16@product+1,f
  5759     0887                     l716:
  5760     0887  3001               	movlw	1
  5761     0888                     u2575:
  5762     0888  1003               	clrc
  5763     0889  0DF6               	rlf	__Umul8_16@word_mpld,f
  5764     088A  0DF7               	rlf	__Umul8_16@word_mpld+1,f
  5765     088B  3EFF               	addlw	-1
  5766     088C  1D03               	skipz
  5767     088D  2888               	goto	u2575
  5768     088E  1003               	clrc
  5769     088F  0CF8               	rrf	__Umul8_16@multiplier,f
  5770     0890                     l2092:
  5771     0890  0878               	movf	__Umul8_16@multiplier,w
  5772     0891  1D03               	btfss	3,2
  5773     0892  2894               	goto	u2581
  5774     0893  2895               	goto	u2580
  5775     0894                     u2581:
  5776     0894  287D               	goto	l2088
  5777     0895                     u2580:
  5778     0895                     l2094:
  5779     0895  0875               	movf	__Umul8_16@product+1,w
  5780     0896  00F1               	movwf	?__Umul8_16+1
  5781     0897  0874               	movf	__Umul8_16@product,w
  5782     0898  00F0               	movwf	?__Umul8_16
  5783     0899                     l718:
  5784     0899  0008               	return
  5785     089A                     __end_of__Umul8_16:
  5786                           
  5787                           	psect	text17
  5788     0B09                     __ptext17:	
  5789 ;; *************** function ___flge *****************
  5790 ;; Defined at:
  5791 ;;		line 4 in file "C:\Program Files\Microchip\xc8\v2.46\pic\sources\c99\common\flge.c"
  5792 ;; Parameters:    Size  Location     Type
  5793 ;;  ff1             4    0[COMMON] unsigned int 
  5794 ;;  ff2             4    4[COMMON] unsigned int 
  5795 ;; Auto vars:     Size  Location     Type
  5796 ;;		None
  5797 ;; Return value:  Size  Location     Type
  5798 ;;		None               void
  5799 ;; Registers used:
  5800 ;;		wreg, status,2, status,0
  5801 ;; Tracked objects:
  5802 ;;		On entry : 0/0
  5803 ;;		On exit  : 0/0
  5804 ;;		Unchanged: 0/0
  5805 ;; Data sizes:     COMMON   BANK0   BANK1   BANK3   BANK2
  5806 ;;      Params:         8       0       0       0       0
  5807 ;;      Locals:         0       0       0       0       0
  5808 ;;      Temps:          4       0       0       0       0
  5809 ;;      Totals:        12       0       0       0       0
  5810 ;;Total ram usage:       12 bytes
  5811 ;; Hardware stack levels used: 1
  5812 ;; This function calls:
  5813 ;;		Nothing
  5814 ;; This function is called by:
  5815 ;;		_LCD_Float
  5816 ;; This function uses a non-reentrant model
  5817 ;;
  5818                           
  5819     0B09                     ___flge:	
  5820                           ;psect for function ___flge
  5821                           
  5822     0B09                     l2164:	
  5823                           ;incstack = 0
  5824                           ; Regs used in ___flge: [wreg+status,2+status,0]
  5825                           
  5826     0B09  3000               	movlw	0
  5827     0B0A  0570               	andwf	___flge@ff1,w
  5828     0B0B  00F8               	movwf	??___flge
  5829     0B0C  3000               	movlw	0
  5830     0B0D  0571               	andwf	___flge@ff1+1,w
  5831     0B0E  00F9               	movwf	??___flge+1
  5832     0B0F  3080               	movlw	128
  5833     0B10  0572               	andwf	___flge@ff1+2,w
  5834     0B11  00FA               	movwf	??___flge+2
  5835     0B12  307F               	movlw	127
  5836     0B13  0573               	andwf	___flge@ff1+3,w
  5837     0B14  00FB               	movwf	??___flge+3
  5838     0B15  087B               	movf	??___flge+3,w
  5839     0B16  047A               	iorwf	??___flge+2,w
  5840     0B17  0479               	iorwf	??___flge+1,w
  5841     0B18  0478               	iorwf	??___flge,w
  5842     0B19  1D03               	skipz
  5843     0B1A  2B1C               	goto	u2691
  5844     0B1B  2B1D               	goto	u2690
  5845     0B1C                     u2691:
  5846     0B1C  2B25               	goto	l478
  5847     0B1D                     u2690:
  5848     0B1D                     l2166:
  5849     0B1D  3000               	movlw	0
  5850     0B1E  00F3               	movwf	___flge@ff1+3
  5851     0B1F  3000               	movlw	0
  5852     0B20  00F2               	movwf	___flge@ff1+2
  5853     0B21  3000               	movlw	0
  5854     0B22  00F1               	movwf	___flge@ff1+1
  5855     0B23  3000               	movlw	0
  5856     0B24  00F0               	movwf	___flge@ff1
  5857     0B25                     l478:
  5858     0B25  3000               	movlw	0
  5859     0B26  0574               	andwf	___flge@ff2,w
  5860     0B27  00F8               	movwf	??___flge
  5861     0B28  3000               	movlw	0
  5862     0B29  0575               	andwf	___flge@ff2+1,w
  5863     0B2A  00F9               	movwf	??___flge+1
  5864     0B2B  3080               	movlw	128
  5865     0B2C  0576               	andwf	___flge@ff2+2,w
  5866     0B2D  00FA               	movwf	??___flge+2
  5867     0B2E  307F               	movlw	127
  5868     0B2F  0577               	andwf	___flge@ff2+3,w
  5869     0B30  00FB               	movwf	??___flge+3
  5870     0B31  087B               	movf	??___flge+3,w
  5871     0B32  047A               	iorwf	??___flge+2,w
  5872     0B33  0479               	iorwf	??___flge+1,w
  5873     0B34  0478               	iorwf	??___flge,w
  5874     0B35  1D03               	skipz
  5875     0B36  2B38               	goto	u2701
  5876     0B37  2B39               	goto	u2700
  5877     0B38                     u2701:
  5878     0B38  2B41               	goto	l2170
  5879     0B39                     u2700:
  5880     0B39                     l2168:
  5881     0B39  3000               	movlw	0
  5882     0B3A  00F7               	movwf	___flge@ff2+3
  5883     0B3B  3000               	movlw	0
  5884     0B3C  00F6               	movwf	___flge@ff2+2
  5885     0B3D  3000               	movlw	0
  5886     0B3E  00F5               	movwf	___flge@ff2+1
  5887     0B3F  3000               	movlw	0
  5888     0B40  00F4               	movwf	___flge@ff2
  5889     0B41                     l2170:
  5890     0B41  1FF3               	btfss	___flge@ff1+3,7
  5891     0B42  2B44               	goto	u2711
  5892     0B43  2B45               	goto	u2710
  5893     0B44                     u2711:
  5894     0B44  2B69               	goto	l2174
  5895     0B45                     u2710:
  5896     0B45                     l2172:
  5897     0B45  3000               	movlw	0
  5898     0B46  00F8               	movwf	??___flge
  5899     0B47  3000               	movlw	0
  5900     0B48  00F9               	movwf	??___flge+1
  5901     0B49  3000               	movlw	0
  5902     0B4A  00FA               	movwf	??___flge+2
  5903     0B4B  3080               	movlw	128
  5904     0B4C  00FB               	movwf	??___flge+3
  5905     0B4D  0870               	movf	___flge@ff1,w
  5906     0B4E  02F8               	subwf	??___flge,f
  5907     0B4F  0871               	movf	___flge@ff1+1,w
  5908     0B50  1C03               	skipc
  5909     0B51  0F71               	incfsz	___flge@ff1+1,w
  5910     0B52  2B54               	goto	u2721
  5911     0B53  2B55               	goto	u2722
  5912     0B54                     u2721:
  5913     0B54  02F9               	subwf	??___flge+1,f
  5914     0B55                     u2722:
  5915     0B55  0872               	movf	___flge@ff1+2,w
  5916     0B56  1C03               	skipc
  5917     0B57  0F72               	incfsz	___flge@ff1+2,w
  5918     0B58  2B5A               	goto	u2723
  5919     0B59  2B5B               	goto	u2724
  5920     0B5A                     u2723:
  5921     0B5A  02FA               	subwf	??___flge+2,f
  5922     0B5B                     u2724:
  5923     0B5B  0873               	movf	___flge@ff1+3,w
  5924     0B5C  1C03               	skipc
  5925     0B5D  0F73               	incfsz	___flge@ff1+3,w
  5926     0B5E  2B60               	goto	u2725
  5927     0B5F  2B61               	goto	u2726
  5928     0B60                     u2725:
  5929     0B60  02FB               	subwf	??___flge+3,f
  5930     0B61                     u2726:
  5931     0B61  087B               	movf	??___flge+3,w
  5932     0B62  00F3               	movwf	___flge@ff1+3
  5933     0B63  087A               	movf	??___flge+2,w
  5934     0B64  00F2               	movwf	___flge@ff1+2
  5935     0B65  0879               	movf	??___flge+1,w
  5936     0B66  00F1               	movwf	___flge@ff1+1
  5937     0B67  0878               	movf	??___flge,w
  5938     0B68  00F0               	movwf	___flge@ff1
  5939     0B69                     l2174:
  5940     0B69  1FF7               	btfss	___flge@ff2+3,7
  5941     0B6A  2B6C               	goto	u2731
  5942     0B6B  2B6D               	goto	u2730
  5943     0B6C                     u2731:
  5944     0B6C  2B91               	goto	l481
  5945     0B6D                     u2730:
  5946     0B6D                     l2176:
  5947     0B6D  3000               	movlw	0
  5948     0B6E  00F8               	movwf	??___flge
  5949     0B6F  3000               	movlw	0
  5950     0B70  00F9               	movwf	??___flge+1
  5951     0B71  3000               	movlw	0
  5952     0B72  00FA               	movwf	??___flge+2
  5953     0B73  3080               	movlw	128
  5954     0B74  00FB               	movwf	??___flge+3
  5955     0B75  0874               	movf	___flge@ff2,w
  5956     0B76  02F8               	subwf	??___flge,f
  5957     0B77  0875               	movf	___flge@ff2+1,w
  5958     0B78  1C03               	skipc
  5959     0B79  0F75               	incfsz	___flge@ff2+1,w
  5960     0B7A  2B7C               	goto	u2741
  5961     0B7B  2B7D               	goto	u2742
  5962     0B7C                     u2741:
  5963     0B7C  02F9               	subwf	??___flge+1,f
  5964     0B7D                     u2742:
  5965     0B7D  0876               	movf	___flge@ff2+2,w
  5966     0B7E  1C03               	skipc
  5967     0B7F  0F76               	incfsz	___flge@ff2+2,w
  5968     0B80  2B82               	goto	u2743
  5969     0B81  2B83               	goto	u2744
  5970     0B82                     u2743:
  5971     0B82  02FA               	subwf	??___flge+2,f
  5972     0B83                     u2744:
  5973     0B83  0877               	movf	___flge@ff2+3,w
  5974     0B84  1C03               	skipc
  5975     0B85  0F77               	incfsz	___flge@ff2+3,w
  5976     0B86  2B88               	goto	u2745
  5977     0B87  2B89               	goto	u2746
  5978     0B88                     u2745:
  5979     0B88  02FB               	subwf	??___flge+3,f
  5980     0B89                     u2746:
  5981     0B89  087B               	movf	??___flge+3,w
  5982     0B8A  00F7               	movwf	___flge@ff2+3
  5983     0B8B  087A               	movf	??___flge+2,w
  5984     0B8C  00F6               	movwf	___flge@ff2+2
  5985     0B8D  0879               	movf	??___flge+1,w
  5986     0B8E  00F5               	movwf	___flge@ff2+1
  5987     0B8F  0878               	movf	??___flge,w
  5988     0B90  00F4               	movwf	___flge@ff2
  5989     0B91                     l481:
  5990     0B91  3080               	movlw	128
  5991     0B92  06F3               	xorwf	___flge@ff1+3,f
  5992     0B93  3080               	movlw	128
  5993     0B94  06F7               	xorwf	___flge@ff2+3,f
  5994     0B95  0877               	movf	___flge@ff2+3,w
  5995     0B96  0273               	subwf	___flge@ff1+3,w
  5996     0B97  1D03               	skipz
  5997     0B98  2BA3               	goto	u2755
  5998     0B99  0876               	movf	___flge@ff2+2,w
  5999     0B9A  0272               	subwf	___flge@ff1+2,w
  6000     0B9B  1D03               	skipz
  6001     0B9C  2BA3               	goto	u2755
  6002     0B9D  0875               	movf	___flge@ff2+1,w
  6003     0B9E  0271               	subwf	___flge@ff1+1,w
  6004     0B9F  1D03               	skipz
  6005     0BA0  2BA3               	goto	u2755
  6006     0BA1  0874               	movf	___flge@ff2,w
  6007     0BA2  0270               	subwf	___flge@ff1,w
  6008     0BA3                     u2755:
  6009     0BA3  1803               	skipnc
  6010     0BA4  2BA6               	goto	u2751
  6011     0BA5  2BA7               	goto	u2750
  6012     0BA6                     u2751:
  6013     0BA6  2BA9               	goto	l2180
  6014     0BA7                     u2750:
  6015     0BA7                     l2178:
  6016     0BA7  1003               	clrc
  6017     0BA8  2BAA               	goto	l486
  6018     0BA9                     l2180:
  6019     0BA9  1403               	setc
  6020     0BAA                     l486:
  6021     0BAA  0008               	return
  6022     0BAB                     __end_of___flge:
  6023                           
  6024                           	psect	text18
  6025     0BAB                     __ptext18:	
  6026 ;; *************** function _LCD_Int *****************
  6027 ;; Defined at:
  6028 ;;		line 148 in file "lcd_msd.c"
  6029 ;; Parameters:    Size  Location     Type
  6030 ;;  value           4   28[BANK0 ] unsigned long 
  6031 ;;  positions       1   32[BANK0 ] unsigned char 
  6032 ;;  zeros           1   33[BANK0 ] unsigned char 
  6033 ;; Auto vars:     Size  Location     Type
  6034 ;;  buf             8   36[BANK0 ] unsigned char [8]
  6035 ;;  i               2   44[BANK0 ] unsigned short 
  6036 ;; Return value:  Size  Location     Type
  6037 ;;                  1    wreg      void 
  6038 ;; Registers used:
  6039 ;;		wreg, fsr0l, fsr0h, status,2, status,0, btemp+1, pclath, cstack
  6040 ;; Tracked objects:
  6041 ;;		On entry : 0/0
  6042 ;;		On exit  : 0/0
  6043 ;;		Unchanged: 0/0
  6044 ;; Data sizes:     COMMON   BANK0   BANK1   BANK3   BANK2
  6045 ;;      Params:         0       6       0       0       0
  6046 ;;      Locals:         0      10       0       0       0
  6047 ;;      Temps:          0       2       0       0       0
  6048 ;;      Totals:         0      18       0       0       0
  6049 ;;Total ram usage:       18 bytes
  6050 ;; Hardware stack levels used: 1
  6051 ;; Hardware stack levels required when called: 2
  6052 ;; This function calls:
  6053 ;;		_LCD_Write
  6054 ;;		___lldiv
  6055 ;;		___llmod
  6056 ;; This function is called by:
  6057 ;;		_LCD_Float
  6058 ;; This function uses a non-reentrant model
  6059 ;;
  6060                           
  6061     0BAB                     _LCD_Int:	
  6062                           ;psect for function _LCD_Int
  6063                           
  6064     0BAB                     l2102:	
  6065                           ;incstack = 0
  6066                           ; Regs used in _LCD_Int: [wreg-fsr0h+status,2+status,0+btemp+1+pclath+cstack]
  6067                           
  6068                           
  6069                           ;lcd_msd.c: 148: void LCD_Int(uint32_t value, uint8_t positions, uint8_t zeros);lcd_msd.
      +                          c: 149: {;lcd_msd.c: 150:     uint16_t i;;lcd_msd.c: 151:     uint8_t buf[8];;lcd_msd.c:
      +                           153:     for (i = 0; i < positions; i++)
  6070     0BAB  1283               	bcf	3,5	;RP0=0, select bank0
  6071     0BAC  1303               	bcf	3,6	;RP1=0, select bank0
  6072     0BAD  01CC               	clrf	LCD_Int@i
  6073     0BAE  01CD               	clrf	LCD_Int@i+1
  6074     0BAF  2BFA               	goto	l2110
  6075     0BB0                     l2104:
  6076                           
  6077                           ;lcd_msd.c: 154:     {;lcd_msd.c: 155:         buf[positions - 1 - i] = (value % 10) + 0
      +                          x30;
  6078     0BB0  3044               	movlw	(low (LCD_Int@buf| 0))& (0+255)
  6079     0BB1  00C2               	movwf	??_LCD_Int
  6080     0BB2  084C               	movf	LCD_Int@i,w
  6081     0BB3  02C2               	subwf	??_LCD_Int,f
  6082     0BB4  0840               	movf	LCD_Int@positions,w
  6083     0BB5  0742               	addwf	??_LCD_Int,w
  6084     0BB6  00C3               	movwf	??_LCD_Int+1
  6085     0BB7  0843               	movf	??_LCD_Int+1,w
  6086     0BB8  3EFF               	addlw	255
  6087     0BB9  0084               	movwf	4
  6088     0BBA  3000               	movlw	0
  6089     0BBB  00F3               	movwf	___llmod@divisor+3
  6090     0BBC  3000               	movlw	0
  6091     0BBD  00F2               	movwf	___llmod@divisor+2
  6092     0BBE  3000               	movlw	0
  6093     0BBF  00F1               	movwf	___llmod@divisor+1
  6094     0BC0  300A               	movlw	10
  6095     0BC1  00F0               	movwf	___llmod@divisor
  6096     0BC2  083F               	movf	LCD_Int@value+3,w
  6097     0BC3  00F7               	movwf	___llmod@dividend+3
  6098     0BC4  083E               	movf	LCD_Int@value+2,w
  6099     0BC5  00F6               	movwf	___llmod@dividend+2
  6100     0BC6  083D               	movf	LCD_Int@value+1,w
  6101     0BC7  00F5               	movwf	___llmod@dividend+1
  6102     0BC8  083C               	movf	LCD_Int@value,w
  6103     0BC9  00F4               	movwf	___llmod@dividend
  6104     0BCA  120A  158A  20F4  120A  158A  	fcall	___llmod
  6105     0BCF  0870               	movf	?___llmod,w
  6106     0BD0  3E30               	addlw	48
  6107     0BD1  1383               	bcf	3,7	;select IRP bank0
  6108     0BD2  0080               	movwf	0
  6109     0BD3                     l2106:
  6110                           
  6111                           ;lcd_msd.c: 156:         value = value / 10;
  6112     0BD3  3000               	movlw	0
  6113     0BD4  00F3               	movwf	___lldiv@divisor+3
  6114     0BD5  3000               	movlw	0
  6115     0BD6  00F2               	movwf	___lldiv@divisor+2
  6116     0BD7  3000               	movlw	0
  6117     0BD8  00F1               	movwf	___lldiv@divisor+1
  6118     0BD9  300A               	movlw	10
  6119     0BDA  00F0               	movwf	___lldiv@divisor
  6120     0BDB  1283               	bcf	3,5	;RP0=0, select bank0
  6121     0BDC  1303               	bcf	3,6	;RP1=0, select bank0
  6122     0BDD  083F               	movf	LCD_Int@value+3,w
  6123     0BDE  00F7               	movwf	___lldiv@dividend+3
  6124     0BDF  083E               	movf	LCD_Int@value+2,w
  6125     0BE0  00F6               	movwf	___lldiv@dividend+2
  6126     0BE1  083D               	movf	LCD_Int@value+1,w
  6127     0BE2  00F5               	movwf	___lldiv@dividend+1
  6128     0BE3  083C               	movf	LCD_Int@value,w
  6129     0BE4  00F4               	movwf	___lldiv@dividend
  6130     0BE5  120A  118A  2008  120A  158A  	fcall	___lldiv
  6131     0BEA  0873               	movf	?___lldiv+3,w
  6132     0BEB  1283               	bcf	3,5	;RP0=0, select bank0
  6133     0BEC  1303               	bcf	3,6	;RP1=0, select bank0
  6134     0BED  00BF               	movwf	LCD_Int@value+3
  6135     0BEE  0872               	movf	?___lldiv+2,w
  6136     0BEF  00BE               	movwf	LCD_Int@value+2
  6137     0BF0  0871               	movf	?___lldiv+1,w
  6138     0BF1  00BD               	movwf	LCD_Int@value+1
  6139     0BF2  0870               	movf	?___lldiv,w
  6140     0BF3  00BC               	movwf	LCD_Int@value
  6141     0BF4                     l2108:
  6142                           
  6143                           ;lcd_msd.c: 157:     }
  6144     0BF4  3001               	movlw	1
  6145     0BF5  07CC               	addwf	LCD_Int@i,f
  6146     0BF6  1803               	skipnc
  6147     0BF7  0ACD               	incf	LCD_Int@i+1,f
  6148     0BF8  3000               	movlw	0
  6149     0BF9  07CD               	addwf	LCD_Int@i+1,f
  6150     0BFA                     l2110:
  6151     0BFA  0840               	movf	LCD_Int@positions,w
  6152     0BFB  00C2               	movwf	??_LCD_Int
  6153     0BFC  01C3               	clrf	??_LCD_Int+1
  6154     0BFD  0843               	movf	??_LCD_Int+1,w
  6155     0BFE  024D               	subwf	LCD_Int@i+1,w
  6156     0BFF  1D03               	skipz
  6157     0C00  2C03               	goto	u2595
  6158     0C01  0842               	movf	??_LCD_Int,w
  6159     0C02  024C               	subwf	LCD_Int@i,w
  6160     0C03                     u2595:
  6161     0C03  1C03               	skipc
  6162     0C04  2C06               	goto	u2591
  6163     0C05  2C07               	goto	u2590
  6164     0C06                     u2591:
  6165     0C06  2BB0               	goto	l2104
  6166     0C07                     u2590:
  6167     0C07                     l2112:
  6168                           
  6169                           ;lcd_msd.c: 159:     for (i = 0; i < positions - 1; i++)
  6170     0C07  01CC               	clrf	LCD_Int@i
  6171     0C08  01CD               	clrf	LCD_Int@i+1
  6172     0C09  2C26               	goto	l2124
  6173     0C0A                     l2114:
  6174                           
  6175                           ;lcd_msd.c: 160:     {;lcd_msd.c: 161:         if (zeros && (buf[i] == 0x30))
  6176     0C0A  0841               	movf	LCD_Int@zeros,w
  6177     0C0B  1903               	btfsc	3,2
  6178     0C0C  2C0E               	goto	u2601
  6179     0C0D  2C0F               	goto	u2600
  6180     0C0E                     u2601:
  6181     0C0E  2C1F               	goto	l2120
  6182     0C0F                     u2600:
  6183     0C0F                     l2116:
  6184     0C0F  084C               	movf	LCD_Int@i,w
  6185     0C10  3E44               	addlw	(low (LCD_Int@buf| 0))& (0+255)
  6186     0C11  0084               	movwf	4
  6187     0C12  3030               	movlw	48
  6188     0C13  1383               	bcf	3,7	;select IRP bank0
  6189     0C14  0600               	xorwf	0,w
  6190     0C15  1D03               	btfss	3,2
  6191     0C16  2C18               	goto	u2611
  6192     0C17  2C19               	goto	u2610
  6193     0C18                     u2611:
  6194     0C18  2C1F               	goto	l2120
  6195     0C19                     u2610:
  6196     0C19                     l2118:
  6197                           
  6198                           ;lcd_msd.c: 162:             buf[i] = 0x20;
  6199     0C19  084C               	movf	LCD_Int@i,w
  6200     0C1A  3E44               	addlw	(low (LCD_Int@buf| 0))& (0+255)
  6201     0C1B  0084               	movwf	4
  6202     0C1C  3020               	movlw	32
  6203     0C1D  0080               	movwf	0
  6204     0C1E  2C20               	goto	l2122
  6205     0C1F                     l2120:
  6206                           
  6207                           ;lcd_msd.c: 164:             zeros = 0;
  6208     0C1F  01C1               	clrf	LCD_Int@zeros
  6209     0C20                     l2122:
  6210                           
  6211                           ;lcd_msd.c: 165:     }
  6212     0C20  3001               	movlw	1
  6213     0C21  07CC               	addwf	LCD_Int@i,f
  6214     0C22  1803               	skipnc
  6215     0C23  0ACD               	incf	LCD_Int@i+1,f
  6216     0C24  3000               	movlw	0
  6217     0C25  07CD               	addwf	LCD_Int@i+1,f
  6218     0C26                     l2124:
  6219     0C26  0840               	movf	LCD_Int@positions,w
  6220     0C27  3EFF               	addlw	255
  6221     0C28  00C2               	movwf	??_LCD_Int
  6222     0C29  30FF               	movlw	255
  6223     0C2A  1803               	skipnc
  6224     0C2B  3000               	movlw	0
  6225     0C2C  00C3               	movwf	??_LCD_Int+1
  6226     0C2D  0843               	movf	??_LCD_Int+1,w
  6227     0C2E  024D               	subwf	LCD_Int@i+1,w
  6228     0C2F  1D03               	skipz
  6229     0C30  2C33               	goto	u2625
  6230     0C31  0842               	movf	??_LCD_Int,w
  6231     0C32  024C               	subwf	LCD_Int@i,w
  6232     0C33                     u2625:
  6233     0C33  1C03               	skipc
  6234     0C34  2C36               	goto	u2621
  6235     0C35  2C37               	goto	u2620
  6236     0C36                     u2621:
  6237     0C36  2C0A               	goto	l2114
  6238     0C37                     u2620:
  6239     0C37                     l2126:
  6240                           
  6241                           ;lcd_msd.c: 167:     for (i = 0; i < positions; i++)
  6242     0C37  01CC               	clrf	LCD_Int@i
  6243     0C38  01CD               	clrf	LCD_Int@i+1
  6244     0C39  2C4E               	goto	l2132
  6245     0C3A                     l2128:
  6246                           
  6247                           ;lcd_msd.c: 168:         LCD_Write(buf[i], 1);
  6248     0C3A  01FC               	clrf	LCD_Write@RS
  6249     0C3B  0AFC               	incf	LCD_Write@RS,f
  6250     0C3C  084C               	movf	LCD_Int@i,w
  6251     0C3D  3E44               	addlw	(low (LCD_Int@buf| 0))& (0+255)
  6252     0C3E  0084               	movwf	4
  6253     0C3F  1383               	bcf	3,7	;select IRP bank0
  6254     0C40  0800               	movf	0,w
  6255     0C41  120A  158A  219F  120A  158A  	fcall	_LCD_Write
  6256     0C46                     l2130:
  6257     0C46  3001               	movlw	1
  6258     0C47  1283               	bcf	3,5	;RP0=0, select bank0
  6259     0C48  1303               	bcf	3,6	;RP1=0, select bank0
  6260     0C49  07CC               	addwf	LCD_Int@i,f
  6261     0C4A  1803               	skipnc
  6262     0C4B  0ACD               	incf	LCD_Int@i+1,f
  6263     0C4C  3000               	movlw	0
  6264     0C4D  07CD               	addwf	LCD_Int@i+1,f
  6265     0C4E                     l2132:
  6266     0C4E  0840               	movf	LCD_Int@positions,w
  6267     0C4F  00C2               	movwf	??_LCD_Int
  6268     0C50  01C3               	clrf	??_LCD_Int+1
  6269     0C51  0843               	movf	??_LCD_Int+1,w
  6270     0C52  024D               	subwf	LCD_Int@i+1,w
  6271     0C53  1D03               	skipz
  6272     0C54  2C57               	goto	u2635
  6273     0C55  0842               	movf	??_LCD_Int,w
  6274     0C56  024C               	subwf	LCD_Int@i,w
  6275     0C57                     u2635:
  6276     0C57  1C03               	skipc
  6277     0C58  2C5A               	goto	u2631
  6278     0C59  2C5B               	goto	u2630
  6279     0C5A                     u2631:
  6280     0C5A  2C3A               	goto	l2128
  6281     0C5B                     u2630:
  6282     0C5B                     l142:
  6283     0C5B  0008               	return
  6284     0C5C                     __end_of_LCD_Int:
  6285                           
  6286                           	psect	text19
  6287     08F4                     __ptext19:	
  6288 ;; *************** function ___llmod *****************
  6289 ;; Defined at:
  6290 ;;		line 5 in file "C:\Program Files\Microchip\xc8\v2.46\pic\sources\c99\common\llmod.c"
  6291 ;; Parameters:    Size  Location     Type
  6292 ;;  divisor         4    0[COMMON] unsigned long 
  6293 ;;  dividend        4    4[COMMON] unsigned long 
  6294 ;; Auto vars:     Size  Location     Type
  6295 ;;  counter         1    9[COMMON] unsigned char 
  6296 ;; Return value:  Size  Location     Type
  6297 ;;                  4    0[COMMON] unsigned long 
  6298 ;; Registers used:
  6299 ;;		wreg, status,2, status,0, btemp+1
  6300 ;; Tracked objects:
  6301 ;;		On entry : 0/0
  6302 ;;		On exit  : 0/0
  6303 ;;		Unchanged: 0/0
  6304 ;; Data sizes:     COMMON   BANK0   BANK1   BANK3   BANK2
  6305 ;;      Params:         8       0       0       0       0
  6306 ;;      Locals:         1       0       0       0       0
  6307 ;;      Temps:          1       0       0       0       0
  6308 ;;      Totals:        10       0       0       0       0
  6309 ;;Total ram usage:       10 bytes
  6310 ;; Hardware stack levels used: 1
  6311 ;; This function calls:
  6312 ;;		Nothing
  6313 ;; This function is called by:
  6314 ;;		_LCD_Int
  6315 ;; This function uses a non-reentrant model
  6316 ;;
  6317                           
  6318     08F4                     ___llmod:	
  6319                           ;psect for function ___llmod
  6320                           
  6321     08F4                     l1862:	
  6322                           ;incstack = 0
  6323                           ; Regs used in ___llmod: [wreg+status,2+status,0+btemp+1]
  6324                           
  6325     08F4  0873               	movf	___llmod@divisor+3,w
  6326     08F5  0472               	iorwf	___llmod@divisor+2,w
  6327     08F6  0471               	iorwf	___llmod@divisor+1,w
  6328     08F7  0470               	iorwf	___llmod@divisor,w
  6329     08F8  1903               	skipnz
  6330     08F9  28FB               	goto	u2041
  6331     08FA  28FC               	goto	u2040
  6332     08FB                     u2041:
  6333     08FB  293F               	goto	l1880
  6334     08FC                     u2040:
  6335     08FC                     l1864:
  6336     08FC  01F9               	clrf	___llmod@counter
  6337     08FD  0AF9               	incf	___llmod@counter,f
  6338     08FE  290C               	goto	l1870
  6339     08FF                     l1866:
  6340     08FF  3001               	movlw	1
  6341     0900  00F8               	movwf	??___llmod
  6342     0901                     u2055:
  6343     0901  1003               	clrc
  6344     0902  0DF0               	rlf	___llmod@divisor,f
  6345     0903  0DF1               	rlf	___llmod@divisor+1,f
  6346     0904  0DF2               	rlf	___llmod@divisor+2,f
  6347     0905  0DF3               	rlf	___llmod@divisor+3,f
  6348     0906  0BF8               	decfsz	??___llmod,f
  6349     0907  2901               	goto	u2055
  6350     0908                     l1868:
  6351     0908  3001               	movlw	1
  6352     0909  00FF               	movwf	btemp+1
  6353     090A  087F               	movf	btemp+1,w
  6354     090B  07F9               	addwf	___llmod@counter,f
  6355     090C                     l1870:
  6356     090C  1FF3               	btfss	___llmod@divisor+3,7
  6357     090D  290F               	goto	u2061
  6358     090E  2910               	goto	u2060
  6359     090F                     u2061:
  6360     090F  28FF               	goto	l1866
  6361     0910                     u2060:
  6362     0910                     l1872:
  6363     0910  0873               	movf	___llmod@divisor+3,w
  6364     0911  0277               	subwf	___llmod@dividend+3,w
  6365     0912  1D03               	skipz
  6366     0913  291E               	goto	u2075
  6367     0914  0872               	movf	___llmod@divisor+2,w
  6368     0915  0276               	subwf	___llmod@dividend+2,w
  6369     0916  1D03               	skipz
  6370     0917  291E               	goto	u2075
  6371     0918  0871               	movf	___llmod@divisor+1,w
  6372     0919  0275               	subwf	___llmod@dividend+1,w
  6373     091A  1D03               	skipz
  6374     091B  291E               	goto	u2075
  6375     091C  0870               	movf	___llmod@divisor,w
  6376     091D  0274               	subwf	___llmod@dividend,w
  6377     091E                     u2075:
  6378     091E  1C03               	skipc
  6379     091F  2921               	goto	u2071
  6380     0920  2922               	goto	u2070
  6381     0921                     u2071:
  6382     0921  2930               	goto	l1876
  6383     0922                     u2070:
  6384     0922                     l1874:
  6385     0922  0870               	movf	___llmod@divisor,w
  6386     0923  02F4               	subwf	___llmod@dividend,f
  6387     0924  0871               	movf	___llmod@divisor+1,w
  6388     0925  1C03               	skipc
  6389     0926  0F71               	incfsz	___llmod@divisor+1,w
  6390     0927  02F5               	subwf	___llmod@dividend+1,f
  6391     0928  0872               	movf	___llmod@divisor+2,w
  6392     0929  1C03               	skipc
  6393     092A  0F72               	incfsz	___llmod@divisor+2,w
  6394     092B  02F6               	subwf	___llmod@dividend+2,f
  6395     092C  0873               	movf	___llmod@divisor+3,w
  6396     092D  1C03               	skipc
  6397     092E  0F73               	incfsz	___llmod@divisor+3,w
  6398     092F  02F7               	subwf	___llmod@dividend+3,f
  6399     0930                     l1876:
  6400     0930  3001               	movlw	1
  6401     0931                     u2085:
  6402     0931  1003               	clrc
  6403     0932  0CF3               	rrf	___llmod@divisor+3,f
  6404     0933  0CF2               	rrf	___llmod@divisor+2,f
  6405     0934  0CF1               	rrf	___llmod@divisor+1,f
  6406     0935  0CF0               	rrf	___llmod@divisor,f
  6407     0936  3EFF               	addlw	-1
  6408     0937  1D03               	skipz
  6409     0938  2931               	goto	u2085
  6410     0939                     l1878:
  6411     0939  3001               	movlw	1
  6412     093A  02F9               	subwf	___llmod@counter,f
  6413     093B  1D03               	btfss	3,2
  6414     093C  293E               	goto	u2091
  6415     093D  293F               	goto	u2090
  6416     093E                     u2091:
  6417     093E  2910               	goto	l1872
  6418     093F                     u2090:
  6419     093F                     l1880:
  6420     093F  0877               	movf	___llmod@dividend+3,w
  6421     0940  00F3               	movwf	?___llmod+3
  6422     0941  0876               	movf	___llmod@dividend+2,w
  6423     0942  00F2               	movwf	?___llmod+2
  6424     0943  0875               	movf	___llmod@dividend+1,w
  6425     0944  00F1               	movwf	?___llmod+1
  6426     0945  0874               	movf	___llmod@dividend,w
  6427     0946  00F0               	movwf	?___llmod
  6428     0947                     l530:
  6429     0947  0008               	return
  6430     0948                     __end_of___llmod:
  6431                           
  6432                           	psect	text20
  6433     0008                     __ptext20:	
  6434 ;; *************** function ___lldiv *****************
  6435 ;; Defined at:
  6436 ;;		line 5 in file "C:\Program Files\Microchip\xc8\v2.46\pic\sources\c99\common\__lldiv.c"
  6437 ;; Parameters:    Size  Location     Type
  6438 ;;  divisor         4    0[COMMON] unsigned long 
  6439 ;;  dividend        4    4[COMMON] unsigned long 
  6440 ;; Auto vars:     Size  Location     Type
  6441 ;;  quotient        4    9[COMMON] unsigned long 
  6442 ;;  counter         1   13[COMMON] unsigned char 
  6443 ;; Return value:  Size  Location     Type
  6444 ;;                  4    0[COMMON] unsigned long 
  6445 ;; Registers used:
  6446 ;;		wreg, status,2, status,0, btemp+1
  6447 ;; Tracked objects:
  6448 ;;		On entry : 0/0
  6449 ;;		On exit  : 0/0
  6450 ;;		Unchanged: 0/0
  6451 ;; Data sizes:     COMMON   BANK0   BANK1   BANK3   BANK2
  6452 ;;      Params:         8       0       0       0       0
  6453 ;;      Locals:         5       0       0       0       0
  6454 ;;      Temps:          1       0       0       0       0
  6455 ;;      Totals:        14       0       0       0       0
  6456 ;;Total ram usage:       14 bytes
  6457 ;; Hardware stack levels used: 1
  6458 ;; This function calls:
  6459 ;;		Nothing
  6460 ;; This function is called by:
  6461 ;;		_LCD_Int
  6462 ;; This function uses a non-reentrant model
  6463 ;;
  6464                           
  6465     0008                     ___lldiv:	
  6466                           ;psect for function ___lldiv
  6467                           
  6468     0008                     l1836:	
  6469                           ;incstack = 0
  6470                           ; Regs used in ___lldiv: [wreg+status,2+status,0+btemp+1]
  6471                           
  6472     0008  3000               	movlw	0
  6473     0009  00FC               	movwf	___lldiv@quotient+3
  6474     000A  3000               	movlw	0
  6475     000B  00FB               	movwf	___lldiv@quotient+2
  6476     000C  3000               	movlw	0
  6477     000D  00FA               	movwf	___lldiv@quotient+1
  6478     000E  3000               	movlw	0
  6479     000F  00F9               	movwf	___lldiv@quotient
  6480     0010  0873               	movf	___lldiv@divisor+3,w
  6481     0011  0472               	iorwf	___lldiv@divisor+2,w
  6482     0012  0471               	iorwf	___lldiv@divisor+1,w
  6483     0013  0470               	iorwf	___lldiv@divisor,w
  6484     0014  1903               	skipnz
  6485     0015  2817               	goto	u1971
  6486     0016  2818               	goto	u1970
  6487     0017                     u1971:
  6488     0017  2865               	goto	l1858
  6489     0018                     u1970:
  6490     0018                     l1838:
  6491     0018  01FD               	clrf	___lldiv@counter
  6492     0019  0AFD               	incf	___lldiv@counter,f
  6493     001A  2828               	goto	l1844
  6494     001B                     l1840:
  6495     001B  3001               	movlw	1
  6496     001C  00F8               	movwf	??___lldiv
  6497     001D                     u1985:
  6498     001D  1003               	clrc
  6499     001E  0DF0               	rlf	___lldiv@divisor,f
  6500     001F  0DF1               	rlf	___lldiv@divisor+1,f
  6501     0020  0DF2               	rlf	___lldiv@divisor+2,f
  6502     0021  0DF3               	rlf	___lldiv@divisor+3,f
  6503     0022  0BF8               	decfsz	??___lldiv,f
  6504     0023  281D               	goto	u1985
  6505     0024                     l1842:
  6506     0024  3001               	movlw	1
  6507     0025  00FF               	movwf	btemp+1
  6508     0026  087F               	movf	btemp+1,w
  6509     0027  07FD               	addwf	___lldiv@counter,f
  6510     0028                     l1844:
  6511     0028  1FF3               	btfss	___lldiv@divisor+3,7
  6512     0029  282B               	goto	u1991
  6513     002A  282C               	goto	u1990
  6514     002B                     u1991:
  6515     002B  281B               	goto	l1840
  6516     002C                     u1990:
  6517     002C                     l1846:
  6518     002C  3001               	movlw	1
  6519     002D  00F8               	movwf	??___lldiv
  6520     002E                     u2005:
  6521     002E  1003               	clrc
  6522     002F  0DF9               	rlf	___lldiv@quotient,f
  6523     0030  0DFA               	rlf	___lldiv@quotient+1,f
  6524     0031  0DFB               	rlf	___lldiv@quotient+2,f
  6525     0032  0DFC               	rlf	___lldiv@quotient+3,f
  6526     0033  0BF8               	decfsz	??___lldiv,f
  6527     0034  282E               	goto	u2005
  6528     0035                     l1848:
  6529     0035  0873               	movf	___lldiv@divisor+3,w
  6530     0036  0277               	subwf	___lldiv@dividend+3,w
  6531     0037  1D03               	skipz
  6532     0038  2843               	goto	u2015
  6533     0039  0872               	movf	___lldiv@divisor+2,w
  6534     003A  0276               	subwf	___lldiv@dividend+2,w
  6535     003B  1D03               	skipz
  6536     003C  2843               	goto	u2015
  6537     003D  0871               	movf	___lldiv@divisor+1,w
  6538     003E  0275               	subwf	___lldiv@dividend+1,w
  6539     003F  1D03               	skipz
  6540     0040  2843               	goto	u2015
  6541     0041  0870               	movf	___lldiv@divisor,w
  6542     0042  0274               	subwf	___lldiv@dividend,w
  6543     0043                     u2015:
  6544     0043  1C03               	skipc
  6545     0044  2846               	goto	u2011
  6546     0045  2847               	goto	u2010
  6547     0046                     u2011:
  6548     0046  2856               	goto	l1854
  6549     0047                     u2010:
  6550     0047                     l1850:
  6551     0047  0870               	movf	___lldiv@divisor,w
  6552     0048  02F4               	subwf	___lldiv@dividend,f
  6553     0049  0871               	movf	___lldiv@divisor+1,w
  6554     004A  1C03               	skipc
  6555     004B  0F71               	incfsz	___lldiv@divisor+1,w
  6556     004C  02F5               	subwf	___lldiv@dividend+1,f
  6557     004D  0872               	movf	___lldiv@divisor+2,w
  6558     004E  1C03               	skipc
  6559     004F  0F72               	incfsz	___lldiv@divisor+2,w
  6560     0050  02F6               	subwf	___lldiv@dividend+2,f
  6561     0051  0873               	movf	___lldiv@divisor+3,w
  6562     0052  1C03               	skipc
  6563     0053  0F73               	incfsz	___lldiv@divisor+3,w
  6564     0054  02F7               	subwf	___lldiv@dividend+3,f
  6565     0055                     l1852:
  6566     0055  1479               	bsf	___lldiv@quotient,0
  6567     0056                     l1854:
  6568     0056  3001               	movlw	1
  6569     0057                     u2025:
  6570     0057  1003               	clrc
  6571     0058  0CF3               	rrf	___lldiv@divisor+3,f
  6572     0059  0CF2               	rrf	___lldiv@divisor+2,f
  6573     005A  0CF1               	rrf	___lldiv@divisor+1,f
  6574     005B  0CF0               	rrf	___lldiv@divisor,f
  6575     005C  3EFF               	addlw	-1
  6576     005D  1D03               	skipz
  6577     005E  2857               	goto	u2025
  6578     005F                     l1856:
  6579     005F  3001               	movlw	1
  6580     0060  02FD               	subwf	___lldiv@counter,f
  6581     0061  1D03               	btfss	3,2
  6582     0062  2864               	goto	u2031
  6583     0063  2865               	goto	u2030
  6584     0064                     u2031:
  6585     0064  282C               	goto	l1846
  6586     0065                     u2030:
  6587     0065                     l1858:
  6588     0065  087C               	movf	___lldiv@quotient+3,w
  6589     0066  00F3               	movwf	?___lldiv+3
  6590     0067  087B               	movf	___lldiv@quotient+2,w
  6591     0068  00F2               	movwf	?___lldiv+2
  6592     0069  087A               	movf	___lldiv@quotient+1,w
  6593     006A  00F1               	movwf	?___lldiv+1
  6594     006B  0879               	movf	___lldiv@quotient,w
  6595     006C  00F0               	movwf	?___lldiv
  6596     006D                     l336:
  6597     006D  0008               	return
  6598     006E                     __end_of___lldiv:
  6599                           
  6600                           	psect	text21
  6601     099F                     __ptext21:	
  6602 ;; *************** function _LCD_Write *****************
  6603 ;; Defined at:
  6604 ;;		line 39 in file "lcd_msd.c"
  6605 ;; Parameters:    Size  Location     Type
  6606 ;;  character       1    wreg     unsigned char 
  6607 ;;  RS              1   12[COMMON] unsigned char 
  6608 ;; Auto vars:     Size  Location     Type
  6609 ;;  character       1   26[BANK0 ] unsigned char 
  6610 ;;  data            1   27[BANK0 ] unsigned char 
  6611 ;; Return value:  Size  Location     Type
  6612 ;;                  1    wreg      void 
  6613 ;; Registers used:
  6614 ;;		wreg, status,2, status,0, btemp+1, pclath, cstack
  6615 ;; Tracked objects:
  6616 ;;		On entry : 0/0
  6617 ;;		On exit  : 0/0
  6618 ;;		Unchanged: 0/0
  6619 ;; Data sizes:     COMMON   BANK0   BANK1   BANK3   BANK2
  6620 ;;      Params:         1       0       0       0       0
  6621 ;;      Locals:         0       2       0       0       0
  6622 ;;      Temps:          0       8       0       0       0
  6623 ;;      Totals:         1      10       0       0       0
  6624 ;;Total ram usage:       11 bytes
  6625 ;; Hardware stack levels used: 1
  6626 ;; Hardware stack levels required when called: 1
  6627 ;; This function calls:
  6628 ;;		_bit_config
  6629 ;; This function is called by:
  6630 ;;		_LCD_Clear
  6631 ;;		_LCD_Goto
  6632 ;;		_LCD_Init
  6633 ;;		_LCD_Int
  6634 ;;		_LCD_Float
  6635 ;;		_LCD_Text
  6636 ;;		_LCD_Char
  6637 ;;		_LCD_Hex
  6638 ;;		_LCD_Bin
  6639 ;; This function uses a non-reentrant model
  6640 ;;
  6641                           
  6642     099F                     _LCD_Write:	
  6643                           ;psect for function _LCD_Write
  6644                           
  6645                           
  6646                           ;incstack = 0
  6647                           ; Regs used in _LCD_Write: [wreg+status,2+status,0+btemp+1+pclath+cstack]
  6648                           ;LCD_Write@character stored from wreg
  6649     099F  1283               	bcf	3,5	;RP0=0, select bank0
  6650     09A0  1303               	bcf	3,6	;RP1=0, select bank0
  6651     09A1  00BA               	movwf	LCD_Write@character
  6652     09A2                     l1818:
  6653     09A2  0806               	movf	6,w	;volatile
  6654     09A3                     l1820:
  6655                           
  6656                           ;lcd_msd.c: 43:     data = ((character >> 4) & 0x0F);
  6657     09A3  083A               	movf	LCD_Write@character,w
  6658     09A4  00B2               	movwf	??_LCD_Write
  6659     09A5  3004               	movlw	4
  6660     09A6                     u1965:
  6661     09A6  1003               	clrc
  6662     09A7  0CB2               	rrf	??_LCD_Write,f
  6663     09A8  3EFF               	addlw	-1
  6664     09A9  1D03               	skipz
  6665     09AA  29A6               	goto	u1965
  6666     09AB  0832               	movf	??_LCD_Write,w
  6667     09AC  390F               	andlw	15
  6668     09AD  00BB               	movwf	LCD_Write@data
  6669     09AE                     l1822:
  6670                           
  6671                           ;lcd_msd.c: 44:     PORTB = bit_config(data, 5, RS);
  6672     09AE  083B               	movf	LCD_Write@data,w
  6673     09AF  00B2               	movwf	??_LCD_Write
  6674     09B0  01B3               	clrf	??_LCD_Write+1
  6675     09B1  01B4               	clrf	??_LCD_Write+2
  6676     09B2  01B5               	clrf	??_LCD_Write+3
  6677     09B3  0835               	movf	??_LCD_Write+3,w
  6678     09B4  00F3               	movwf	bit_config@word+3
  6679     09B5  0834               	movf	??_LCD_Write+2,w
  6680     09B6  00F2               	movwf	bit_config@word+2
  6681     09B7  0833               	movf	??_LCD_Write+1,w
  6682     09B8  00F1               	movwf	bit_config@word+1
  6683     09B9  0832               	movf	??_LCD_Write,w
  6684     09BA  00F0               	movwf	bit_config@word
  6685     09BB  3000               	movlw	0
  6686     09BC  00F7               	movwf	bit_config@bit_number+3
  6687     09BD  3000               	movlw	0
  6688     09BE  00F6               	movwf	bit_config@bit_number+2
  6689     09BF  3000               	movlw	0
  6690     09C0  00F5               	movwf	bit_config@bit_number+1
  6691     09C1  3005               	movlw	5
  6692     09C2  00F4               	movwf	bit_config@bit_number
  6693     09C3  087C               	movf	LCD_Write@RS,w
  6694     09C4  00B6               	movwf	??_LCD_Write+4
  6695     09C5  01B7               	clrf	??_LCD_Write+5
  6696     09C6  01B8               	clrf	??_LCD_Write+6
  6697     09C7  01B9               	clrf	??_LCD_Write+7
  6698     09C8  0839               	movf	??_LCD_Write+7,w
  6699     09C9  00FB               	movwf	bit_config@bit_value+3
  6700     09CA  0838               	movf	??_LCD_Write+6,w
  6701     09CB  00FA               	movwf	bit_config@bit_value+2
  6702     09CC  0837               	movf	??_LCD_Write+5,w
  6703     09CD  00F9               	movwf	bit_config@bit_value+1
  6704     09CE  0836               	movf	??_LCD_Write+4,w
  6705     09CF  00F8               	movwf	bit_config@bit_value
  6706     09D0  120A  158A  2148  120A  158A  	fcall	_bit_config
  6707     09D5  0870               	movf	?_bit_config,w
  6708     09D6  1283               	bcf	3,5	;RP0=0, select bank0
  6709     09D7  1303               	bcf	3,6	;RP1=0, select bank0
  6710     09D8  0086               	movwf	6	;volatile
  6711     09D9                     l1824:
  6712                           
  6713                           ;lcd_msd.c: 46:     ((PORTCbits.RC1=1),(PORTCbits.RC1=0));
  6714     09D9  1487               	bsf	7,1	;volatile
  6715     09DA                     l1826:
  6716     09DA  1087               	bcf	7,1	;volatile
  6717     09DB                     l1828:
  6718                           
  6719                           ;lcd_msd.c: 48:     data = (character & 0x0F);
  6720     09DB  083A               	movf	LCD_Write@character,w
  6721     09DC  390F               	andlw	15
  6722     09DD  00BB               	movwf	LCD_Write@data
  6723     09DE                     l1830:
  6724                           
  6725                           ;lcd_msd.c: 49:     PORTB = bit_config(data, 5, RS);
  6726     09DE  083B               	movf	LCD_Write@data,w
  6727     09DF  00B2               	movwf	??_LCD_Write
  6728     09E0  01B3               	clrf	??_LCD_Write+1
  6729     09E1  01B4               	clrf	??_LCD_Write+2
  6730     09E2  01B5               	clrf	??_LCD_Write+3
  6731     09E3  0835               	movf	??_LCD_Write+3,w
  6732     09E4  00F3               	movwf	bit_config@word+3
  6733     09E5  0834               	movf	??_LCD_Write+2,w
  6734     09E6  00F2               	movwf	bit_config@word+2
  6735     09E7  0833               	movf	??_LCD_Write+1,w
  6736     09E8  00F1               	movwf	bit_config@word+1
  6737     09E9  0832               	movf	??_LCD_Write,w
  6738     09EA  00F0               	movwf	bit_config@word
  6739     09EB  3000               	movlw	0
  6740     09EC  00F7               	movwf	bit_config@bit_number+3
  6741     09ED  3000               	movlw	0
  6742     09EE  00F6               	movwf	bit_config@bit_number+2
  6743     09EF  3000               	movlw	0
  6744     09F0  00F5               	movwf	bit_config@bit_number+1
  6745     09F1  3005               	movlw	5
  6746     09F2  00F4               	movwf	bit_config@bit_number
  6747     09F3  087C               	movf	LCD_Write@RS,w
  6748     09F4  00B6               	movwf	??_LCD_Write+4
  6749     09F5  01B7               	clrf	??_LCD_Write+5
  6750     09F6  01B8               	clrf	??_LCD_Write+6
  6751     09F7  01B9               	clrf	??_LCD_Write+7
  6752     09F8  0839               	movf	??_LCD_Write+7,w
  6753     09F9  00FB               	movwf	bit_config@bit_value+3
  6754     09FA  0838               	movf	??_LCD_Write+6,w
  6755     09FB  00FA               	movwf	bit_config@bit_value+2
  6756     09FC  0837               	movf	??_LCD_Write+5,w
  6757     09FD  00F9               	movwf	bit_config@bit_value+1
  6758     09FE  0836               	movf	??_LCD_Write+4,w
  6759     09FF  00F8               	movwf	bit_config@bit_value
  6760     0A00  120A  158A  2148  120A  158A  	fcall	_bit_config
  6761     0A05  0870               	movf	?_bit_config,w
  6762     0A06  1283               	bcf	3,5	;RP0=0, select bank0
  6763     0A07  1303               	bcf	3,6	;RP1=0, select bank0
  6764     0A08  0086               	movwf	6	;volatile
  6765     0A09                     l1832:
  6766                           
  6767                           ;lcd_msd.c: 51:     ((PORTCbits.RC1=1),(PORTCbits.RC1=0));
  6768     0A09  1487               	bsf	7,1	;volatile
  6769     0A0A                     l1834:
  6770     0A0A  1087               	bcf	7,1	;volatile
  6771     0A0B                     l104:
  6772     0A0B  0008               	return
  6773     0A0C                     __end_of_LCD_Write:
  6774                           
  6775                           	psect	text22
  6776     0948                     __ptext22:	
  6777 ;; *************** function _bit_config *****************
  6778 ;; Defined at:
  6779 ;;		line 30 in file "lcd_msd.c"
  6780 ;; Parameters:    Size  Location     Type
  6781 ;;  word            4    0[COMMON] unsigned long 
  6782 ;;  bit_number      4    4[COMMON] unsigned long 
  6783 ;;  bit_value       4    8[COMMON] unsigned long 
  6784 ;; Auto vars:     Size  Location     Type
  6785 ;;  word_temp       4   14[BANK0 ] unsigned long 
  6786 ;; Return value:  Size  Location     Type
  6787 ;;                  4    0[COMMON] unsigned long 
  6788 ;; Registers used:
  6789 ;;		wreg, status,2, status,0, btemp+1
  6790 ;; Tracked objects:
  6791 ;;		On entry : 0/0
  6792 ;;		On exit  : 0/0
  6793 ;;		Unchanged: 0/0
  6794 ;; Data sizes:     COMMON   BANK0   BANK1   BANK3   BANK2
  6795 ;;      Params:        12       0       0       0       0
  6796 ;;      Locals:         0       4       0       0       0
  6797 ;;      Temps:          0      14       0       0       0
  6798 ;;      Totals:        12      18       0       0       0
  6799 ;;Total ram usage:       30 bytes
  6800 ;; Hardware stack levels used: 1
  6801 ;; This function calls:
  6802 ;;		Nothing
  6803 ;; This function is called by:
  6804 ;;		_LCD_Write
  6805 ;; This function uses a non-reentrant model
  6806 ;;
  6807                           
  6808     0948                     _bit_config:	
  6809                           ;psect for function _bit_config
  6810                           
  6811     0948                     l1810:	
  6812                           ;incstack = 0
  6813                           ; Regs used in _bit_config: [wreg+status,2+status,0+btemp+1]
  6814                           
  6815                           
  6816                           ;lcd_msd.c: 30: uint32_t bit_config(uint32_t word, uint32_t bit_number, uint32_t bit_val
      +                          ue);lcd_msd.c: 31: {;lcd_msd.c: 32:     uint32_t word_temp = word;
  6817     0948  0873               	movf	bit_config@word+3,w
  6818     0949  1283               	bcf	3,5	;RP0=0, select bank0
  6819     094A  1303               	bcf	3,6	;RP1=0, select bank0
  6820     094B  00B1               	movwf	bit_config@word_temp+3
  6821     094C  0872               	movf	bit_config@word+2,w
  6822     094D  00B0               	movwf	bit_config@word_temp+2
  6823     094E  0871               	movf	bit_config@word+1,w
  6824     094F  00AF               	movwf	bit_config@word_temp+1
  6825     0950  0870               	movf	bit_config@word,w
  6826     0951  00AE               	movwf	bit_config@word_temp
  6827     0952                     l1812:
  6828                           
  6829                           ;lcd_msd.c: 33:     word_temp ^= (-bit_value ^ word_temp) & (1 << bit_number);
  6830     0952  0A74               	incf	bit_config@bit_number,w
  6831     0953  00FF               	movwf	btemp+1
  6832     0954  3001               	movlw	1
  6833     0955  00A0               	movwf	??_bit_config
  6834     0956  3000               	movlw	0
  6835     0957  00A1               	movwf	??_bit_config+1
  6836     0958  295C               	goto	u1954
  6837     0959                     u1955:
  6838     0959  1003               	clrc
  6839     095A  0DA0               	rlf	??_bit_config,f
  6840     095B  0DA1               	rlf	??_bit_config+1,f
  6841     095C                     u1954:
  6842     095C  0BFF               	decfsz	btemp+1,f
  6843     095D  2959               	goto	u1955
  6844     095E  0820               	movf	??_bit_config,w
  6845     095F  00A2               	movwf	??_bit_config+2
  6846     0960  0821               	movf	??_bit_config+1,w
  6847     0961  00A3               	movwf	??_bit_config+3
  6848     0962  3000               	movlw	0
  6849     0963  1BA3               	btfsc	??_bit_config+3,7
  6850     0964  30FF               	movlw	255
  6851     0965  00A4               	movwf	??_bit_config+4
  6852     0966  00A5               	movwf	??_bit_config+5
  6853     0967  082E               	movf	bit_config@word_temp,w
  6854     0968  00A6               	movwf	??_bit_config+6
  6855     0969  082F               	movf	bit_config@word_temp+1,w
  6856     096A  00A7               	movwf	??_bit_config+7
  6857     096B  0830               	movf	bit_config@word_temp+2,w
  6858     096C  00A8               	movwf	??_bit_config+8
  6859     096D  0831               	movf	bit_config@word_temp+3,w
  6860     096E  00A9               	movwf	??_bit_config+9
  6861     096F  0978               	comf	bit_config@bit_value,w
  6862     0970  00AA               	movwf	??_bit_config+10
  6863     0971  0979               	comf	bit_config@bit_value+1,w
  6864     0972  00AB               	movwf	??_bit_config+11
  6865     0973  097A               	comf	bit_config@bit_value+2,w
  6866     0974  00AC               	movwf	??_bit_config+12
  6867     0975  097B               	comf	bit_config@bit_value+3,w
  6868     0976  00AD               	movwf	??_bit_config+13
  6869     0977  0AAA               	incf	??_bit_config+10,f
  6870     0978  1903               	skipnz
  6871     0979  0AAB               	incf	??_bit_config+11,f
  6872     097A  1903               	skipnz
  6873     097B  0AAC               	incf	??_bit_config+12,f
  6874     097C  1903               	skipnz
  6875     097D  0AAD               	incf	??_bit_config+13,f
  6876     097E  082A               	movf	??_bit_config+10,w
  6877     097F  06A6               	xorwf	??_bit_config+6,f
  6878     0980  082B               	movf	??_bit_config+11,w
  6879     0981  06A7               	xorwf	??_bit_config+7,f
  6880     0982  082C               	movf	??_bit_config+12,w
  6881     0983  06A8               	xorwf	??_bit_config+8,f
  6882     0984  082D               	movf	??_bit_config+13,w
  6883     0985  06A9               	xorwf	??_bit_config+9,f
  6884     0986  0826               	movf	??_bit_config+6,w
  6885     0987  05A2               	andwf	??_bit_config+2,f
  6886     0988  0827               	movf	??_bit_config+7,w
  6887     0989  05A3               	andwf	??_bit_config+3,f
  6888     098A  0828               	movf	??_bit_config+8,w
  6889     098B  05A4               	andwf	??_bit_config+4,f
  6890     098C  0829               	movf	??_bit_config+9,w
  6891     098D  05A5               	andwf	??_bit_config+5,f
  6892     098E  0822               	movf	??_bit_config+2,w
  6893     098F  06AE               	xorwf	bit_config@word_temp,f
  6894     0990  0823               	movf	??_bit_config+3,w
  6895     0991  06AF               	xorwf	bit_config@word_temp+1,f
  6896     0992  0824               	movf	??_bit_config+4,w
  6897     0993  06B0               	xorwf	bit_config@word_temp+2,f
  6898     0994  0825               	movf	??_bit_config+5,w
  6899     0995  06B1               	xorwf	bit_config@word_temp+3,f
  6900     0996                     l1814:
  6901                           
  6902                           ;lcd_msd.c: 34:     return word_temp;
  6903     0996  0831               	movf	bit_config@word_temp+3,w
  6904     0997  00F3               	movwf	?_bit_config+3
  6905     0998  0830               	movf	bit_config@word_temp+2,w
  6906     0999  00F2               	movwf	?_bit_config+2
  6907     099A  082F               	movf	bit_config@word_temp+1,w
  6908     099B  00F1               	movwf	?_bit_config+1
  6909     099C  082E               	movf	bit_config@word_temp,w
  6910     099D  00F0               	movwf	?_bit_config
  6911     099E                     l101:
  6912     099E  0008               	return
  6913     099F                     __end_of_bit_config:
  6914                           
  6915                           	psect	text23
  6916     17F2                     __ptext23:	
  6917 ;; *************** function _ADC_Read *****************
  6918 ;; Defined at:
  6919 ;;		line 58 in file "main.c"
  6920 ;; Parameters:    Size  Location     Type
  6921 ;;		None
  6922 ;; Auto vars:     Size  Location     Type
  6923 ;;		None
  6924 ;; Return value:  Size  Location     Type
  6925 ;;                  2    0[COMMON] unsigned int 
  6926 ;; Registers used:
  6927 ;;		wreg
  6928 ;; Tracked objects:
  6929 ;;		On entry : 0/0
  6930 ;;		On exit  : 0/0
  6931 ;;		Unchanged: 0/0
  6932 ;; Data sizes:     COMMON   BANK0   BANK1   BANK3   BANK2
  6933 ;;      Params:         2       0       0       0       0
  6934 ;;      Locals:         0       0       0       0       0
  6935 ;;      Temps:          0       0       0       0       0
  6936 ;;      Totals:         2       0       0       0       0
  6937 ;;Total ram usage:        2 bytes
  6938 ;; Hardware stack levels used: 1
  6939 ;; This function calls:
  6940 ;;		Nothing
  6941 ;; This function is called by:
  6942 ;;		_main
  6943 ;; This function uses a non-reentrant model
  6944 ;;
  6945                           
  6946     17F2                     _ADC_Read:	
  6947                           ;psect for function _ADC_Read
  6948                           
  6949     17F2                     l2576:	
  6950                           ;incstack = 0
  6951                           ; Regs used in _ADC_Read: [wreg]
  6952                           
  6953                           
  6954                           ;main.c: 60:     GO_nDONE = 1;
  6955     17F2  1283               	bcf	3,5	;RP0=0, select bank0
  6956     17F3  1303               	bcf	3,6	;RP1=0, select bank0
  6957     17F4  149F               	bsf	31,1	;volatile
  6958     17F5                     l72:	
  6959                           ;main.c: 61:     while (GO_nDONE);
  6960                           
  6961     17F5  189F               	btfsc	31,1	;volatile
  6962     17F6  2FF8               	goto	u3671
  6963     17F7  2FF9               	goto	u3670
  6964     17F8                     u3671:
  6965     17F8  2FF5               	goto	l72
  6966     17F9                     u3670:
  6967     17F9                     l2578:
  6968                           
  6969                           ;main.c: 62:     return ((ADRESH << 8) + ADRESL);
  6970     17F9  081E               	movf	30,w	;volatile
  6971     17FA  00F1               	movwf	?_ADC_Read+1
  6972     17FB  1683               	bsf	3,5	;RP0=1, select bank1
  6973     17FC  1303               	bcf	3,6	;RP1=0, select bank1
  6974     17FD  081E               	movf	30,w	;volatile
  6975     17FE  00F0               	movwf	?_ADC_Read
  6976     17FF                     l75:
  6977     17FF  0008               	return
  6978     1800                     __end_of_ADC_Read:
  6979                           
  6980                           	psect	text24
  6981     0800                     __ptext24:	
  6982 ;; *************** function _ADC_Init *****************
  6983 ;; Defined at:
  6984 ;;		line 50 in file "main.c"
  6985 ;; Parameters:    Size  Location     Type
  6986 ;;		None
  6987 ;; Auto vars:     Size  Location     Type
  6988 ;;		None
  6989 ;; Return value:  Size  Location     Type
  6990 ;;                  1    wreg      void 
  6991 ;; Registers used:
  6992 ;;		wreg, status,2
  6993 ;; Tracked objects:
  6994 ;;		On entry : 0/0
  6995 ;;		On exit  : 0/0
  6996 ;;		Unchanged: 0/0
  6997 ;; Data sizes:     COMMON   BANK0   BANK1   BANK3   BANK2
  6998 ;;      Params:         0       0       0       0       0
  6999 ;;      Locals:         0       0       0       0       0
  7000 ;;      Temps:          0       0       0       0       0
  7001 ;;      Totals:         0       0       0       0       0
  7002 ;;Total ram usage:        0 bytes
  7003 ;; Hardware stack levels used: 1
  7004 ;; This function calls:
  7005 ;;		Nothing
  7006 ;; This function is called by:
  7007 ;;		_main
  7008 ;; This function uses a non-reentrant model
  7009 ;;
  7010                           
  7011     0800                     _ADC_Init:	
  7012                           ;psect for function _ADC_Init
  7013                           
  7014     0800                     l2572:	
  7015                           ;incstack = 0
  7016                           ; Regs used in _ADC_Init: [wreg+status,2]
  7017                           
  7018                           
  7019                           ;main.c: 52:     ANSEL = 0b00010000;
  7020     0800  3010               	movlw	16
  7021     0801  1683               	bsf	3,5	;RP0=1, select bank3
  7022     0802  1703               	bsf	3,6	;RP1=1, select bank3
  7023     0803  0088               	movwf	8	;volatile
  7024                           
  7025                           ;main.c: 53:     ADCON0 = 0b10010001;
  7026     0804  3091               	movlw	145
  7027     0805  1283               	bcf	3,5	;RP0=0, select bank0
  7028     0806  1303               	bcf	3,6	;RP1=0, select bank0
  7029     0807  009F               	movwf	31	;volatile
  7030     0808                     l2574:
  7031                           
  7032                           ;main.c: 54:     ADCON1 = 0b00000000;
  7033     0808  1683               	bsf	3,5	;RP0=1, select bank1
  7034     0809  1303               	bcf	3,6	;RP1=0, select bank1
  7035     080A  019F               	clrf	31	;volatile
  7036     080B                     l69:
  7037     080B  0008               	return
  7038     080C                     __end_of_ADC_Init:
  7039     007E                     btemp	set	126	;btemp
  7040     007E                     wtemp0	set	126
  7041                           
  7042                           	psect	config
  7043                           
  7044                           ;Config register CONFIG1 @ 0x2007
  7045                           ;	Oscillator Selection bits
  7046                           ;	FOSC = INTRC_NOCLKOUT, INTOSCIO oscillator: I/O function on RA6/OSC2/CLKOUT pin, I/O f
      +                          unction on RA7/OSC1/CLKIN
  7047                           ;	Watchdog Timer Enable bit
  7048                           ;	WDTE = OFF, WDT disabled and can be enabled by SWDTEN bit of the WDTCON register
  7049                           ;	Power-up Timer Enable bit
  7050                           ;	PWRTE = ON, PWRT enabled
  7051                           ;	RE3/MCLR pin function select bit
  7052                           ;	MCLRE = 0x1, unprogrammed default
  7053                           ;	Code Protection bit
  7054                           ;	CP = OFF, Program memory code protection is disabled
  7055                           ;	Data Code Protection bit
  7056                           ;	CPD = OFF, Data memory code protection is disabled
  7057                           ;	Brown Out Reset Selection bits
  7058                           ;	BOREN = ON, BOR enabled
  7059                           ;	Internal External Switchover bit
  7060                           ;	IESO = 0x1, unprogrammed default
  7061                           ;	Fail-Safe Clock Monitor Enabled bit
  7062                           ;	FCMEN = 0x1, unprogrammed default
  7063                           ;	Low Voltage Programming Enable bit
  7064                           ;	LVP = OFF, RB3 pin has digital I/O, HV on MCLR must be used for programming
  7065                           ;	In-Circuit Debugger Mode bit
  7066                           ;	DEBUG = 0x1, unprogrammed default
  7067     2007                     	org	8199
  7068     2007  2FE4               	dw	12260
  7069                           
  7070                           ;Config register CONFIG2 @ 0x2008
  7071                           ;	Brown-out Reset Selection bit
  7072                           ;	BOR4V = 0x1, unprogrammed default
  7073                           ;	Flash Program Memory Self Write Enable bits
  7074                           ;	WRT = OFF, Write protection off
  7075     2008                     	org	8200
  7076     2008  3FFF               	dw	16383

Data Sizes:
    Strings     0
    Constant    0
    Data        2
    BSS         18
    Persistent  0
    Stack       0

Auto Spaces:
    Space          Size  Autos    Used
    COMMON           14     14      14
    BANK0            80     71      78
    BANK1            80      0      13
    BANK3            96      0       0
    BANK2            96      0       0

Pointer List with Targets:

    dht11_read@phum	PTR float  size(1) Largest target is 4
		 -> hum(BANK1[4]), 

    dht11_read@ptemp	PTR float  size(1) Largest target is 4
		 -> temp(BANK1[4]), 


Critical Paths under _main in COMMON

    _main->_LCD_Goto
    _dht11_read->___xxtofl
    ___fldiv->___xxtofl
    _LCD_Init->_LCD_Write
    _LCD_Clear->_LCD_Write
    _LCD_Goto->_LCD_Write
    _LCD_Float->___flmul
    _LCD_Float->___xxtofl
    ___flsub->___xxtofl
    ___fladd->___xxtofl
    ___flmul->__Umul8_16
    _LCD_Int->___lldiv
    _LCD_Write->_bit_config

Critical Paths under _main in BANK0

    _main->_LCD_Float
    _dht11_read->___fladd
    _LCD_Init->_LCD_Clear
    _LCD_Clear->_LCD_Write
    _LCD_Goto->_LCD_Write
    _LCD_Float->___flsub
    ___flsub->___fladd
    ___fladd->___fldiv
    _LCD_Int->_LCD_Write
    _LCD_Write->_bit_config

Critical Paths under _main in BANK1

    None.

Critical Paths under _main in BANK3

    None.

Critical Paths under _main in BANK2

    None.

Call Graph Tables:

 ---------------------------------------------------------------------------------
 (Depth) Function   	        Calls       Base Space   Used Autos Params    Refs
 ---------------------------------------------------------------------------------
 (0) _main                                                 2     2      0   22408
                                             69 BANK0      2     2      0
                           _ADC_Init
                           _ADC_Read
                          _LCD_Float
                           _LCD_Goto
                           _LCD_Init
                           _PWM_Init
                       _dht11_config
                         _dht11_read
 ---------------------------------------------------------------------------------
 (1) _dht11_read                                          11    10      1    4834
                                             46 BANK0     11    10      1
                            ___fladd
                            ___fldiv
                           ___xxtofl
                    _dht11_read_byte
 ---------------------------------------------------------------------------------
 (2) _dht11_read_byte                                      1     1      0      46
                                              0 COMMON     1     1      0
 ---------------------------------------------------------------------------------
 (2) ___fldiv                                             26    18      8    1425
                                              0 BANK0     26    18      8
                           ___xxtofl (ARG)
 ---------------------------------------------------------------------------------
 (1) _dht11_config                                         2     2      0       0
                                              0 COMMON     2     2      0
 ---------------------------------------------------------------------------------
 (1) _PWM_Init                                             0     0      0       0
 ---------------------------------------------------------------------------------
 (1) _LCD_Init                                             2     2      0    3382
                                             30 BANK0      2     2      0
                          _LCD_Clear
                          _LCD_Write
 ---------------------------------------------------------------------------------
 (2) _LCD_Clear                                            2     2      0    1691
                                             28 BANK0      2     2      0
                          _LCD_Write
 ---------------------------------------------------------------------------------
 (1) _LCD_Goto                                             3     2      1    1979
                                             13 COMMON     1     0      1
                                             28 BANK0      2     2      0
                          _LCD_Write
 ---------------------------------------------------------------------------------
 (1) _LCD_Float                                           15     9      6   12213
                                             54 BANK0     15     9      6
                            _LCD_Int
                          _LCD_Write
                             ___flge
                            ___flmul
                            ___flneg
                            ___flsub
                            ___fltol
                           ___xxtofl
 ---------------------------------------------------------------------------------
 (2) ___xxtofl                                            14    10      4     702
                                              0 COMMON    14    10      4
 ---------------------------------------------------------------------------------
 (2) ___fltol                                             10     6      4     381
                                              0 COMMON    10     6      4
 ---------------------------------------------------------------------------------
 (2) ___flsub                                              8     0      8    2637
                                             46 BANK0      8     0      8
                            ___fladd
                           ___xxtofl (ARG)
 ---------------------------------------------------------------------------------
 (2) ___fladd                                             20    12      8    2440
                                             26 BANK0     20    12      8
                            ___fldiv (ARG)
                           ___xxtofl (ARG)
 ---------------------------------------------------------------------------------
 (2) ___flneg                                              4     0      4     121
                                              0 COMMON     4     0      4
 ---------------------------------------------------------------------------------
 (2) ___flmul                                             26    18      8    2417
                                              9 COMMON     5     5      0
                                              0 BANK0     21    13      8
                          __Umul8_16
 ---------------------------------------------------------------------------------
 (3) __Umul8_16                                            9     7      2     799
                                              0 COMMON     9     7      2
 ---------------------------------------------------------------------------------
 (2) ___flge                                              12     4      8     334
                                              0 COMMON    12     4      8
 ---------------------------------------------------------------------------------
 (2) _LCD_Int                                             18    12      6    3182
                                             28 BANK0     18    12      6
                          _LCD_Write
                            ___fltol (ARG)
                            ___lldiv
                            ___llmod
 ---------------------------------------------------------------------------------
 (3) ___llmod                                             10     2      8     311
                                              0 COMMON    10     2      8
 ---------------------------------------------------------------------------------
 (3) ___lldiv                                             14     6      8     314
                                              0 COMMON    14     6      8
 ---------------------------------------------------------------------------------
 (2) _LCD_Write                                           11    10      1    1691
                                             12 COMMON     1     0      1
                                             18 BANK0     10    10      0
                         _bit_config
 ---------------------------------------------------------------------------------
 (3) _bit_config                                          30    18     12     568
                                              0 COMMON    12     0     12
                                              0 BANK0     18    18      0
 ---------------------------------------------------------------------------------
 (1) _ADC_Read                                             2     0      2       0
                                              0 COMMON     2     0      2
 ---------------------------------------------------------------------------------
 (1) _ADC_Init                                             0     0      0       0
 ---------------------------------------------------------------------------------
 Estimated maximum stack depth 3
 ---------------------------------------------------------------------------------

 Call Graph Graphs:

 _main (ROOT)
   _ADC_Init
   _ADC_Read
   _LCD_Float
     _LCD_Int
       _LCD_Write
         _bit_config
       ___fltol (ARG)
       ___lldiv (ARG)
       ___llmod (ARG)
     _LCD_Write
     ___flge
     ___flmul
       __Umul8_16
     ___flneg
     ___flsub
       ___fladd
         ___fldiv (ARG)
           ___xxtofl (ARG)
         ___xxtofl (ARG)
       ___xxtofl (ARG)
     ___fltol
     ___xxtofl
   _LCD_Goto
     _LCD_Write
   _LCD_Init
     _LCD_Clear
       _LCD_Write
     _LCD_Write
   _PWM_Init
   _dht11_config
   _dht11_read
     ___fladd
     ___fldiv
     ___xxtofl
     _dht11_read_byte

 Address spaces:
Name               Size   Autos  Total    Cost      Usage
BANK3               60      0       0       9        0.0%
BITBANK3            60      0       0       8        0.0%
SFR3                 0      0       0       4        0.0%
BITSFR3              0      0       0       4        0.0%
BANK2               60      0       0      11        0.0%
BITBANK2            60      0       0      10        0.0%
SFR2                 0      0       0       5        0.0%
BITSFR2              0      0       0       5        0.0%
BANK1               50      0       D       7       16.2%
BITBANK1            50      0       0       6        0.0%
SFR1                 0      0       0       2        0.0%
BITSFR1              0      0       0       2        0.0%
BANK0               50     47      4E       5       97.5%
BITBANK0            50      0       0       4        0.0%
SFR0                 0      0       0       1        0.0%
BITSFR0              0      0       0       1        0.0%
COMMON               E      E       E       1      100.0%
BITCOMMON            E      0       0       0        0.0%
CODE                 0      0       0       0        0.0%
DATA                 0      0      69      12        0.0%
ABS                  0      0      69       3        0.0%
NULL                 0      0       0       0        0.0%
STACK                0      0       0       2        0.0%
EEDATA             100      0       0       0        0.0%


Microchip Technology PIC Macro Assembler V2.46 build 20240104201356 
Symbol Table                                                                                   Thu Aug 29 23:05:57 2024

           ___fldiv@aexp 0039             ___fldiv@bexp 0038             ___fldiv@sign 0031  
                     l72 17F5                       l75 17FF                       l69 080B  
                     l78 0833      __Umul8_16@word_mpld 0076                      TMR0 0001  
                    l101 099E                      l104 0A0B                      l202 0FFF  
                    l107 081D                      l204 0EF4                      l125 08C3  
                    l142 0C5B                      l128 0B08                      l208 0F01  
                    l501 0A6C                      l166 0EC6                      l190 08E1  
                    l336 006D                      l504 0A81                      l601 0298  
                    l193 08E5                      l185 08D4                      l530 0947  
                    l196 084E                      l188 08F3                      l605 031B  
                    l622 03E4                      l614 0494                      l703 0749  
                    l607 02F4                      l199 0EE7                      l632 042A  
                    l481 0B91                      l490 17F1                      l626 0408  
                    l716 0887                      l644 0494                      l741 0C7E  
                    l486 0BAA                      l478 0B25                      l718 0899  
                    l494 0A81                      l647 0872                      l743 0D13  
                    l673 01B6                      l657 00C4                      l754 0CDD  
                    l755 0CE9                      l659 023C                      l679 0228  
                    l697 07D9                      _PR2 0092                      _hum 00A9  
                    fsr0 0004                      indf 0000         LCD_Int@positions 0040  
           ___flmul@aexp 002D             ___flmul@bexp 002E             ___flmul@sign 0028  
           ___flmul@temp 0033             ___flmul@prod 002F          __end_of_LCD_Int 0C5C  
           ___fltol@exp1 0079                     l2000 0359                     l2010 03BC  
                   l2002 035A                     l2020 03EC                     l2012 03C0  
                   l2004 0363                     l2100 0813                     l2110 0BFA  
                   l2102 0BAB                     l2030 0407                     l2022 03F1  
                   l2014 03C2                     l2006 0368                     l2120 0C1F  
                   l2112 0C07                     l2104 0BB0                     l2032 040C  
                   l2040 0418                     l2016 03C7                     l2008 037E  
                   l2200 0A31                     l2130 0C46                     l2122 0C20  
                   l2114 0C0A                     l2106 0BD3                     l2034 040F  
                   l2026 03FA                     l2018 03D6                     l2042 041C  
                   l2202 0A32                     l2132 0C4E                     l2116 0C0F  
                   l2124 0C26                     l2108 0BF4                     l2060 0464  
                   l2052 042F                     l2044 041D                     l2036 0411  
                   l2028 0403                     l2204 0A3A                     l2300 011F  
                   l2140 08C8                     l2126 0C37                     l2118 0C19  
                   l2070 047F                     l2054 0434                     l2062 0468  
                   l2046 0421                     l2038 0416                     l2230 084F  
                   l2214 0A48                     l2206 0A3C                     l2302 0124  
                   l2310 0144                     l2150 08DA                     l2142 08CC  
                   l2134 08C4                     l2128 0C3A                     l2400 04BF  
                   l2080 048F                     l2072 0480                     l2064 046D  
                   l2056 0442                     l2048 0427                     l2232 0853  
                   l2224 0A61                     l2216 0A51                     l2208 0A40  
                   l2320 016F                     l2312 0156                     l2304 0136  
                   l2240 0077                     l2160 08F2                     l2144 08D2  
                   l2170 0B41                     l2090 0881                     l2410 04D2  
                   l2402 04C4                     l2082 0493                     l2074 0484  
                   l2066 0472                     l2058 0446                     l2226 0A71  
                   l2218 0A5A                     l2330 0187                     l2322 0177  
                   l2314 0157                     l2306 013A                     l2250 008E  
                   l2242 007B                     l2180 0BA9                     l2172 0B45  
                   l2164 0B09                     l2092 0890                     l2084 0874  
                   l2500 0784                     l2420 04EE                     l2412 04D7  
                   l2404 04C8                     l2076 0486                     l2068 047A  
                   l2228 0A76                     l2340 019F                     l2332 0190  
                   l2324 0179                     l2316 0165                     l2308 013B  
                   l2260 00A2                     l2252 008F                     l2244 007C  
                   l2236 006E                     l2156 08E8                     l2148 08D8  
                   l2174 0B69                     l2166 0B1D                     l2094 0895  
                   l2086 0876                     l2510 07B7                     l2502 0791  
                   l2430 0517                     l2422 04F3                     l2414 04DF  
                   l2406 04CC                     l2078 048A                     l2350 01CE  
                   l2342 01B3                     l2326 0182                     l2334 0196  
                   l2318 0169                     l2270 00B9                     l2262 00A6  
                   l2246 0081                     l2254 0091                     l2238 0073  
                   l2158 08EC                     l2176 0B6D                     l2168 0B39  
                   l2088 087D                     l2520 07D1                     l2512 07C3  
                   l2504 079C                     l2440 05B0                     l2432 0532  
                   l2416 04E1                     l2408 04CD                     l2184 17E7  
                   l2192 0A0C                     l2600 0A89                     l2360 020C  
                   l2352 01D2                     l2336 019A                     l2328 0186  
                   l2280 00DC                     l2272 00BA                     l2264 00A7  
                   l2256 0099                     l2248 0086                     l1810 0948  
                   l2178 0BA7                     l2514 07C7                     l2506 07AB  
                   l2450 060F                     l2442 05B9                     l2434 054E  
                   l2426 04FC                     l2418 04E9                     l2186 17EF  
                   l2194 0A15                     l2530 0C76                     l2098 080C  
                   l2610 0AA9                     l2602 0A8C                     l2370 0230  
                   l2362 021B                     l2354 01EB                     l2346 01BB  
                   l2338 019B                     l2290 00F3                     l2266 00AC  
                   l2274 00BC                     l2258 009E                     l1812 0952  
                   l1820 09A3                     l2516 07C8                     l2508 07B5  
                   l2460 06A7                     l2452 0626                     l2444 05C7  
                   l2436 0578                     l2428 050A                     l2188 17F1  
                   l1900 025E                     l2540 0C96                     l2532 0C86  
                   l2524 0C5D                     l2700 08AE                     l2620 0AC6  
                   l2612 0AAC                     l2604 0A8D                     l2372 0232  
                   l2364 021F                     l2348 01C0                     l2356 01F1  
                   l2292 0105                     l2276 00CC                     l2284 00E5  
                   l2268 00B1                     l1814 0996                     l1830 09DE  
                   l1822 09AE                     l2518 07CD                     l2470 0715  
                   l2462 06CD                     l2454 0643                     l2446 05E4  
                   l2438 0594                     l2390 04A3                     l2382 0495  
                   l1910 0272                     l1902 0260                     l2198 0A1E  
                   l2550 0CC1                     l2542 0C9F                     l2526 0C62  
                   l2710 0DFC                     l2702 08BC                     l2630 0AFA  
                   l2622 0ACE                     l2614 0AB5                     l2606 0A9C  
                   l2374 0236                     l2366 0227                     l2358 01FE  
                   l2294 010D                     l2286 00EA                     l2278 00D8  
                   l1832 0A09                     l1824 09D9                     l1840 001B  
                   l2480 072D                     l2472 0719                     l2464 06F5  
                   l2456 066E                     l2448 05F2                     l2392 04A8  
                   l2384 049A                     l1920 0285                     l1912 0276  
                   l1904 0268                     l2560 0CEB                     l2552 0CC8  
                   l2544 0CA6                     l2536 0C8F                     l2528 0C66  
                   l2720 0E78                     l2712 0E15                     l2704 0DD0  
                   l2632 0B01                     l2624 0AD5                     l2616 0AB8  
                   l2608 0A9D                     l2640 084A                     l2368 022C  
                   l2296 0115                     l1834 0A0A                     l1826 09DA  
                   l1818 09A2                     l1850 0047                     l1842 0024  
                   l2490 074E                     l2482 072E                     l2474 071A  
                   l2466 06FE                     l2458 067C                     l2394 04AD  
                   l2386 049E                     l1930 02A2                     l1922 028D  
                   l1914 027A                     l1906 026B                     l2562 0D01  
                   l2554 0CD3                     l2546 0CAA                     l2538 0C92  
                   l2722 0E7D                     l2714 0E2F                     l2706 0DEB  
                   l2626 0AE1                     l2618 0AC5                     l2642 084D  
                   l2634 0834                     l2298 011D                     l2650 0EDC  
                   l2730 0D14                     l2572 0800                     l1828 09DB  
                   l1852 0055                     l1844 0028                     l1836 0008  
                   l2492 0753                     l2484 0732                     l2476 0723  
                   l2468 070C                     l2396 04B5                     l2388 04A2  
                   l1940 02AE                     l1932 02A6                     l1924 028E  
                   l1916 027B                     l1908 0271                     l2564 0D06  
                   l2556 0CD7                     l2548 0CB8                     l2724 0E9C  
                   l2716 0E5E                     l2708 0DF4                     l2628 0AEC  
                   l2636 083A                     l2652 0EE0                     l2644 0ECA  
                   l2740 0D35                     l2732 0D1E                     l2574 0808  
                   l1854 0056                     l1846 002C                     l1838 0018  
                   l1870 090C                     l1862 08F4                     l2494 0761  
                   l2486 0746                     l2478 0729                     l2398 04B7  
                   l1950 02B8                     l1942 02B0                     l1934 02A8  
                   l1918 0280                     l1926 0290                     l2566 0D0A  
                   l2558 0CE1                     l2726 0EA0                     l2718 0E70  
                   l2590 0831                     l2582 081E                     l2638 0842  
                   l2662 0EF8                     l2646 0ECE                     l2750 0D3D  
                   l2742 0D36                     l2734 0D28                     l2576 17F2  
                   l1856 005F                     l1848 0035                     l1872 0910  
                   l1864 08FC                     l1880 093F                     l2496 0765  
                   l1960 02C2                     l1952 02BA                     l1944 02B2  
                   l1936 02AA                     l1928 029E                     l2568 0D0B  
                   l2728 0EA6                     l2592 0832                     l2584 0821  
                   l2680 0F19                     l2664 0EFA                     l2656 0EEB  
                   l2648 0ED9                     l2760 0D49                     l2752 0D3F  
                   l2744 0D37                     l2736 0D2D                     l2578 17F9  
                   l1858 0065                     l1874 0922                     l1866 08FF  
                   l2498 077E                     l1970 02FF                     l1954 02BC  
                   l1946 02B4                     l1938 02AC                     l1962 02C4  
                   l1890 024A                     l2690 089E                     l2594 0A82  
                   l2586 0827                     l2682 0F1D                     l2674 0F06  
                   l2658 0EED                     l2770 0D81                     l2762 0D4A  
                   l2754 0D43                     l2746 0D3A                     l2738 0D32  
                   l1876 0930                     l1868 0908                     l1972 0301  
                   l1980 0313                     l1964 02C5                     l1956 02BE  
                   l1948 02B6                     l1892 024B                     l1884 023D  
                   l2692 08A2                     l2596 0A87                     l2588 082B  
                   l2684 0F23                     l2668 0F05                     l2780 0DC2  
                   l2772 0DA2                     l2764 0D52                     l2756 0D45  
                   l2748 0D3B                     l1878 0939                     l1990 0344  
                   l1982 031F                     l1974 0305                     l1966 02DC  
                   l1958 02C0                     l1894 0250                     l1886 0242  
                   l2694 08A6                     l2598 0A88                     l2678 0F11  
                   l2782 0DC6                     l2774 0DAA                     l2766 0D59  
                   l2758 0D48                     l1992 0348                     l1984 0324  
                   l1976 0306                     l1968 02F8                     l1896 0255  
                   l1888 0246                     l2696 08AA                     l2688 089D  
                   l2784 0DCB                     l2776 0DB5                     l2768 0D7A  
                   l1994 034C                     l1978 030F                     l1898 025D  
                   l2778 0DC0                     l1996 0353                     l1988 032D  
                   l1998 0355                     u2010 0047                     u2011 0046  
                   u2100 024A                     u2005 002E                     u2101 0249  
                   u2030 0065                     u2110 0250                     u2031 0064  
                   u2015 0043                     u2111 024F                     u2040 08FC  
                   u2200 02E7                     u2120 0255                     u3000 0156  
                   u2025 0057                     u2041 08FB                     u2201 02E5  
                   u2121 0254                     u3001 0155                     u2210 02E8  
                   u2130 0271                     u3010 016F                     u2131 0270  
                   u3011 016E                     u2060 0910                     u2300 034C  
                   u2220 02F8                     u2140 027A                     u3100 01C0  
                   u3020 0177                     u2061 090F                     u2301 034B  
                   u2221 02F7                     u2141 0279                     u3101 01BF  
                   u3021 0176                     u3005 0152                     u2070 0922  
                   u2310 0359                     u2230 0305                     u2150 0280  
                   u3110 01D2                     u2071 0921                     u2055 0901  
                   u2311 0358                     u2231 0304                     u2151 027F  
                   u3111 01D1                     u3200 04D2                     u2400 0407  
                   u2160 0285                     u3120 01E1                     u3040 0186  
                   u3201 04D1                     u2401 0406                     u2161 0284  
                   u3041 0185                     u2090 093F                     u3210 04D7  
                   u2410 040C                     u2330 037E                     u2250 031B  
                   u2170 029E                     u3130 01FE                     u2091 093E  
                   u2075 091E                     u3211 04D6                     u2411 040B  
                   u2331 037D                     u2251 031A                     u2171 029D  
                   u3131 01FD                     u3035 017B                     u3220 04EE  
                   u2500 0464                     u2420 0416                     u2260 031F  
                   u2180 02A2                     u3140 021B                     u3060 019A  
                   u2085 0931                     u3301 0601                     u3221 04ED  
                   u2501 0463                     u2421 0415                     u2341 0395  
                   u2333 037A                     u2325 035C                     u2261 031E  
                   u2245 0308                     u2181 02A1                     u3141 021A  
                   u3125 01DC                     u3061 0199                     u3302 0608  
                   u3230 04F3                     u2510 046D                     u2430 041C  
                   u2350 03A9                     u2342 0396                     u2270 0324  
                   u2190 02DC                     u3150 0230                     u3070 019F  
                   u3303 060F                     u3231 04F2                     u2511 046C  
                   u2431 041B                     u2351 03AA                     u2343 039B  
                   u2271 0323                     u2191 02DB                     u3151 022F  
                   u3135 01FA                     u3071 019E                     u3055 0189  
                   u2600 0C0F                     u3160 04A2                     u2520 0472  
                   u2440 0421                     u2360 03C7                     u2352 03AF  
                   u2344 039C                     u3080 01B3                     u2601 0C0E  
                   u3321 0635                     u3241 0540                     u3161 04A1  
                   u2521 0471                     u2441 0420                     u2361 03C6  
                   u2353 03B0                     u2345 03A1                     u2281 0336  
                   u3145 0217                     u3081 01B2                     u2610 0C19  
                   u3410 0719                     u3322 063C                     u3242 0547  
                   u3170 04A8                     u2530 047F                     u2450 0427  
                   u2370 03EC                     u2346 03A2                     u2290 0348  
                   u2282 033D                     u3090 01BA                     u2611 0C18  
                   u3411 0718                     u3331 0660                     u3323 0643  
                   u3315 0611                     u3251 055C                     u3243 054E  
                   u3171 04A7                     u2531 047E                     u2451 0426  
                   u2371 03EB                     u2291 0347                     u2283 0344  
                   u2195 02D8                     u3091 01B9                     u2620 0C37  
                   u2700 0B39                     u3500 0791                     u3332 0667  
                   u3252 0563                     u3180 04AD                     u2540 0484  
                   u2460 042E                     u2380 03F1                     u2621 0C36  
                   u2701 0B38                     u3501 0790                     u3405 070E  
                   u3341 068B                     u3333 066E                     u3261 0586  
                   u3253 056A                     u3181 04AC                     u2541 0483  
                   u2461 042D                     u2381 03F0                     u2630 0C5B  
                   u2710 0B45                     u3510 07AB                     u3430 072D  
                   u3350 06B3                     u3342 0692                     u3262 058D  
                   u3190 04CC                     u2550 0493                     u2470 0434  
                   u2631 0C5A                     u2711 0B44                     u3511 07AA  
                   u3431 072C                     u3343 0699                     u3271 05A2  
                   u3263 0594                     u3191 04CB                     u2551 0492  
                   u2471 0433                     _PIE1 008C                     u2560 0881  
                   u3520 07C7                     u3440 0732                     u3272 05A9  
                   u2480 0446                     u2800 0A47                     u2640 08D2  
                   u2625 0C33                     u2721 0B54                     u2561 0880  
                   u3521 07C6                     u3505 078D                     u3441 0731  
                   u3425 071C                     u3361 06BF                     u3273 05B0  
                   u2481 0445                     u2801 0A46                     u2641 08D1  
                   u2730 0B6D                     u2722 0B55                     u3450 0746  
                   u3370 06DB                     u3362 06C6                     u2490 0455  
                   u3610 0CD7                     u3530 0C62                     u2650 08D8  
                   u2635 0C57                     u2731 0B6C                     u2723 0B5A  
                   u3515 07A7                     u3451 0745                     u3363 06CD  
                   u3355 06AE                     u3291 05D6                     u2395 03FC  
                   u3611 0CD6                     u3531 0C61                     u2651 08D7  
                   u2724 0B5B                     u2580 0895                     u3460 074D  
                   u3292 05DD                     u2820 0A59                     u3620 0CDD  
                   u3540 0C66                     u2900 00A6                     u2660 08E0  
                   u3700 0EF3                     u2741 0B7C                     u2725 0B60  
                   u2581 0894                     u3461 074C                     u3381 06E7  
                   u3293 05E4                     u3285 05B2                     u2821 0A58  
                   u3621 0CDC                     u3605 0CCC                     u3541 0C65  
                   u2901 00A5                     u2661 08DF                     u3701 0EF2  
                   u2590 0C07                     u2750 0BA7                     u2742 0B7D  
                   u2726 0B61                     u3470 0753                     u3382 06EE  
                   u2830 0A60                     u3630 0CE1                     u3550 0C86  
                   u2910 00AC                     u2670 08E5                     u3710 0EF8  
                   u2591 0C06                     u2751 0BA6                     u2743 0B82  
                   u2575 0888                     u3471 0752                     u3383 06F5  
                   u3375 06D6                     u2495 0450                     u2831 0A5F  
                   u2815 0A49                     u3631 0CE0                     u3551 0C85  
                   u2911 00AB                     u2671 08E4                     u3711 0EF7  
                   u2744 0B83                     u3480 0765                     u2760 17EF  
                   u3640 0CF6                     u2920 00B1                     u2680 08F2  
                   u3720 0F00                     u2745 0B88                     u3481 0764  
                   u2761 17EE                     u2921 00B0                     u2681 08F1  
                   u3721 0EFF                     u1954 095C                     u1970 0018  
                   u2746 0B89                     u2690 0B1D                     u3490 0774  
                   u2850 0A71                     u2770 0A15                     u3650 0D06  
                   u3570 0CA5                     u2930 00CC                     u3730 0F05  
                   u1955 0959                     u1971 0017                     u2595 0C03  
                   u2755 0BA3                     u2691 0B1C                     u3395 06F7  
                   u2851 0A70                     u2771 0A14                     u3651 0D05  
                   u3571 0CA4                     u2931 00CB                     u3731 0F04  
                   u2860 0A76                     u2780 0A2C                     u3660 0D0A  
                   u2940 00EA                     u3740 0F10                     u1965 09A6  
                   u2861 0A75                     u2845 0A63                     u3661 0D09  
                   u3645 0CF1                     u3565 0C97                     u2941 00E9  
                   u3741 0F0F                     u3670 17F9                     u1990 002C  
                   u2790 0A40                     u3590 0CC7                     u2950 0124  
                   u2870 007B                     u3750 0F23                     u3671 17F8  
                   u1991 002B                     u3495 076F                     u2791 0A3F  
                   u3591 0CC6                     u2951 0123                     u2871 007A  
                   u3751 0F22                     u3760 0DEB                     u2880 0081  
                   u3680 0EE6                     u1985 001D                     u2785 0A27  
                   u3585 0CB9                     u3761 0DEA                     u2881 0080  
                   u3681 0EE5                     u3770 0EA6                     u2890 0086  
                   u3690 0EEB                     u3771 0EA5                     u3907 0AA4  
                   u2891 0085                     u3691 0EEA                     u2980 013A  
                   u3780 0DAA                     u3917 0AB1                     u2981 0139  
                   u2965 0126                     u3781 0DA9                     u3790 0DC6  
                   u3927 0ABD                     u2975 012F                     u3791 0DC5  
                   u3937 0ACB                     u3947 0AD9                     u2995 013D  
                   u3867 0ED4                     u3957 0AE7                     u3877 083E  
                   u3967 0AF7                     u3887 0847                     u3977 0B05  
                   u3897 0A94                     u3987 0819                     _TMR0 0001  
                   _main 0D14                     _temp 00A5                     btemp 007E  
       __end_of_ADC_Init 080C         __end_of_ADC_Read 1800                     start 0000  
        ___fldiv@new_exp 0032              LCD_Goto@pos 007D              LCD_Goto@row 003C  
       __end_of_LCD_Init 0B09         __end_of_LCD_Goto 08C4             _dht11_config 0834  
          ___fltol@sign1 0078          __end_of___fladd 0495                    ?_main 0070  
        __end_of___fldiv 023D          __end_of___flneg 17F2          __end_of___flmul 07DA  
        __end_of___flsub 0873          __end_of___fltol 0A82                    _ANSEL 0188  
        __end_of___lldiv 006E                    _T1CON 0010          __end_of___llmod 0948  
                  _TMR1H 000F                    _TMR1L 000E                    _PORTB 0006  
                  _TRISB 0086              LCD_Write@RS 007C         __end_of_PWM_Init 0834  
                  status 0003                    wtemp0 007E             LCD_Int@value 003C  
           LCD_Int@zeros 0041             LCD_Goto@data 003D          __initialization 07DA  
           __end_of_main 0DD0                   ??_main 0065        __end_of_LCD_Clear 081E  
      __end_of_LCD_Float 0EC7                ??_LCD_Int 0042        __end_of_LCD_Write 0A0C  
                 _ADCON0 001F                   _ADCON1 009F         ___llmod@dividend 0074  
                 _ADRESH 001E                   _ADRESL 009E                   _CCPR1L 0015  
                 _INTCON 000B                   _TMR1IF 0060                   _TMR1ON 0080  
       __end_of___xxtofl 0D14                   ___flge 0B09                ??___fladd 0042  
              ??___fldiv 0028                ??___flneg 0074                ??___flmul 0079  
              ??___flsub 007E                ??___fltol 0074                ??___lldiv 0078  
              ??___llmod 0078                   _led_on 006C           dht11_read@phum 0057  
              ?_ADC_Init 0070                ?_ADC_Read 0070               ___flge@ff1 0070  
             ___flge@ff2 0074             ___xxtofl@arg 007A             ___xxtofl@exp 0079  
           ___xxtofl@val 0070  __end_of__initialization 07FC                ?_LCD_Init 0070  
              ?_LCD_Goto 007D               ___flneg@f1 0070               ___fltol@f1 0070  
         __pcstackCOMMON 0070               _dht11_byte 00A0               _dht11_read 0EC7  
           __pidataBANK0 0006                ?_PWM_Init 0070           _OPTION_REGbits 0081  
             ??_ADC_Init 0070               ??_ADC_Read 0072               __pbssBANK0 0067  
             __pbssBANK1 00A0               ??_LCD_Init 003E               ??_LCD_Goto 007E  
      __end_of__Umul8_16 089A               __pmaintext 0D14                  ?___flge 0070  
             _bit_config 0948           bit_config@word 0070               ??_PWM_Init 0070  
                _LCD_Int 0BAB                ?___xxtofl 0070            LCD_Write@data 003B  
            ?_dht11_read 004E                  ___fladd 023D                  ___fldiv 006E  
                ___flneg 17E7                  ___flmul 0495                  ___flsub 084F  
                ___fltol 0A0C                  ___lldiv 0008                  ___llmod 08F4  
              _ANSELbits 0188                  __ptext1 0EC7                  __ptext2 08C4  
                __ptext3 006E                  __ptext4 0834                  __ptext5 081E  
                __ptext6 0A82                  __ptext7 080C                  __ptext8 089A  
                __ptext9 0DD0          dht11_read@ptemp 004E                _T2CONbits 0012  
             ??___xxtofl 0074               _duty_cycle 0069                _LCD_Clear 080C  
      ??_dht11_read_byte 0070                _LCD_Float 0DD0                _LCD_Write 099F  
   end_of_initialization 07FC           LCD_Float@Bruch 0061          ___lldiv@divisor 0070  
        ___lldiv@counter 007D           LCD_Float@value 0056              ?_bit_config 0070  
     LCD_Float@positions 005A                _PORTAbits 0005                _PORTCbits 0007  
            ___fladd@grs 004D            ___xxtofl@sign 0078                _TRISAbits 0085  
              _TRISCbits 0087               ?_LCD_Clear 0070               ?_LCD_Float 0056  
            ___fldiv@grs 0034              ___fldiv@rem 002D               ?_LCD_Write 007C  
            ___flmul@grs 0029              _CCP1CONbits 0017               LCD_Float@i 005C  
             LCD_Int@buf 0044     LCD_Float@decimal_pos 005B           __end_of___flge 0BAB  
    start_initialization 07DA          ___llmod@divisor 0070          ___llmod@counter 0079  
               ??___flge 0078                __Umul8_16 0873              __pdataBANK0 006C  
          ?_dht11_config 0070                ___fladd@a 003E                ___fladd@b 003A  
              ___fldiv@a 0020                ___fldiv@b 0024                 ?_LCD_Int 003C  
              ___flmul@a 0024                ___flmul@b 0020                ___flsub@a 004E  
              ___flsub@b 0052                ___latbits 0002            __pcstackBANK0 0020  
               LCD_Int@i 004C              ??_LCD_Clear 003C                _dht11_aux 006B  
            ??_LCD_Float 007E              ??_LCD_Write 0032              dht11_read@i 0058  
   bit_config@bit_number 0074             ??_dht11_read 004F                 ?___fladd 003A  
               ?___fldiv 0020                 ?___flneg 0070                 ?___flmul 0020  
               ?___flsub 004E                 ?___fltol 0070                 ?___lldiv 0070  
               ?___llmod 0070               ?__Umul8_16 0070           ??_dht11_config 0070  
        _dht11_read_byte 08C4                 _ADC_Init 0800                 _ADC_Read 17F2  
     __end_of_dht11_read 1000                 _LCD_Init 0A82                 _LCD_Goto 089A  
               _GO_nDONE 00F9             ??_bit_config 0020                _pot_value 0067  
               _PWM_Init 081E       __end_of_bit_config 099F       LCD_Write@character 003A  
__end_of_dht11_read_byte 08F4              ??__Umul8_16 0072                 ___xxtofl 0C5C  
    bit_config@bit_value 0078                 __ptext10 0C5C                 __ptext11 0A0C  
               __ptext20 0008                 __ptext12 084F                 __ptext21 099F  
               __ptext13 023D                 __ptext22 0948                 __ptext14 17E7  
               __ptext23 17F2                 __ptext15 0495                 __ptext24 0800  
               __ptext16 0873                 __ptext17 0B09                 __ptext18 0BAB  
               __ptext19 08F4     __end_of_dht11_config 084F         dht11_read_byte@i 0070  
       ___lldiv@dividend 0074      bit_config@word_temp 002E         ?_dht11_read_byte 0070  
        LCD_Float@number 005D   __Umul8_16@multiplicand 0070         ___lldiv@quotient 0079  
          ___fladd@signs 004A             ___fladd@aexp 004B             ___fladd@bexp 004C  
   __Umul8_16@multiplier 0078        __Umul8_16@product 0074  
