

Microchip MPLAB XC8 Assembler V2.46 build 20240104201356 
                                                                                               Thu Aug 29 23:59:59 2024

Microchip MPLAB XC8 C Compiler v2.46 (Free license) build 20240104201356 Og1 
     1                           	processor	16F886
     2                           	pagewidth 120
     3                           	opt	flic
     4                           	psect	idataCOMMON,global,class=CODE,delta=2,noexec
     5                           	psect	idataBANK0,global,class=CODE,delta=2,noexec
     6                           	psect	cinit,global,class=CODE,merge=1,delta=2
     7                           	psect	bssCOMMON,global,class=COMMON,space=1,delta=1,noexec
     8                           	psect	dataCOMMON,global,class=COMMON,space=1,delta=1,noexec
     9                           	psect	dataBANK0,global,class=BANK0,space=1,delta=1,noexec
    10                           	psect	bssBANK1,global,class=BANK1,space=1,delta=1,noexec
    11                           	psect	clrtext,global,class=CODE,delta=2
    12                           	psect	cstackBANK1,global,class=BANK1,space=1,delta=1,noexec
    13                           	psect	cstackCOMMON,global,class=COMMON,space=1,delta=1,noexec
    14                           	psect	cstackBANK0,global,class=BANK0,space=1,delta=1,noexec
    15                           	psect	maintext,global,class=CODE,split=1,delta=2
    16                           	psect	text1,local,class=CODE,merge=1,delta=2
    17                           	psect	text2,local,class=CODE,merge=1,delta=2
    18                           	psect	text3,local,class=CODE,merge=1,delta=2,group=1
    19                           	psect	text4,local,class=CODE,merge=1,delta=2
    20                           	psect	text5,local,class=CODE,merge=1,delta=2
    21                           	psect	text6,local,class=CODE,merge=1,delta=2
    22                           	psect	text7,local,class=CODE,merge=1,delta=2
    23                           	psect	text8,local,class=CODE,merge=1,delta=2
    24                           	psect	text9,local,class=CODE,merge=1,delta=2
    25                           	psect	text10,local,class=CODE,merge=1,delta=2,group=1
    26                           	psect	text11,local,class=CODE,merge=1,delta=2,group=1
    27                           	psect	text12,local,class=CODE,merge=1,delta=2,group=1
    28                           	psect	text13,local,class=CODE,merge=1,delta=2,group=1
    29                           	psect	text14,local,class=CODE,merge=1,delta=2,group=1
    30                           	psect	text15,local,class=CODE,merge=1,delta=2,group=1
    31                           	psect	text16,local,class=CODE,merge=1,delta=2,group=1
    32                           	psect	text17,local,class=CODE,merge=1,delta=2,group=1
    33                           	psect	text18,local,class=CODE,merge=1,delta=2
    34                           	psect	text19,local,class=CODE,merge=1,delta=2,group=1
    35                           	psect	text20,local,class=CODE,merge=1,delta=2,group=1
    36                           	psect	text21,local,class=CODE,merge=1,delta=2
    37                           	psect	text22,local,class=CODE,merge=1,delta=2
    38                           	psect	text23,local,class=CODE,merge=1,delta=2
    39                           	psect	text24,local,class=CODE,merge=1,delta=2
    40                           	psect	text25,local,class=CODE,merge=1,delta=2
    41                           	psect	intentry,global,class=CODE,delta=2
    42                           	psect	config,global,abs,ovrld,class=CONFIG,space=4,delta=2,noexec
    43                           	dabs	1,0x7E,2
    44     0000                     
    45                           ; Generated 12/10/2023 GMT
    46                           ; 
    47                           ; Copyright © 2023, Microchip Technology Inc. and its subsidiaries ("Microchip")
    48                           ; All rights reserved.
    49                           ; 
    50                           ; This software is developed by Microchip Technology Inc. and its subsidiaries ("Microch
      +                          ip").
    51                           ; 
    52                           ; Redistribution and use in source and binary forms, with or without modification, are
    53                           ; permitted provided that the following conditions are met:
    54                           ; 
    55                           ;     1. Redistributions of source code must retain the above copyright notice, this lis
      +                          t of
    56                           ;        conditions and the following disclaimer.
    57                           ; 
    58                           ;     2. Redistributions in binary form must reproduce the above copyright notice, this 
      +                          list
    59                           ;        of conditions and the following disclaimer in the documentation and/or other
    60                           ;        materials provided with the distribution. Publication is not required when
    61                           ;        this file is used in an embedded application.
    62                           ; 
    63                           ;     3. Microchip's name may not be used to endorse or promote products derived from th
      +                          is
    64                           ;        software without specific prior written permission.
    65                           ; 
    66                           ; THIS SOFTWARE IS PROVIDED BY MICROCHIP "AS IS" AND ANY EXPRESS OR IMPLIED WARRANTIES,
    67                           ; INCLUDING, BUT NOT LIMITED TO, THE IMPLIED WARRANTIES OF MERCHANTABILITY AND FITNESS F
      +                          OR
    68                           ; PURPOSE ARE DISCLAIMED.  IN NO EVENT SHALL MICROCHIP BE LIABLE FOR ANY DIRECT, INDIREC
      +                          T,
    69                           ; INCIDENTAL, SPECIAL, EXEMPLARY, OR CONSEQUENTIAL DAMAGES (INCLUDING BUT NOT LIMITED TO
    70                           ; PROCUREMENT OF SUBSTITUTE GOODS OR SERVICES; LOSS OF USE, DATA OR PROFITS; OR BUSINESS
    71                           ; INTERRUPTION) HOWSOEVER CAUSED AND ON ANY THEORY OF LIABILITY, WHETHER IN CONTRACT, ST
      +                          RICT
    72                           ; LIABILITY, OR TORT (INCLUDING NEGLIGENCE OR OTHERWISE) ARISING IN ANY WAY OUT OF THE U
      +                          SE OF
    73                           ; THIS SOFTWARE, EVEN IF ADVISED OF THE POSSIBILITY OF SUCH DAMAGE.
    74                           ; 
    75                           ; 
    76                           ; Code-generator required, PIC16F886 Definitions
    77                           ; 
    78                           ; SFR Addresses
    79     0000                     	;# 
    80     0001                     	;# 
    81     0002                     	;# 
    82     0003                     	;# 
    83     0004                     	;# 
    84     0005                     	;# 
    85     0006                     	;# 
    86     0007                     	;# 
    87     0009                     	;# 
    88     000A                     	;# 
    89     000B                     	;# 
    90     000C                     	;# 
    91     000D                     	;# 
    92     000E                     	;# 
    93     000E                     	;# 
    94     000F                     	;# 
    95     0010                     	;# 
    96     0011                     	;# 
    97     0012                     	;# 
    98     0013                     	;# 
    99     0014                     	;# 
   100     0015                     	;# 
   101     0015                     	;# 
   102     0016                     	;# 
   103     0017                     	;# 
   104     0018                     	;# 
   105     0019                     	;# 
   106     001A                     	;# 
   107     001B                     	;# 
   108     001B                     	;# 
   109     001C                     	;# 
   110     001D                     	;# 
   111     001E                     	;# 
   112     001F                     	;# 
   113     0081                     	;# 
   114     0085                     	;# 
   115     0086                     	;# 
   116     0087                     	;# 
   117     0089                     	;# 
   118     008C                     	;# 
   119     008D                     	;# 
   120     008E                     	;# 
   121     008F                     	;# 
   122     0090                     	;# 
   123     0091                     	;# 
   124     0092                     	;# 
   125     0093                     	;# 
   126     0093                     	;# 
   127     0093                     	;# 
   128     0094                     	;# 
   129     0095                     	;# 
   130     0096                     	;# 
   131     0097                     	;# 
   132     0098                     	;# 
   133     0099                     	;# 
   134     009A                     	;# 
   135     009B                     	;# 
   136     009C                     	;# 
   137     009D                     	;# 
   138     009E                     	;# 
   139     009F                     	;# 
   140     0105                     	;# 
   141     0107                     	;# 
   142     0108                     	;# 
   143     0109                     	;# 
   144     010C                     	;# 
   145     010C                     	;# 
   146     010D                     	;# 
   147     010E                     	;# 
   148     010F                     	;# 
   149     0185                     	;# 
   150     0187                     	;# 
   151     0188                     	;# 
   152     0189                     	;# 
   153     018C                     	;# 
   154     018D                     	;# 
   155     0000                     	;# 
   156     0001                     	;# 
   157     0002                     	;# 
   158     0003                     	;# 
   159     0004                     	;# 
   160     0005                     	;# 
   161     0006                     	;# 
   162     0007                     	;# 
   163     0009                     	;# 
   164     000A                     	;# 
   165     000B                     	;# 
   166     000C                     	;# 
   167     000D                     	;# 
   168     000E                     	;# 
   169     000E                     	;# 
   170     000F                     	;# 
   171     0010                     	;# 
   172     0011                     	;# 
   173     0012                     	;# 
   174     0013                     	;# 
   175     0014                     	;# 
   176     0015                     	;# 
   177     0015                     	;# 
   178     0016                     	;# 
   179     0017                     	;# 
   180     0018                     	;# 
   181     0019                     	;# 
   182     001A                     	;# 
   183     001B                     	;# 
   184     001B                     	;# 
   185     001C                     	;# 
   186     001D                     	;# 
   187     001E                     	;# 
   188     001F                     	;# 
   189     0081                     	;# 
   190     0085                     	;# 
   191     0086                     	;# 
   192     0087                     	;# 
   193     0089                     	;# 
   194     008C                     	;# 
   195     008D                     	;# 
   196     008E                     	;# 
   197     008F                     	;# 
   198     0090                     	;# 
   199     0091                     	;# 
   200     0092                     	;# 
   201     0093                     	;# 
   202     0093                     	;# 
   203     0093                     	;# 
   204     0094                     	;# 
   205     0095                     	;# 
   206     0096                     	;# 
   207     0097                     	;# 
   208     0098                     	;# 
   209     0099                     	;# 
   210     009A                     	;# 
   211     009B                     	;# 
   212     009C                     	;# 
   213     009D                     	;# 
   214     009E                     	;# 
   215     009F                     	;# 
   216     0105                     	;# 
   217     0107                     	;# 
   218     0108                     	;# 
   219     0109                     	;# 
   220     010C                     	;# 
   221     010C                     	;# 
   222     010D                     	;# 
   223     010E                     	;# 
   224     010F                     	;# 
   225     0185                     	;# 
   226     0187                     	;# 
   227     0188                     	;# 
   228     0189                     	;# 
   229     018C                     	;# 
   230     018D                     	;# 
   231     0000                     	;# 
   232     0001                     	;# 
   233     0002                     	;# 
   234     0003                     	;# 
   235     0004                     	;# 
   236     0005                     	;# 
   237     0006                     	;# 
   238     0007                     	;# 
   239     0009                     	;# 
   240     000A                     	;# 
   241     000B                     	;# 
   242     000C                     	;# 
   243     000D                     	;# 
   244     000E                     	;# 
   245     000E                     	;# 
   246     000F                     	;# 
   247     0010                     	;# 
   248     0011                     	;# 
   249     0012                     	;# 
   250     0013                     	;# 
   251     0014                     	;# 
   252     0015                     	;# 
   253     0015                     	;# 
   254     0016                     	;# 
   255     0017                     	;# 
   256     0018                     	;# 
   257     0019                     	;# 
   258     001A                     	;# 
   259     001B                     	;# 
   260     001B                     	;# 
   261     001C                     	;# 
   262     001D                     	;# 
   263     001E                     	;# 
   264     001F                     	;# 
   265     0081                     	;# 
   266     0085                     	;# 
   267     0086                     	;# 
   268     0087                     	;# 
   269     0089                     	;# 
   270     008C                     	;# 
   271     008D                     	;# 
   272     008E                     	;# 
   273     008F                     	;# 
   274     0090                     	;# 
   275     0091                     	;# 
   276     0092                     	;# 
   277     0093                     	;# 
   278     0093                     	;# 
   279     0093                     	;# 
   280     0094                     	;# 
   281     0095                     	;# 
   282     0096                     	;# 
   283     0097                     	;# 
   284     0098                     	;# 
   285     0099                     	;# 
   286     009A                     	;# 
   287     009B                     	;# 
   288     009C                     	;# 
   289     009D                     	;# 
   290     009E                     	;# 
   291     009F                     	;# 
   292     0105                     	;# 
   293     0107                     	;# 
   294     0108                     	;# 
   295     0109                     	;# 
   296     010C                     	;# 
   297     010C                     	;# 
   298     010D                     	;# 
   299     010E                     	;# 
   300     010F                     	;# 
   301     0185                     	;# 
   302     0187                     	;# 
   303     0188                     	;# 
   304     0189                     	;# 
   305     018C                     	;# 
   306     018D                     	;# 
   307     0000                     	;# 
   308     0001                     	;# 
   309     0002                     	;# 
   310     0003                     	;# 
   311     0004                     	;# 
   312     0005                     	;# 
   313     0006                     	;# 
   314     0007                     	;# 
   315     0009                     	;# 
   316     000A                     	;# 
   317     000B                     	;# 
   318     000C                     	;# 
   319     000D                     	;# 
   320     000E                     	;# 
   321     000E                     	;# 
   322     000F                     	;# 
   323     0010                     	;# 
   324     0011                     	;# 
   325     0012                     	;# 
   326     0013                     	;# 
   327     0014                     	;# 
   328     0015                     	;# 
   329     0015                     	;# 
   330     0016                     	;# 
   331     0017                     	;# 
   332     0018                     	;# 
   333     0019                     	;# 
   334     001A                     	;# 
   335     001B                     	;# 
   336     001B                     	;# 
   337     001C                     	;# 
   338     001D                     	;# 
   339     001E                     	;# 
   340     001F                     	;# 
   341     0081                     	;# 
   342     0085                     	;# 
   343     0086                     	;# 
   344     0087                     	;# 
   345     0089                     	;# 
   346     008C                     	;# 
   347     008D                     	;# 
   348     008E                     	;# 
   349     008F                     	;# 
   350     0090                     	;# 
   351     0091                     	;# 
   352     0092                     	;# 
   353     0093                     	;# 
   354     0093                     	;# 
   355     0093                     	;# 
   356     0094                     	;# 
   357     0095                     	;# 
   358     0096                     	;# 
   359     0097                     	;# 
   360     0098                     	;# 
   361     0099                     	;# 
   362     009A                     	;# 
   363     009B                     	;# 
   364     009C                     	;# 
   365     009D                     	;# 
   366     009E                     	;# 
   367     009F                     	;# 
   368     0105                     	;# 
   369     0107                     	;# 
   370     0108                     	;# 
   371     0109                     	;# 
   372     010C                     	;# 
   373     010C                     	;# 
   374     010D                     	;# 
   375     010E                     	;# 
   376     010F                     	;# 
   377     0185                     	;# 
   378     0187                     	;# 
   379     0188                     	;# 
   380     0189                     	;# 
   381     018C                     	;# 
   382     018D                     	;# 
   383                           
   384                           	psect	idataCOMMON
   385     1707                     __pidataCOMMON:
   386                           
   387                           ;initializer for _tick
   388     1707  3401               	retlw	1
   389                           
   390                           	psect	idataBANK0
   391     1708                     __pidataBANK0:
   392                           
   393                           ;initializer for _led_on
   394     1708  3401               	retlw	1
   395     1709  3400               	retlw	0
   396     0001                     _TMR0	set	1
   397     0007                     _PORTCbits	set	7
   398     0006                     _PORTB	set	6
   399     000B                     _INTCON	set	11
   400     0010                     _T1CON	set	16
   401     0005                     _PORTAbits	set	5
   402     0015                     _CCPR1L	set	21
   403     0012                     _T2CONbits	set	18
   404     0017                     _CCP1CONbits	set	23
   405     001E                     _ADRESH	set	30
   406     001F                     _ADCON0	set	31
   407     000E                     _TMR1L	set	14
   408     000F                     _TMR1H	set	15
   409     0080                     _TMR1ON	set	128
   410     00F9                     _GO_nDONE	set	249
   411     0060                     _TMR1IF	set	96
   412     0081                     _OPTION_REGbits	set	129
   413     0086                     _TRISB	set	134
   414     008C                     _PIE1	set	140
   415     0085                     _TRISAbits	set	133
   416     0092                     _PR2	set	146
   417     0087                     _TRISCbits	set	135
   418     009E                     _ADRESL	set	158
   419     009F                     _ADCON1	set	159
   420     0188                     _ANSELbits	set	392
   421     0188                     _ANSEL	set	392
   422                           
   423                           	psect	cinit
   424     07E0                     start_initialization:	
   425                           ; #config settings
   426                           
   427     07E0                     __initialization:
   428                           
   429                           ; Initialize objects allocated to BANK0
   430     07E0  160A  118A  2708  120A  118A  	fcall	__pidataBANK0	;fetch initializer
   431     07E5  00E8               	movwf	__pdataBANK0& (0+127)
   432     07E6  160A  118A  2709  120A  118A  	fcall	__pidataBANK0+1	;fetch initializer
   433     07EB  00E9               	movwf	(__pdataBANK0+1)& (0+127)
   434                           
   435                           ; Initialize objects allocated to COMMON
   436     07EC  160A  118A  2707  120A  118A  	fcall	__pidataCOMMON	;fetch initializer
   437     07F1  00FB               	movwf	__pdataCOMMON& (0+127)
   438                           
   439                           ; Clear objects allocated to BANK1
   440     07F2  1383               	bcf	3,7	;select IRP bank0
   441     07F3  30A0               	movlw	low __pbssBANK1
   442     07F4  0084               	movwf	4
   443     07F5  30B5               	movlw	low (__pbssBANK1+21)
   444     07F6  160A  118A  270A  120A  118A  	fcall	clear_ram0
   445                           
   446                           ; Clear objects allocated to COMMON
   447     07FB  01FA               	clrf	__pbssCOMMON& (0+127)
   448     07FC                     end_of_initialization:	
   449                           ;End of C runtime variable initialization code
   450                           
   451     07FC                     __end_of__initialization:
   452     07FC  0183               	clrf	3
   453     07FD  120A  158A  2D92   	ljmp	_main	;jump to C main() function
   454                           
   455                           	psect	bssCOMMON
   456     007A                     __pbssCOMMON:
   457     007A                     _dht11_aux:
   458     007A                     	ds	1
   459                           
   460                           	psect	dataCOMMON
   461     007B                     __pdataCOMMON:
   462     007B                     _tick:
   463     007B                     	ds	1
   464                           
   465                           	psect	dataBANK0
   466     0068                     __pdataBANK0:
   467     0068                     _led_on:
   468     0068                     	ds	2
   469                           
   470                           	psect	bssBANK1
   471     00A0                     __pbssBANK1:
   472     00A0                     _dht11_byte:
   473     00A0                     	ds	5
   474     00A5                     _tick_counter:
   475     00A5                     	ds	4
   476     00A9                     _pot_value:
   477     00A9                     	ds	2
   478     00AB                     _duty_cycle:
   479     00AB                     	ds	2
   480     00AD                     _temp:
   481     00AD                     	ds	4
   482     00B1                     _hum:
   483     00B1                     	ds	4
   484                           
   485                           	psect	clrtext
   486     170A                     clear_ram0:	
   487                           ;	Called with FSR containing the base address, and
   488                           ;	W with the last address+1
   489                           
   490     170A  0064               	clrwdt	;clear the watchdog before getting into this loop
   491     170B                     clrloop0:
   492     170B  0180               	clrf	0	;clear RAM location pointed to by FSR
   493     170C  0A84               	incf	4,f	;increment pointer
   494     170D  0604               	xorwf	4,w	;XOR with final address
   495     170E  1903               	btfsc	3,2	;have we reached the end yet?
   496     170F  3400               	retlw	0	;all done for this memory range, return
   497     1710  0604               	xorwf	4,w	;XOR again to restore value
   498     1711  2F0B               	goto	clrloop0	;do the next byte
   499                           
   500                           	psect	cstackBANK1
   501     00B5                     __pcstackBANK1:
   502     00B5                     LCD_Float@i:
   503                           
   504                           ; 1 bytes @ 0x0
   505     00B5                     	ds	1
   506     00B6                     LCD_Float@number:
   507                           
   508                           ; 4 bytes @ 0x1
   509     00B6                     	ds	4
   510     00BA                     LCD_Float@Bruch:
   511                           
   512                           ; 4 bytes @ 0x5
   513     00BA                     	ds	4
   514                           
   515                           	psect	cstackCOMMON
   516     0071                     __pcstackCOMMON:
   517     0071                     ?_LCD_Init:
   518     0071                     ?_dht11_config:	
   519                           ; 1 bytes @ 0x0
   520                           
   521     0071                     ?_isr:	
   522                           ; 1 bytes @ 0x0
   523                           
   524     0071                     ??_isr:	
   525                           ; 1 bytes @ 0x0
   526                           
   527     0071                     ?_ADC_Init:	
   528                           ; 1 bytes @ 0x0
   529                           
   530     0071                     ?_PWM_Init:	
   531                           ; 1 bytes @ 0x0
   532                           
   533     0071                     ?_main:	
   534                           ; 1 bytes @ 0x0
   535                           
   536     0071                     ?_LCD_Clear:	
   537                           ; 1 bytes @ 0x0
   538                           
   539     0071                     ?_dht11_read_byte:	
   540                           ; 1 bytes @ 0x0
   541                           
   542                           
   543                           ; 1 bytes @ 0x0
   544     0071                     	ds	2
   545     0073                     ??_dht11_config:
   546     0073                     ??_ADC_Init:	
   547                           ; 1 bytes @ 0x2
   548                           
   549     0073                     ??_PWM_Init:	
   550                           ; 1 bytes @ 0x2
   551                           
   552     0073                     ??_dht11_read_byte:	
   553                           ; 1 bytes @ 0x2
   554                           
   555     0073                     ??___lldiv:	
   556                           ; 1 bytes @ 0x2
   557                           
   558     0073                     ??___flge:	
   559                           ; 1 bytes @ 0x2
   560                           
   561     0073                     ??___llmod:	
   562                           ; 1 bytes @ 0x2
   563                           
   564     0073                     ?__Umul8_16:	
   565                           ; 1 bytes @ 0x2
   566                           
   567     0073                     ?_ADC_Read:	
   568                           ; 2 bytes @ 0x2
   569                           
   570     0073                     ?___flneg:	
   571                           ; 2 bytes @ 0x2
   572                           
   573     0073                     ?___fltol:	
   574                           ; 4 bytes @ 0x2
   575                           
   576     0073                     ?___xxtofl:	
   577                           ; 4 bytes @ 0x2
   578                           
   579     0073                     dht11_read_byte@i:	
   580                           ; 4 bytes @ 0x2
   581                           
   582     0073                     __Umul8_16@multiplicand:	
   583                           ; 1 bytes @ 0x2
   584                           
   585     0073                     bit_config@word_temp:	
   586                           ; 1 bytes @ 0x2
   587                           
   588     0073                     ___flneg@f1:	
   589                           ; 4 bytes @ 0x2
   590                           
   591     0073                     ___fltol@f1:	
   592                           ; 4 bytes @ 0x2
   593                           
   594     0073                     ___xxtofl@val:	
   595                           ; 4 bytes @ 0x2
   596                           
   597                           
   598                           ; 4 bytes @ 0x2
   599     0073                     	ds	1
   600     0074                     ___llmod@counter:
   601     0074                     ___lldiv@quotient:	
   602                           ; 1 bytes @ 0x3
   603                           
   604                           
   605                           ; 4 bytes @ 0x3
   606     0074                     	ds	1
   607     0075                     ??__Umul8_16:
   608     0075                     ??_ADC_Read:	
   609                           ; 1 bytes @ 0x4
   610                           
   611                           
   612                           ; 1 bytes @ 0x4
   613     0075                     	ds	2
   614     0077                     ?_dht11_read:
   615     0077                     ?_LCD_Write:	
   616                           ; 1 bytes @ 0x6
   617                           
   618     0077                     ??___flneg:	
   619                           ; 1 bytes @ 0x6
   620                           
   621     0077                     ??___flsub:	
   622                           ; 1 bytes @ 0x6
   623                           
   624     0077                     LCD_Write@RS:	
   625                           ; 1 bytes @ 0x6
   626                           
   627     0077                     dht11_read@ptemp:	
   628                           ; 1 bytes @ 0x6
   629                           
   630     0077                     ___fltol@sign1:	
   631                           ; 1 bytes @ 0x6
   632                           
   633                           
   634                           ; 1 bytes @ 0x6
   635     0077                     	ds	1
   636     0078                     LCD_Write@character:
   637     0078                     dht11_read@phum:	
   638                           ; 1 bytes @ 0x7
   639                           
   640     0078                     ___lldiv@counter:	
   641                           ; 1 bytes @ 0x7
   642                           
   643     0078                     ___fltol@exp1:	
   644                           ; 1 bytes @ 0x7
   645                           
   646                           
   647                           ; 1 bytes @ 0x7
   648     0078                     	ds	1
   649     0079                     LCD_Write@data:
   650     0079                     dht11_read@i:	
   651                           ; 1 bytes @ 0x8
   652                           
   653                           
   654                           ; 1 bytes @ 0x8
   655     0079                     	ds	1
   656     007A                     ??_LCD_Goto:
   657     007A                     ??_LCD_Float:	
   658                           ; 1 bytes @ 0x9
   659                           
   660                           
   661                           	psect	cstackBANK0
   662     0020                     __pcstackBANK0:	
   663                           ; 1 bytes @ 0x9
   664                           
   665     0020                     ?___flge:
   666     0020                     ??___fltol:	
   667                           ; 1 bit 
   668                           
   669     0020                     ??___xxtofl:	
   670                           ; 1 bytes @ 0x0
   671                           
   672     0020                     ?_bit_config:	
   673                           ; 1 bytes @ 0x0
   674                           
   675     0020                     ?___lldiv:	
   676                           ; 4 bytes @ 0x0
   677                           
   678     0020                     ?___llmod:	
   679                           ; 4 bytes @ 0x0
   680                           
   681     0020                     __Umul8_16@product:	
   682                           ; 4 bytes @ 0x0
   683                           
   684     0020                     bit_config@word:	
   685                           ; 2 bytes @ 0x0
   686                           
   687     0020                     ___lldiv@divisor:	
   688                           ; 4 bytes @ 0x0
   689                           
   690     0020                     ___flge@ff1:	
   691                           ; 4 bytes @ 0x0
   692                           
   693     0020                     ___llmod@divisor:	
   694                           ; 4 bytes @ 0x0
   695                           
   696                           
   697                           ; 4 bytes @ 0x0
   698     0020                     	ds	2
   699     0022                     __Umul8_16@word_mpld:
   700                           
   701                           ; 2 bytes @ 0x2
   702     0022                     	ds	2
   703     0024                     __Umul8_16@multiplier:
   704     0024                     ___xxtofl@sign:	
   705                           ; 1 bytes @ 0x4
   706                           
   707     0024                     bit_config@bit_number:	
   708                           ; 1 bytes @ 0x4
   709                           
   710     0024                     ___lldiv@dividend:	
   711                           ; 4 bytes @ 0x4
   712                           
   713     0024                     ___flge@ff2:	
   714                           ; 4 bytes @ 0x4
   715                           
   716     0024                     ___llmod@dividend:	
   717                           ; 4 bytes @ 0x4
   718                           
   719                           
   720                           ; 4 bytes @ 0x4
   721     0024                     	ds	1
   722     0025                     ?___flmul:
   723     0025                     ___xxtofl@exp:	
   724                           ; 4 bytes @ 0x5
   725                           
   726     0025                     ___flmul@b:	
   727                           ; 1 bytes @ 0x5
   728                           
   729                           
   730                           ; 4 bytes @ 0x5
   731     0025                     	ds	1
   732     0026                     ___xxtofl@arg:
   733                           
   734                           ; 4 bytes @ 0x6
   735     0026                     	ds	2
   736     0028                     bit_config@bit_value:
   737                           
   738                           ; 4 bytes @ 0x8
   739     0028                     	ds	1
   740     0029                     ___flmul@a:
   741                           
   742                           ; 4 bytes @ 0x9
   743     0029                     	ds	1
   744     002A                     ?___fldiv:
   745     002A                     ___fldiv@a:	
   746                           ; 4 bytes @ 0xA
   747                           
   748                           
   749                           ; 4 bytes @ 0xA
   750     002A                     	ds	2
   751     002C                     ??_bit_config:
   752                           
   753                           ; 1 bytes @ 0xC
   754     002C                     	ds	1
   755     002D                     ??___flmul:
   756                           
   757                           ; 1 bytes @ 0xD
   758     002D                     	ds	1
   759     002E                     ___fldiv@b:
   760                           
   761                           ; 4 bytes @ 0xE
   762     002E                     	ds	4
   763     0032                     ??___fldiv:
   764     0032                     ___flmul@sign:	
   765                           ; 1 bytes @ 0x12
   766                           
   767                           
   768                           ; 1 bytes @ 0x12
   769     0032                     	ds	1
   770     0033                     ___flmul@aexp:
   771                           
   772                           ; 1 bytes @ 0x13
   773     0033                     	ds	1
   774     0034                     ___flmul@grs:
   775                           
   776                           ; 4 bytes @ 0x14
   777     0034                     	ds	3
   778     0037                     ___fldiv@rem:
   779                           
   780                           ; 4 bytes @ 0x17
   781     0037                     	ds	1
   782     0038                     ___flmul@bexp:
   783                           
   784                           ; 1 bytes @ 0x18
   785     0038                     	ds	1
   786     0039                     ___flmul@prod:
   787                           
   788                           ; 4 bytes @ 0x19
   789     0039                     	ds	1
   790     003A                     ??_LCD_Write:
   791                           
   792                           ; 1 bytes @ 0x1A
   793     003A                     	ds	1
   794     003B                     ___fldiv@sign:
   795                           
   796                           ; 1 bytes @ 0x1B
   797     003B                     	ds	1
   798     003C                     ___fldiv@new_exp:
   799                           
   800                           ; 2 bytes @ 0x1C
   801     003C                     	ds	1
   802     003D                     ___flmul@temp:
   803                           
   804                           ; 2 bytes @ 0x1D
   805     003D                     	ds	1
   806     003E                     ___fldiv@grs:
   807                           
   808                           ; 4 bytes @ 0x1E
   809     003E                     	ds	4
   810     0042                     ?_LCD_Goto:
   811     0042                     ??_LCD_Clear:	
   812                           ; 1 bytes @ 0x22
   813                           
   814     0042                     ?_LCD_Int:	
   815                           ; 1 bytes @ 0x22
   816                           
   817     0042                     LCD_Goto@pos:	
   818                           ; 1 bytes @ 0x22
   819                           
   820     0042                     ___fldiv@bexp:	
   821                           ; 1 bytes @ 0x22
   822                           
   823     0042                     LCD_Int@value:	
   824                           ; 1 bytes @ 0x22
   825                           
   826                           
   827                           ; 4 bytes @ 0x22
   828     0042                     	ds	1
   829     0043                     LCD_Goto@row:
   830     0043                     ___fldiv@aexp:	
   831                           ; 1 bytes @ 0x23
   832                           
   833                           
   834                           ; 1 bytes @ 0x23
   835     0043                     	ds	1
   836     0044                     ??_LCD_Init:
   837     0044                     ?___fladd:	
   838                           ; 1 bytes @ 0x24
   839                           
   840     0044                     LCD_Goto@data:	
   841                           ; 4 bytes @ 0x24
   842                           
   843     0044                     ___fladd@b:	
   844                           ; 1 bytes @ 0x24
   845                           
   846                           
   847                           ; 4 bytes @ 0x24
   848     0044                     	ds	2
   849     0046                     LCD_Int@positions:
   850                           
   851                           ; 1 bytes @ 0x26
   852     0046                     	ds	1
   853     0047                     LCD_Int@zeros:
   854                           
   855                           ; 1 bytes @ 0x27
   856     0047                     	ds	1
   857     0048                     ??_LCD_Int:
   858     0048                     ___fladd@a:	
   859                           ; 1 bytes @ 0x28
   860                           
   861                           
   862                           ; 4 bytes @ 0x28
   863     0048                     	ds	2
   864     004A                     LCD_Int@buf:
   865                           
   866                           ; 8 bytes @ 0x2A
   867     004A                     	ds	2
   868     004C                     ??___fladd:
   869                           
   870                           ; 1 bytes @ 0x2C
   871     004C                     	ds	6
   872     0052                     LCD_Int@i:
   873                           
   874                           ; 2 bytes @ 0x32
   875     0052                     	ds	2
   876     0054                     ___fladd@signs:
   877                           
   878                           ; 1 bytes @ 0x34
   879     0054                     	ds	1
   880     0055                     ___fladd@aexp:
   881                           
   882                           ; 1 bytes @ 0x35
   883     0055                     	ds	1
   884     0056                     ___fladd@bexp:
   885                           
   886                           ; 1 bytes @ 0x36
   887     0056                     	ds	1
   888     0057                     ___fladd@grs:
   889                           
   890                           ; 1 bytes @ 0x37
   891     0057                     	ds	1
   892     0058                     ??_dht11_read:
   893     0058                     ?___flsub:	
   894                           ; 1 bytes @ 0x38
   895                           
   896     0058                     ___flsub@a:	
   897                           ; 4 bytes @ 0x38
   898                           
   899                           
   900                           ; 4 bytes @ 0x38
   901     0058                     	ds	4
   902     005C                     ___flsub@b:
   903                           
   904                           ; 4 bytes @ 0x3C
   905     005C                     	ds	4
   906     0060                     ?_LCD_Float:
   907     0060                     LCD_Float@value:	
   908                           ; 1 bytes @ 0x40
   909                           
   910                           
   911                           ; 4 bytes @ 0x40
   912     0060                     	ds	4
   913     0064                     LCD_Float@positions:
   914                           
   915                           ; 1 bytes @ 0x44
   916     0064                     	ds	1
   917     0065                     LCD_Float@decimal_pos:
   918                           
   919                           ; 1 bytes @ 0x45
   920     0065                     	ds	1
   921     0066                     ??_main:
   922                           
   923                           ; 1 bytes @ 0x46
   924     0066                     	ds	2
   925                           
   926                           	psect	maintext
   927     0D92                     __pmaintext:	
   928 ;;
   929 ;;Main: autosize = 0, tempsize = 2, incstack = 0, save=0
   930 ;;
   931 ;; *************** function _main *****************
   932 ;; Defined at:
   933 ;;		line 88 in file "main.c"
   934 ;; Parameters:    Size  Location     Type
   935 ;;		None
   936 ;; Auto vars:     Size  Location     Type
   937 ;;		None
   938 ;; Return value:  Size  Location     Type
   939 ;;                  1    wreg      void 
   940 ;; Registers used:
   941 ;;		wreg, fsr0l, fsr0h, status,2, status,0, btemp+1, pclath, cstack
   942 ;; Tracked objects:
   943 ;;		On entry : B00/0
   944 ;;		On exit  : 0/0
   945 ;;		Unchanged: 0/0
   946 ;; Data sizes:     COMMON   BANK0   BANK1   BANK3   BANK2
   947 ;;      Params:         0       0       0       0       0
   948 ;;      Locals:         0       0       0       0       0
   949 ;;      Temps:          0       2       0       0       0
   950 ;;      Totals:         0       2       0       0       0
   951 ;;Total ram usage:        2 bytes
   952 ;; Hardware stack levels required when called: 5
   953 ;; This function calls:
   954 ;;		_ADC_Init
   955 ;;		_ADC_Read
   956 ;;		_LCD_Float
   957 ;;		_LCD_Goto
   958 ;;		_LCD_Init
   959 ;;		_PWM_Init
   960 ;;		___llmod
   961 ;;		_dht11_config
   962 ;;		_dht11_read
   963 ;; This function is called by:
   964 ;;		Startup code after reset
   965 ;; This function uses a non-reentrant model
   966 ;;
   967                           
   968     0D92                     _main:	
   969                           ;psect for function _main
   970                           
   971     0D92                     l3773:	
   972                           ;incstack = 0
   973                           ; Regs used in _main: [wreg-fsr0h+status,2+status,0+btemp+1+pclath+cstack]
   974                           
   975                           
   976                           ;main.c: 90:     TRISAbits.TRISA0 = 1;
   977     0D92  1683               	bsf	3,5	;RP0=1, select bank1
   978     0D93  1303               	bcf	3,6	;RP1=0, select bank1
   979     0D94  1405               	bsf	5,0	;volatile
   980                           
   981                           ;main.c: 91:     TRISAbits.TRISA1 = 1;
   982     0D95  1485               	bsf	5,1	;volatile
   983                           
   984                           ;main.c: 92:     TRISAbits.TRISA2 = 1;
   985     0D96  1505               	bsf	5,2	;volatile
   986                           
   987                           ;main.c: 94:     ANSELbits.ANS0 = 0;
   988     0D97  1683               	bsf	3,5	;RP0=1, select bank3
   989     0D98  1703               	bsf	3,6	;RP1=1, select bank3
   990     0D99  1008               	bcf	8,0	;volatile
   991                           
   992                           ;main.c: 95:     ANSELbits.ANS1 = 0;
   993     0D9A  1088               	bcf	8,1	;volatile
   994                           
   995                           ;main.c: 96:     ANSELbits.ANS2 = 0;
   996     0D9B  1108               	bcf	8,2	;volatile
   997     0D9C                     l3775:
   998                           
   999                           ;main.c: 98:     ADC_Init();
  1000     0D9C  160A  118A  271D  120A  158A  	fcall	_ADC_Init
  1001                           
  1002                           ;main.c: 99:     PWM_Init();
  1003     0DA1  160A  118A  274E  120A  158A  	fcall	_PWM_Init
  1004     0DA6                     l3777:
  1005                           
  1006                           ;main.c: 100:     LCD_Init();
  1007     0DA6  120A  158A  21C7  120A  158A  	fcall	_LCD_Init
  1008     0DAB                     l3779:
  1009                           
  1010                           ;main.c: 101:     dht11_config();
  1011     0DAB  160A  118A  2764  120A  158A  	fcall	_dht11_config
  1012     0DB0                     l3781:
  1013                           
  1014                           ;main.c: 103:     TRISAbits.TRISA3 = 0;
  1015     0DB0  1683               	bsf	3,5	;RP0=1, select bank1
  1016     0DB1  1303               	bcf	3,6	;RP1=0, select bank1
  1017     0DB2  1185               	bcf	5,3	;volatile
  1018     0DB3                     l3783:
  1019                           
  1020                           ;main.c: 104:     TRISAbits.TRISA4 = 0;
  1021     0DB3  1205               	bcf	5,4	;volatile
  1022     0DB4                     l3785:
  1023                           
  1024                           ;main.c: 105:     TRISAbits.TRISA7 = 0;
  1025     0DB4  1385               	bcf	5,7	;volatile
  1026     0DB5                     l3787:
  1027                           
  1028                           ;main.c: 106:     PORTAbits.RA7 = 0;
  1029     0DB5  1283               	bcf	3,5	;RP0=0, select bank0
  1030     0DB6  1303               	bcf	3,6	;RP1=0, select bank0
  1031     0DB7  1385               	bcf	5,7	;volatile
  1032     0DB8                     l3789:
  1033                           
  1034                           ;main.c: 108:     TMR1H = 0xF6;
  1035     0DB8  30F6               	movlw	246
  1036     0DB9  008F               	movwf	15	;volatile
  1037     0DBA                     l3791:
  1038                           
  1039                           ;main.c: 109:     TMR1L = 0x3B;
  1040     0DBA  303B               	movlw	59
  1041     0DBB  008E               	movwf	14	;volatile
  1042     0DBC                     l3793:
  1043                           
  1044                           ;main.c: 110:     T1CON = 0b00010000;
  1045     0DBC  3010               	movlw	16
  1046     0DBD  0090               	movwf	16	;volatile
  1047     0DBE                     l3795:
  1048                           
  1049                           ;main.c: 111:     PIE1 = 0b00000001;
  1050     0DBE  3001               	movlw	1
  1051     0DBF  1683               	bsf	3,5	;RP0=1, select bank1
  1052     0DC0  1303               	bcf	3,6	;RP1=0, select bank1
  1053     0DC1  008C               	movwf	12	;volatile
  1054     0DC2                     l3797:
  1055                           
  1056                           ;main.c: 112:     INTCON = 0b11000000;
  1057     0DC2  30C0               	movlw	192
  1058     0DC3  008B               	movwf	11	;volatile
  1059     0DC4                     l3799:
  1060                           
  1061                           ;main.c: 113:     TMR1ON = 1;
  1062     0DC4  1283               	bcf	3,5	;RP0=0, select bank0
  1063     0DC5  1303               	bcf	3,6	;RP1=0, select bank0
  1064     0DC6  1410               	bsf	16,0	;volatile
  1065     0DC7                     l3801:
  1066                           
  1067                           ;main.c: 115:     PORTAbits.RA3 = 0;
  1068     0DC7  1185               	bcf	5,3	;volatile
  1069     0DC8                     l3803:
  1070                           
  1071                           ;main.c: 116:     PORTAbits.RA4 = 0;
  1072     0DC8  1205               	bcf	5,4	;volatile
  1073     0DC9                     l3805:
  1074     0DC9  087B               	movf	_tick,w	;volatile
  1075     0DCA  1D03               	btfss	3,2
  1076     0DCB  2DCD               	goto	u5801
  1077     0DCC  2DCE               	goto	u5800
  1078     0DCD                     u5801:
  1079     0DCD  2DC9               	goto	l3805
  1080     0DCE                     u5800:
  1081     0DCE                     l3807:
  1082                           
  1083                           ;main.c: 124:         tick = 1;
  1084     0DCE  3001               	movlw	1
  1085     0DCF  00FB               	movwf	_tick	;volatile
  1086                           
  1087                           ;main.c: 125:         tick_counter++;
  1088     0DD0  3001               	movlw	1
  1089     0DD1  1683               	bsf	3,5	;RP0=1, select bank1
  1090     0DD2  1303               	bcf	3,6	;RP1=0, select bank1
  1091     0DD3  07A5               	addwf	_tick_counter^(0+128),f
  1092     0DD4  3000               	movlw	0
  1093     0DD5  1803               	skipnc
  1094     0DD6  3001               	movlw	1
  1095     0DD7  07A6               	addwf	(_tick_counter+1)^(0+128),f
  1096     0DD8  3000               	movlw	0
  1097     0DD9  1803               	skipnc
  1098     0DDA  3001               	movlw	1
  1099     0DDB  07A7               	addwf	(_tick_counter+2)^(0+128),f
  1100     0DDC  3000               	movlw	0
  1101     0DDD  1803               	skipnc
  1102     0DDE  3001               	movlw	1
  1103     0DDF  07A8               	addwf	(_tick_counter+3)^(0+128),f
  1104     0DE0                     l3809:
  1105                           
  1106                           ;main.c: 128:         if ((tick_counter % 100) == 0) {
  1107     0DE0  3000               	movlw	0
  1108     0DE1  1283               	bcf	3,5	;RP0=0, select bank0
  1109     0DE2  1303               	bcf	3,6	;RP1=0, select bank0
  1110     0DE3  00A3               	movwf	___llmod@divisor+3
  1111     0DE4  3000               	movlw	0
  1112     0DE5  00A2               	movwf	___llmod@divisor+2
  1113     0DE6  3000               	movlw	0
  1114     0DE7  00A1               	movwf	___llmod@divisor+1
  1115     0DE8  3064               	movlw	100
  1116     0DE9  00A0               	movwf	___llmod@divisor
  1117     0DEA  1683               	bsf	3,5	;RP0=1, select bank1
  1118     0DEB  1303               	bcf	3,6	;RP1=0, select bank1
  1119     0DEC  0828               	movf	(_tick_counter+3)^(0+128),w
  1120     0DED  1283               	bcf	3,5	;RP0=0, select bank0
  1121     0DEE  1303               	bcf	3,6	;RP1=0, select bank0
  1122     0DEF  00A7               	movwf	___llmod@dividend+3
  1123     0DF0  1683               	bsf	3,5	;RP0=1, select bank1
  1124     0DF1  1303               	bcf	3,6	;RP1=0, select bank1
  1125     0DF2  0827               	movf	(_tick_counter+2)^(0+128),w
  1126     0DF3  1283               	bcf	3,5	;RP0=0, select bank0
  1127     0DF4  1303               	bcf	3,6	;RP1=0, select bank0
  1128     0DF5  00A6               	movwf	___llmod@dividend+2
  1129     0DF6  1683               	bsf	3,5	;RP0=1, select bank1
  1130     0DF7  1303               	bcf	3,6	;RP1=0, select bank1
  1131     0DF8  0826               	movf	(_tick_counter+1)^(0+128),w
  1132     0DF9  1283               	bcf	3,5	;RP0=0, select bank0
  1133     0DFA  1303               	bcf	3,6	;RP1=0, select bank0
  1134     0DFB  00A5               	movwf	___llmod@dividend+1
  1135     0DFC  1683               	bsf	3,5	;RP0=1, select bank1
  1136     0DFD  1303               	bcf	3,6	;RP1=0, select bank1
  1137     0DFE  0825               	movf	_tick_counter^(0+128),w
  1138     0DFF  1283               	bcf	3,5	;RP0=0, select bank0
  1139     0E00  1303               	bcf	3,6	;RP1=0, select bank0
  1140     0E01  00A4               	movwf	___llmod@dividend
  1141     0E02  120A  158A  2024  120A  158A  	fcall	___llmod
  1142     0E07  1283               	bcf	3,5	;RP0=0, select bank0
  1143     0E08  1303               	bcf	3,6	;RP1=0, select bank0
  1144     0E09  0823               	movf	?___llmod+3,w
  1145     0E0A  0422               	iorwf	?___llmod+2,w
  1146     0E0B  0421               	iorwf	?___llmod+1,w
  1147     0E0C  0420               	iorwf	?___llmod,w
  1148     0E0D  1D03               	skipz
  1149     0E0E  2E10               	goto	u5811
  1150     0E0F  2E11               	goto	u5810
  1151     0E10                     u5811:
  1152     0E10  2E7A               	goto	l3823
  1153     0E11                     u5810:
  1154     0E11                     l3811:
  1155                           
  1156                           ;main.c: 129:             PORTAbits.RA3 = ~PORTAbits.RA3;
  1157     0E11  1003               	clrc
  1158     0E12  1D85               	btfss	5,3	;volatile
  1159     0E13  1403               	setc
  1160     0E14  1803               	btfsc	3,0
  1161     0E15  2E17               	goto	u5821
  1162     0E16  2E1B               	goto	u5820
  1163     0E17                     u5821:
  1164     0E17  1283               	bcf	3,5	;RP0=0, select bank0
  1165     0E18  1303               	bcf	3,6	;RP1=0, select bank0
  1166     0E19  1585               	bsf	5,3	;volatile
  1167     0E1A  2E1E               	goto	u5834
  1168     0E1B                     u5820:
  1169     0E1B  1283               	bcf	3,5	;RP0=0, select bank0
  1170     0E1C  1303               	bcf	3,6	;RP1=0, select bank0
  1171     0E1D  1185               	bcf	5,3	;volatile
  1172     0E1E                     u5834:
  1173     0E1E                     l3813:
  1174                           
  1175                           ;main.c: 130:             dht11_read(&hum, &temp);
  1176     0E1E  30AD               	movlw	(low (_temp| 0))& (0+255)
  1177     0E1F  00F7               	movwf	dht11_read@ptemp
  1178     0E20  30B1               	movlw	(low (_hum| 0))& (0+255)
  1179     0E21  120A  158A  26C7  120A  158A  	fcall	_dht11_read
  1180     0E26                     l3815:
  1181                           
  1182                           ;main.c: 132:             LCD_Goto(0, 0);
  1183     0E26  1283               	bcf	3,5	;RP0=0, select bank0
  1184     0E27  1303               	bcf	3,6	;RP1=0, select bank0
  1185     0E28  01C2               	clrf	LCD_Goto@pos
  1186     0E29  3000               	movlw	0
  1187     0E2A  160A  118A  27A8  120A  158A  	fcall	_LCD_Goto
  1188     0E2F                     l3817:
  1189                           
  1190                           ;main.c: 133:             LCD_Float(temp, 5, 2);
  1191     0E2F  1683               	bsf	3,5	;RP0=1, select bank1
  1192     0E30  1303               	bcf	3,6	;RP1=0, select bank1
  1193     0E31  0830               	movf	(_temp+3)^(0+128),w
  1194     0E32  1283               	bcf	3,5	;RP0=0, select bank0
  1195     0E33  1303               	bcf	3,6	;RP1=0, select bank0
  1196     0E34  00E3               	movwf	LCD_Float@value+3
  1197     0E35  1683               	bsf	3,5	;RP0=1, select bank1
  1198     0E36  1303               	bcf	3,6	;RP1=0, select bank1
  1199     0E37  082F               	movf	(_temp+2)^(0+128),w
  1200     0E38  1283               	bcf	3,5	;RP0=0, select bank0
  1201     0E39  1303               	bcf	3,6	;RP1=0, select bank0
  1202     0E3A  00E2               	movwf	LCD_Float@value+2
  1203     0E3B  1683               	bsf	3,5	;RP0=1, select bank1
  1204     0E3C  1303               	bcf	3,6	;RP1=0, select bank1
  1205     0E3D  082E               	movf	(_temp+1)^(0+128),w
  1206     0E3E  1283               	bcf	3,5	;RP0=0, select bank0
  1207     0E3F  1303               	bcf	3,6	;RP1=0, select bank0
  1208     0E40  00E1               	movwf	LCD_Float@value+1
  1209     0E41  1683               	bsf	3,5	;RP0=1, select bank1
  1210     0E42  1303               	bcf	3,6	;RP1=0, select bank1
  1211     0E43  082D               	movf	_temp^(0+128),w
  1212     0E44  1283               	bcf	3,5	;RP0=0, select bank0
  1213     0E45  1303               	bcf	3,6	;RP1=0, select bank0
  1214     0E46  00E0               	movwf	LCD_Float@value
  1215     0E47  3005               	movlw	5
  1216     0E48  00E4               	movwf	LCD_Float@positions
  1217     0E49  3002               	movlw	2
  1218     0E4A  00E5               	movwf	LCD_Float@decimal_pos
  1219     0E4B  120A  158A  245D  120A  158A  	fcall	_LCD_Float
  1220     0E50                     l3819:
  1221                           
  1222                           ;main.c: 134:             LCD_Goto(1, 0);
  1223     0E50  1283               	bcf	3,5	;RP0=0, select bank0
  1224     0E51  1303               	bcf	3,6	;RP1=0, select bank0
  1225     0E52  01C2               	clrf	LCD_Goto@pos
  1226     0E53  3001               	movlw	1
  1227     0E54  160A  118A  27A8  120A  158A  	fcall	_LCD_Goto
  1228     0E59                     l3821:
  1229                           
  1230                           ;main.c: 135:             LCD_Float(hum, 5, 2);
  1231     0E59  1683               	bsf	3,5	;RP0=1, select bank1
  1232     0E5A  1303               	bcf	3,6	;RP1=0, select bank1
  1233     0E5B  0834               	movf	(_hum+3)^(0+128),w
  1234     0E5C  1283               	bcf	3,5	;RP0=0, select bank0
  1235     0E5D  1303               	bcf	3,6	;RP1=0, select bank0
  1236     0E5E  00E3               	movwf	LCD_Float@value+3
  1237     0E5F  1683               	bsf	3,5	;RP0=1, select bank1
  1238     0E60  1303               	bcf	3,6	;RP1=0, select bank1
  1239     0E61  0833               	movf	(_hum+2)^(0+128),w
  1240     0E62  1283               	bcf	3,5	;RP0=0, select bank0
  1241     0E63  1303               	bcf	3,6	;RP1=0, select bank0
  1242     0E64  00E2               	movwf	LCD_Float@value+2
  1243     0E65  1683               	bsf	3,5	;RP0=1, select bank1
  1244     0E66  1303               	bcf	3,6	;RP1=0, select bank1
  1245     0E67  0832               	movf	(_hum+1)^(0+128),w
  1246     0E68  1283               	bcf	3,5	;RP0=0, select bank0
  1247     0E69  1303               	bcf	3,6	;RP1=0, select bank0
  1248     0E6A  00E1               	movwf	LCD_Float@value+1
  1249     0E6B  1683               	bsf	3,5	;RP0=1, select bank1
  1250     0E6C  1303               	bcf	3,6	;RP1=0, select bank1
  1251     0E6D  0831               	movf	_hum^(0+128),w
  1252     0E6E  1283               	bcf	3,5	;RP0=0, select bank0
  1253     0E6F  1303               	bcf	3,6	;RP1=0, select bank0
  1254     0E70  00E0               	movwf	LCD_Float@value
  1255     0E71  3005               	movlw	5
  1256     0E72  00E4               	movwf	LCD_Float@positions
  1257     0E73  3002               	movlw	2
  1258     0E74  00E5               	movwf	LCD_Float@decimal_pos
  1259     0E75  120A  158A  245D  120A  158A  	fcall	_LCD_Float
  1260     0E7A                     l3823:
  1261                           
  1262                           ;main.c: 139:         if (led_on == 1) {
  1263     0E7A  1283               	bcf	3,5	;RP0=0, select bank0
  1264     0E7B  1303               	bcf	3,6	;RP1=0, select bank0
  1265     0E7C  0368               	decf	_led_on,w
  1266     0E7D  0469               	iorwf	_led_on+1,w
  1267     0E7E  1D03               	btfss	3,2
  1268     0E7F  2E81               	goto	u5841
  1269     0E80  2E82               	goto	u5840
  1270     0E81                     u5841:
  1271     0E81  2EA8               	goto	l3831
  1272     0E82                     u5840:
  1273     0E82                     l3825:
  1274                           
  1275                           ;main.c: 141:             pot_value = ADC_Read();
  1276     0E82  120A  118A  200F  120A  158A  	fcall	_ADC_Read
  1277     0E87  0874               	movf	?_ADC_Read+1,w
  1278     0E88  1683               	bsf	3,5	;RP0=1, select bank1
  1279     0E89  1303               	bcf	3,6	;RP1=0, select bank1
  1280     0E8A  00AA               	movwf	(_pot_value+1)^(0+128)
  1281     0E8B  0873               	movf	?_ADC_Read,w
  1282     0E8C  00A9               	movwf	_pot_value^(0+128)
  1283     0E8D                     l3827:
  1284                           
  1285                           ;main.c: 143:             duty_cycle = pot_value / 256;
  1286     0E8D  082A               	movf	(_pot_value+1)^(0+128),w
  1287     0E8E  1283               	bcf	3,5	;RP0=0, select bank0
  1288     0E8F  1303               	bcf	3,6	;RP1=0, select bank0
  1289     0E90  00E7               	movwf	??_main+1
  1290     0E91  1683               	bsf	3,5	;RP0=1, select bank1
  1291     0E92  1303               	bcf	3,6	;RP1=0, select bank1
  1292     0E93  0829               	movf	_pot_value^(0+128),w
  1293     0E94  1283               	bcf	3,5	;RP0=0, select bank0
  1294     0E95  1303               	bcf	3,6	;RP1=0, select bank0
  1295     0E96  00E6               	movwf	??_main
  1296     0E97  0867               	movf	??_main+1,w
  1297     0E98  00E6               	movwf	??_main
  1298     0E99  01E7               	clrf	??_main+1
  1299     0E9A  0866               	movf	??_main,w
  1300     0E9B  1683               	bsf	3,5	;RP0=1, select bank1
  1301     0E9C  1303               	bcf	3,6	;RP1=0, select bank1
  1302     0E9D  00AB               	movwf	_duty_cycle^(0+128)
  1303     0E9E  1283               	bcf	3,5	;RP0=0, select bank0
  1304     0E9F  1303               	bcf	3,6	;RP1=0, select bank0
  1305     0EA0  0867               	movf	??_main+1,w
  1306     0EA1  1683               	bsf	3,5	;RP0=1, select bank1
  1307     0EA2  1303               	bcf	3,6	;RP1=0, select bank1
  1308     0EA3  00AC               	movwf	(_duty_cycle+1)^(0+128)
  1309     0EA4                     l3829:
  1310                           
  1311                           ;main.c: 145:             CCPR1L = duty_cycle;
  1312     0EA4  082B               	movf	_duty_cycle^(0+128),w
  1313     0EA5  1283               	bcf	3,5	;RP0=0, select bank0
  1314     0EA6  1303               	bcf	3,6	;RP1=0, select bank0
  1315     0EA7  0095               	movwf	21	;volatile
  1316     0EA8                     l3831:
  1317                           
  1318                           ;main.c: 148:         if (PORTAbits.RA1 == 0) {
  1319     0EA8  1885               	btfsc	5,1	;volatile
  1320     0EA9  2EAB               	goto	u5851
  1321     0EAA  2EAC               	goto	u5850
  1322     0EAB                     u5851:
  1323     0EAB  2EB9               	goto	l3835
  1324     0EAC                     u5850:
  1325     0EAC                     l3833:
  1326                           
  1327                           ;main.c: 149:             PORTAbits.RA4 = ~PORTAbits.RA4;
  1328     0EAC  1003               	clrc
  1329     0EAD  1E05               	btfss	5,4	;volatile
  1330     0EAE  1403               	setc
  1331     0EAF  1803               	btfsc	3,0
  1332     0EB0  2EB2               	goto	u5861
  1333     0EB1  2EB6               	goto	u5860
  1334     0EB2                     u5861:
  1335     0EB2  1283               	bcf	3,5	;RP0=0, select bank0
  1336     0EB3  1303               	bcf	3,6	;RP1=0, select bank0
  1337     0EB4  1605               	bsf	5,4	;volatile
  1338     0EB5  2EB9               	goto	u5874
  1339     0EB6                     u5860:
  1340     0EB6  1283               	bcf	3,5	;RP0=0, select bank0
  1341     0EB7  1303               	bcf	3,6	;RP1=0, select bank0
  1342     0EB8  1205               	bcf	5,4	;volatile
  1343     0EB9                     u5874:
  1344     0EB9                     l3835:
  1345                           
  1346                           ;main.c: 151:         if (PORTAbits.RA2 == 0) {
  1347     0EB9  1905               	btfsc	5,2	;volatile
  1348     0EBA  2EBC               	goto	u5881
  1349     0EBB  2EBD               	goto	u5880
  1350     0EBC                     u5881:
  1351     0EBC  2DC9               	goto	l3805
  1352     0EBD                     u5880:
  1353     0EBD                     l3837:
  1354                           
  1355                           ;main.c: 153:             led_on = led_on * (-1);
  1356     0EBD  09E8               	comf	_led_on,f
  1357     0EBE  09E9               	comf	_led_on+1,f
  1358     0EBF  0AE8               	incf	_led_on,f
  1359     0EC0  1903               	skipnz
  1360     0EC1  0AE9               	incf	_led_on+1,f
  1361     0EC2                     l3839:
  1362                           
  1363                           ;main.c: 154:             CCPR1L = 0;
  1364     0EC2  0195               	clrf	21	;volatile
  1365     0EC3  2DC9               	goto	l3805
  1366     0EC4  120A  118A  280C   	ljmp	start
  1367     0EC7                     __end_of_main:
  1368                           
  1369                           	psect	text1
  1370     0EC7                     __ptext1:	
  1371 ;; *************** function _dht11_read *****************
  1372 ;; Defined at:
  1373 ;;		line 122 in file "dht11.c"
  1374 ;; Parameters:    Size  Location     Type
  1375 ;;  phum            1    wreg     PTR float 
  1376 ;;		 -> hum(4), 
  1377 ;;  ptemp           1    6[COMMON] PTR float 
  1378 ;;		 -> temp(4), 
  1379 ;; Auto vars:     Size  Location     Type
  1380 ;;  phum            1    7[COMMON] PTR float 
  1381 ;;		 -> hum(4), 
  1382 ;;  i               1    8[COMMON] unsigned char 
  1383 ;; Return value:  Size  Location     Type
  1384 ;;                  1    wreg      unsigned char 
  1385 ;; Registers used:
  1386 ;;		wreg, fsr0l, fsr0h, status,2, status,0, btemp+1, pclath, cstack
  1387 ;; Tracked objects:
  1388 ;;		On entry : 0/0
  1389 ;;		On exit  : 0/0
  1390 ;;		Unchanged: 0/0
  1391 ;; Data sizes:     COMMON   BANK0   BANK1   BANK3   BANK2
  1392 ;;      Params:         1       0       0       0       0
  1393 ;;      Locals:         2       0       0       0       0
  1394 ;;      Temps:          0       8       0       0       0
  1395 ;;      Totals:         3       8       0       0       0
  1396 ;;Total ram usage:       11 bytes
  1397 ;; Hardware stack levels used: 1
  1398 ;; Hardware stack levels required when called: 2
  1399 ;; This function calls:
  1400 ;;		___fladd
  1401 ;;		___fldiv
  1402 ;;		___xxtofl
  1403 ;;		_dht11_read_byte
  1404 ;; This function is called by:
  1405 ;;		_main
  1406 ;; This function uses a non-reentrant model
  1407 ;;
  1408                           
  1409     0EC7                     _dht11_read:	
  1410                           ;psect for function _dht11_read
  1411                           
  1412                           
  1413                           ;incstack = 0
  1414                           ; Regs used in _dht11_read: [wreg-fsr0h+status,2+status,0+btemp+1+pclath+cstack]
  1415                           ;dht11_read@phum stored from wreg
  1416     0EC7  00F8               	movwf	dht11_read@phum
  1417     0EC8                     l3687:
  1418                           
  1419                           ;dht11.c: 123:     uint8_t i;;dht11.c: 126:     PORTAbits.RA6 = 0; TRISAbits.TRISA6 = 0;
      +                          ;
  1420     0EC8  1283               	bcf	3,5	;RP0=0, select bank0
  1421     0EC9  1303               	bcf	3,6	;RP1=0, select bank0
  1422     0ECA  1305               	bcf	5,6	;volatile
  1423     0ECB  1683               	bsf	3,5	;RP0=1, select bank1
  1424     0ECC  1303               	bcf	3,6	;RP1=0, select bank1
  1425     0ECD  1305               	bcf	5,6	;volatile
  1426     0ECE                     l3689:
  1427                           
  1428                           ;dht11.c: 127:     _delay((unsigned long)((18)*((4000000L)/4000.0)));
  1429     0ECE  3018               	movlw	24
  1430     0ECF  1283               	bcf	3,5	;RP0=0, select bank0
  1431     0ED0  1303               	bcf	3,6	;RP1=0, select bank0
  1432     0ED1  00D9               	movwf	??_dht11_read+1
  1433     0ED2  305E               	movlw	94
  1434     0ED3  00D8               	movwf	??_dht11_read
  1435     0ED4                     u5957:
  1436     0ED4  0BD8               	decfsz	??_dht11_read,f
  1437     0ED5  2ED4               	goto	u5957
  1438     0ED6  0BD9               	decfsz	??_dht11_read+1,f
  1439     0ED7  2ED4               	goto	u5957
  1440     0ED8  0000               	nop
  1441     0ED9                     l3691:
  1442                           
  1443                           ;dht11.c: 128:     TRISAbits.TRISA6 = 1;;
  1444     0ED9  1683               	bsf	3,5	;RP0=1, select bank1
  1445     0EDA  1303               	bcf	3,6	;RP1=0, select bank1
  1446     0EDB  1705               	bsf	5,6	;volatile
  1447     0EDC                     l3693:
  1448                           
  1449                           ;dht11.c: 131:     TMR0= 0;
  1450     0EDC  1283               	bcf	3,5	;RP0=0, select bank0
  1451     0EDD  1303               	bcf	3,6	;RP1=0, select bank0
  1452     0EDE  0181               	clrf	1	;volatile
  1453                           
  1454                           ;dht11.c: 132:     while (PORTAbits.RA6) {
  1455     0EDF  2EE7               	goto	l210
  1456     0EE0                     l3695:
  1457                           
  1458                           ;dht11.c: 133:         if (TMR0 > (100)) return 0;
  1459     0EE0  3065               	movlw	101
  1460     0EE1  0201               	subwf	1,w	;volatile
  1461     0EE2  1C03               	skipc
  1462     0EE3  2EE5               	goto	u5701
  1463     0EE4  2EE6               	goto	u5700
  1464     0EE5                     u5701:
  1465     0EE5  2EE7               	goto	l210
  1466     0EE6                     u5700:
  1467     0EE6  2FFF               	goto	l213
  1468     0EE7                     l210:	
  1469                           ;dht11.c: 134:     }
  1470                           
  1471                           
  1472                           ;dht11.c: 132:     while (PORTAbits.RA6) {
  1473     0EE7  1B05               	btfsc	5,6	;volatile
  1474     0EE8  2EEA               	goto	u5711
  1475     0EE9  2EEB               	goto	u5710
  1476     0EEA                     u5711:
  1477     0EEA  2EE0               	goto	l3695
  1478     0EEB                     u5710:
  1479     0EEB                     l3699:
  1480                           
  1481                           ;dht11.c: 137:     TMR0= 0;
  1482     0EEB  0181               	clrf	1	;volatile
  1483                           
  1484                           ;dht11.c: 138:     while (!PORTAbits.RA6) {
  1485     0EEC  2EF4               	goto	l215
  1486     0EED                     l3701:
  1487                           
  1488                           ;dht11.c: 139:         if (TMR0 > (100)) return 0;
  1489     0EED  3065               	movlw	101
  1490     0EEE  0201               	subwf	1,w	;volatile
  1491     0EEF  1C03               	skipc
  1492     0EF0  2EF2               	goto	u5721
  1493     0EF1  2EF3               	goto	u5720
  1494     0EF2                     u5721:
  1495     0EF2  2EF4               	goto	l215
  1496     0EF3                     u5720:
  1497     0EF3  2FFF               	goto	l213
  1498     0EF4                     l215:	
  1499                           ;dht11.c: 140:     }
  1500                           
  1501                           
  1502                           ;dht11.c: 138:     while (!PORTAbits.RA6) {
  1503     0EF4  1F05               	btfss	5,6	;volatile
  1504     0EF5  2EF7               	goto	u5731
  1505     0EF6  2EF8               	goto	u5730
  1506     0EF7                     u5731:
  1507     0EF7  2EED               	goto	l3701
  1508     0EF8                     u5730:
  1509     0EF8                     l3705:
  1510                           
  1511                           ;dht11.c: 143:     TMR0= 0;
  1512     0EF8  0181               	clrf	1	;volatile
  1513                           
  1514                           ;dht11.c: 144:     while (PORTAbits.RA6) {
  1515     0EF9  2F01               	goto	l219
  1516     0EFA                     l3707:
  1517                           
  1518                           ;dht11.c: 145:         if (TMR0 > (100)) return 0;
  1519     0EFA  3065               	movlw	101
  1520     0EFB  0201               	subwf	1,w	;volatile
  1521     0EFC  1C03               	skipc
  1522     0EFD  2EFF               	goto	u5741
  1523     0EFE  2F00               	goto	u5740
  1524     0EFF                     u5741:
  1525     0EFF  2F01               	goto	l219
  1526     0F00                     u5740:
  1527     0F00  2FFF               	goto	l213
  1528     0F01                     l219:	
  1529                           ;dht11.c: 146:     }
  1530                           
  1531                           
  1532                           ;dht11.c: 144:     while (PORTAbits.RA6) {
  1533     0F01  1B05               	btfsc	5,6	;volatile
  1534     0F02  2F04               	goto	u5751
  1535     0F03  2F05               	goto	u5750
  1536     0F04                     u5751:
  1537     0F04  2EFA               	goto	l3707
  1538     0F05                     u5750:
  1539     0F05                     l3711:
  1540                           
  1541                           ;dht11.c: 152:     for (i = 0; i < (5); i++) {
  1542     0F05  01F9               	clrf	dht11_read@i
  1543     0F06                     l3717:
  1544                           
  1545                           ;dht11.c: 153:         if (!dht11_read_byte()) return 0;
  1546     0F06  160A  118A  27D2  120A  158A  	fcall	_dht11_read_byte
  1547     0F0B  3A00               	xorlw	0
  1548     0F0C  1D03               	skipz
  1549     0F0D  2F0F               	goto	u5761
  1550     0F0E  2F10               	goto	u5760
  1551     0F0F                     u5761:
  1552     0F0F  2F11               	goto	l3721
  1553     0F10                     u5760:
  1554     0F10  2FFF               	goto	l213
  1555     0F11                     l3721:
  1556                           
  1557                           ;dht11.c: 154:         dht11_byte[i] = dht11_aux;
  1558     0F11  0879               	movf	dht11_read@i,w
  1559     0F12  3EA0               	addlw	(low (_dht11_byte| 0))& (0+255)
  1560     0F13  0084               	movwf	4
  1561     0F14  087A               	movf	_dht11_aux,w
  1562     0F15  1383               	bcf	3,7	;select IRP bank1
  1563     0F16  0080               	movwf	0
  1564     0F17                     l3723:
  1565                           
  1566                           ;dht11.c: 155:     }
  1567     0F17  3001               	movlw	1
  1568     0F18  00FF               	movwf	btemp+1
  1569     0F19  087F               	movf	btemp+1,w
  1570     0F1A  07F9               	addwf	dht11_read@i,f
  1571     0F1B                     l3725:
  1572     0F1B  3005               	movlw	5
  1573     0F1C  0279               	subwf	dht11_read@i,w
  1574     0F1D  1C03               	skipc
  1575     0F1E  2F20               	goto	u5771
  1576     0F1F  2F21               	goto	u5770
  1577     0F20                     u5771:
  1578     0F20  2F06               	goto	l3717
  1579     0F21                     u5770:
  1580     0F21                     l3727:
  1581                           
  1582                           ;dht11.c: 165:     *phum = ((float) dht11_byte[0]) + ((float) dht11_byte[1]) / 10;
  1583     0F21  3041               	movlw	65
  1584     0F22  1283               	bcf	3,5	;RP0=0, select bank0
  1585     0F23  1303               	bcf	3,6	;RP1=0, select bank0
  1586     0F24  00AD               	movwf	___fldiv@a+3
  1587     0F25  3020               	movlw	32
  1588     0F26  00AC               	movwf	___fldiv@a+2
  1589     0F27  3000               	movlw	0
  1590     0F28  00AB               	movwf	___fldiv@a+1
  1591     0F29  3000               	movlw	0
  1592     0F2A  00AA               	movwf	___fldiv@a
  1593     0F2B  1683               	bsf	3,5	;RP0=1, select bank1
  1594     0F2C  1303               	bcf	3,6	;RP1=0, select bank1
  1595     0F2D  0821               	movf	(_dht11_byte^(0+128)+1),w
  1596     0F2E  1283               	bcf	3,5	;RP0=0, select bank0
  1597     0F2F  1303               	bcf	3,6	;RP1=0, select bank0
  1598     0F30  00D8               	movwf	??_dht11_read
  1599     0F31  01D9               	clrf	??_dht11_read+1
  1600     0F32  01DA               	clrf	??_dht11_read+2
  1601     0F33  01DB               	clrf	??_dht11_read+3
  1602     0F34  085B               	movf	??_dht11_read+3,w
  1603     0F35  00F6               	movwf	___xxtofl@val+3
  1604     0F36  085A               	movf	??_dht11_read+2,w
  1605     0F37  00F5               	movwf	___xxtofl@val+2
  1606     0F38  0859               	movf	??_dht11_read+1,w
  1607     0F39  00F4               	movwf	___xxtofl@val+1
  1608     0F3A  0858               	movf	??_dht11_read,w
  1609     0F3B  00F3               	movwf	___xxtofl@val
  1610     0F3C  3000               	movlw	0
  1611     0F3D  120A  158A  23A3  120A  158A  	fcall	___xxtofl
  1612     0F42  0876               	movf	?___xxtofl+3,w
  1613     0F43  1283               	bcf	3,5	;RP0=0, select bank0
  1614     0F44  1303               	bcf	3,6	;RP1=0, select bank0
  1615     0F45  00B1               	movwf	___fldiv@b+3
  1616     0F46  0875               	movf	?___xxtofl+2,w
  1617     0F47  00B0               	movwf	___fldiv@b+2
  1618     0F48  0874               	movf	?___xxtofl+1,w
  1619     0F49  00AF               	movwf	___fldiv@b+1
  1620     0F4A  0873               	movf	?___xxtofl,w
  1621     0F4B  00AE               	movwf	___fldiv@b
  1622     0F4C  120A  118A  2074  120A  158A  	fcall	___fldiv
  1623     0F51  1283               	bcf	3,5	;RP0=0, select bank0
  1624     0F52  1303               	bcf	3,6	;RP1=0, select bank0
  1625     0F53  082D               	movf	?___fldiv+3,w
  1626     0F54  00C7               	movwf	___fladd@b+3
  1627     0F55  082C               	movf	?___fldiv+2,w
  1628     0F56  00C6               	movwf	___fladd@b+2
  1629     0F57  082B               	movf	?___fldiv+1,w
  1630     0F58  00C5               	movwf	___fladd@b+1
  1631     0F59  082A               	movf	?___fldiv,w
  1632     0F5A  00C4               	movwf	___fladd@b
  1633     0F5B  1683               	bsf	3,5	;RP0=1, select bank1
  1634     0F5C  1303               	bcf	3,6	;RP1=0, select bank1
  1635     0F5D  0820               	movf	_dht11_byte^(0+128),w
  1636     0F5E  1283               	bcf	3,5	;RP0=0, select bank0
  1637     0F5F  1303               	bcf	3,6	;RP1=0, select bank0
  1638     0F60  00DC               	movwf	??_dht11_read+4
  1639     0F61  01DD               	clrf	??_dht11_read+5
  1640     0F62  01DE               	clrf	??_dht11_read+6
  1641     0F63  01DF               	clrf	??_dht11_read+7
  1642     0F64  085F               	movf	??_dht11_read+7,w
  1643     0F65  00F6               	movwf	___xxtofl@val+3
  1644     0F66  085E               	movf	??_dht11_read+6,w
  1645     0F67  00F5               	movwf	___xxtofl@val+2
  1646     0F68  085D               	movf	??_dht11_read+5,w
  1647     0F69  00F4               	movwf	___xxtofl@val+1
  1648     0F6A  085C               	movf	??_dht11_read+4,w
  1649     0F6B  00F3               	movwf	___xxtofl@val
  1650     0F6C  3000               	movlw	0
  1651     0F6D  120A  158A  23A3  120A  158A  	fcall	___xxtofl
  1652     0F72  0876               	movf	?___xxtofl+3,w
  1653     0F73  1283               	bcf	3,5	;RP0=0, select bank0
  1654     0F74  1303               	bcf	3,6	;RP1=0, select bank0
  1655     0F75  00CB               	movwf	___fladd@a+3
  1656     0F76  0875               	movf	?___xxtofl+2,w
  1657     0F77  00CA               	movwf	___fladd@a+2
  1658     0F78  0874               	movf	?___xxtofl+1,w
  1659     0F79  00C9               	movwf	___fladd@a+1
  1660     0F7A  0873               	movf	?___xxtofl,w
  1661     0F7B  00C8               	movwf	___fladd@a
  1662     0F7C  120A  118A  2243  120A  158A  	fcall	___fladd
  1663     0F81  0878               	movf	dht11_read@phum,w
  1664     0F82  0084               	movwf	4
  1665     0F83  1283               	bcf	3,5	;RP0=0, select bank0
  1666     0F84  1303               	bcf	3,6	;RP1=0, select bank0
  1667     0F85  0844               	movf	?___fladd,w
  1668     0F86  1383               	bcf	3,7	;select IRP bank0
  1669     0F87  0080               	movwf	0
  1670     0F88  0A84               	incf	4,f
  1671     0F89  0845               	movf	?___fladd+1,w
  1672     0F8A  0080               	movwf	0
  1673     0F8B  0A84               	incf	4,f
  1674     0F8C  0846               	movf	?___fladd+2,w
  1675     0F8D  0080               	movwf	0
  1676     0F8E  0A84               	incf	4,f
  1677     0F8F  0847               	movf	?___fladd+3,w
  1678     0F90  0080               	movwf	0
  1679                           
  1680                           ;dht11.c: 166:     *ptemp = ((float) dht11_byte[2]) + ((float) dht11_byte[3]) / 10;
  1681     0F91  3041               	movlw	65
  1682     0F92  00AD               	movwf	___fldiv@a+3
  1683     0F93  3020               	movlw	32
  1684     0F94  00AC               	movwf	___fldiv@a+2
  1685     0F95  3000               	movlw	0
  1686     0F96  00AB               	movwf	___fldiv@a+1
  1687     0F97  3000               	movlw	0
  1688     0F98  00AA               	movwf	___fldiv@a
  1689     0F99  1683               	bsf	3,5	;RP0=1, select bank1
  1690     0F9A  1303               	bcf	3,6	;RP1=0, select bank1
  1691     0F9B  0823               	movf	(_dht11_byte^(0+128)+3),w
  1692     0F9C  1283               	bcf	3,5	;RP0=0, select bank0
  1693     0F9D  1303               	bcf	3,6	;RP1=0, select bank0
  1694     0F9E  00D8               	movwf	??_dht11_read
  1695     0F9F  01D9               	clrf	??_dht11_read+1
  1696     0FA0  01DA               	clrf	??_dht11_read+2
  1697     0FA1  01DB               	clrf	??_dht11_read+3
  1698     0FA2  085B               	movf	??_dht11_read+3,w
  1699     0FA3  00F6               	movwf	___xxtofl@val+3
  1700     0FA4  085A               	movf	??_dht11_read+2,w
  1701     0FA5  00F5               	movwf	___xxtofl@val+2
  1702     0FA6  0859               	movf	??_dht11_read+1,w
  1703     0FA7  00F4               	movwf	___xxtofl@val+1
  1704     0FA8  0858               	movf	??_dht11_read,w
  1705     0FA9  00F3               	movwf	___xxtofl@val
  1706     0FAA  3000               	movlw	0
  1707     0FAB  120A  158A  23A3  120A  158A  	fcall	___xxtofl
  1708     0FB0  0876               	movf	?___xxtofl+3,w
  1709     0FB1  1283               	bcf	3,5	;RP0=0, select bank0
  1710     0FB2  1303               	bcf	3,6	;RP1=0, select bank0
  1711     0FB3  00B1               	movwf	___fldiv@b+3
  1712     0FB4  0875               	movf	?___xxtofl+2,w
  1713     0FB5  00B0               	movwf	___fldiv@b+2
  1714     0FB6  0874               	movf	?___xxtofl+1,w
  1715     0FB7  00AF               	movwf	___fldiv@b+1
  1716     0FB8  0873               	movf	?___xxtofl,w
  1717     0FB9  00AE               	movwf	___fldiv@b
  1718     0FBA  120A  118A  2074  120A  158A  	fcall	___fldiv
  1719     0FBF  1283               	bcf	3,5	;RP0=0, select bank0
  1720     0FC0  1303               	bcf	3,6	;RP1=0, select bank0
  1721     0FC1  082D               	movf	?___fldiv+3,w
  1722     0FC2  00C7               	movwf	___fladd@b+3
  1723     0FC3  082C               	movf	?___fldiv+2,w
  1724     0FC4  00C6               	movwf	___fladd@b+2
  1725     0FC5  082B               	movf	?___fldiv+1,w
  1726     0FC6  00C5               	movwf	___fladd@b+1
  1727     0FC7  082A               	movf	?___fldiv,w
  1728     0FC8  00C4               	movwf	___fladd@b
  1729     0FC9  1683               	bsf	3,5	;RP0=1, select bank1
  1730     0FCA  1303               	bcf	3,6	;RP1=0, select bank1
  1731     0FCB  0822               	movf	(_dht11_byte^(0+128)+2),w
  1732     0FCC  1283               	bcf	3,5	;RP0=0, select bank0
  1733     0FCD  1303               	bcf	3,6	;RP1=0, select bank0
  1734     0FCE  00DC               	movwf	??_dht11_read+4
  1735     0FCF  01DD               	clrf	??_dht11_read+5
  1736     0FD0  01DE               	clrf	??_dht11_read+6
  1737     0FD1  01DF               	clrf	??_dht11_read+7
  1738     0FD2  085F               	movf	??_dht11_read+7,w
  1739     0FD3  00F6               	movwf	___xxtofl@val+3
  1740     0FD4  085E               	movf	??_dht11_read+6,w
  1741     0FD5  00F5               	movwf	___xxtofl@val+2
  1742     0FD6  085D               	movf	??_dht11_read+5,w
  1743     0FD7  00F4               	movwf	___xxtofl@val+1
  1744     0FD8  085C               	movf	??_dht11_read+4,w
  1745     0FD9  00F3               	movwf	___xxtofl@val
  1746     0FDA  3000               	movlw	0
  1747     0FDB  120A  158A  23A3  120A  158A  	fcall	___xxtofl
  1748     0FE0  0876               	movf	?___xxtofl+3,w
  1749     0FE1  1283               	bcf	3,5	;RP0=0, select bank0
  1750     0FE2  1303               	bcf	3,6	;RP1=0, select bank0
  1751     0FE3  00CB               	movwf	___fladd@a+3
  1752     0FE4  0875               	movf	?___xxtofl+2,w
  1753     0FE5  00CA               	movwf	___fladd@a+2
  1754     0FE6  0874               	movf	?___xxtofl+1,w
  1755     0FE7  00C9               	movwf	___fladd@a+1
  1756     0FE8  0873               	movf	?___xxtofl,w
  1757     0FE9  00C8               	movwf	___fladd@a
  1758     0FEA  120A  118A  2243  120A  158A  	fcall	___fladd
  1759     0FEF  0877               	movf	dht11_read@ptemp,w
  1760     0FF0  0084               	movwf	4
  1761     0FF1  1283               	bcf	3,5	;RP0=0, select bank0
  1762     0FF2  1303               	bcf	3,6	;RP1=0, select bank0
  1763     0FF3  0844               	movf	?___fladd,w
  1764     0FF4  1383               	bcf	3,7	;select IRP bank0
  1765     0FF5  0080               	movwf	0
  1766     0FF6  0A84               	incf	4,f
  1767     0FF7  0845               	movf	?___fladd+1,w
  1768     0FF8  0080               	movwf	0
  1769     0FF9  0A84               	incf	4,f
  1770     0FFA  0846               	movf	?___fladd+2,w
  1771     0FFB  0080               	movwf	0
  1772     0FFC  0A84               	incf	4,f
  1773     0FFD  0847               	movf	?___fladd+3,w
  1774     0FFE  0080               	movwf	0
  1775     0FFF                     l213:
  1776     0FFF  0008               	return
  1777     1000                     __end_of_dht11_read:
  1778                           
  1779                           	psect	text2
  1780     17D2                     __ptext2:	
  1781 ;; *************** function _dht11_read_byte *****************
  1782 ;; Defined at:
  1783 ;;		line 59 in file "dht11.c"
  1784 ;; Parameters:    Size  Location     Type
  1785 ;;		None
  1786 ;; Auto vars:     Size  Location     Type
  1787 ;;  i               1    2[COMMON] unsigned char 
  1788 ;; Return value:  Size  Location     Type
  1789 ;;                  1    wreg      unsigned char 
  1790 ;; Registers used:
  1791 ;;		wreg, status,2, status,0, btemp+1
  1792 ;; Tracked objects:
  1793 ;;		On entry : 0/0
  1794 ;;		On exit  : 0/0
  1795 ;;		Unchanged: 0/0
  1796 ;; Data sizes:     COMMON   BANK0   BANK1   BANK3   BANK2
  1797 ;;      Params:         0       0       0       0       0
  1798 ;;      Locals:         1       0       0       0       0
  1799 ;;      Temps:          0       0       0       0       0
  1800 ;;      Totals:         1       0       0       0       0
  1801 ;;Total ram usage:        1 bytes
  1802 ;; Hardware stack levels used: 1
  1803 ;; Hardware stack levels required when called: 1
  1804 ;; This function calls:
  1805 ;;		Nothing
  1806 ;; This function is called by:
  1807 ;;		_dht11_read
  1808 ;; This function uses a non-reentrant model
  1809 ;;
  1810                           
  1811     17D2                     _dht11_read_byte:	
  1812                           ;psect for function _dht11_read_byte
  1813                           
  1814     17D2                     l3209:	
  1815                           ;incstack = 0
  1816                           ; Regs used in _dht11_read_byte: [wreg+status,2+status,0+btemp+1]
  1817                           
  1818                           
  1819                           ;dht11.c: 60:     uint8_t i;;dht11.c: 61:     dht11_aux = 0;
  1820     17D2  01FA               	clrf	_dht11_aux
  1821                           
  1822                           ;dht11.c: 64:     for (i = 0; i < 8; i++) {
  1823     17D3  01F3               	clrf	dht11_read_byte@i
  1824     17D4                     l3215:
  1825                           
  1826                           ;dht11.c: 66:         TMR0= 0;
  1827     17D4  1283               	bcf	3,5	;RP0=0, select bank0
  1828     17D5  1303               	bcf	3,6	;RP1=0, select bank0
  1829     17D6  0181               	clrf	1	;volatile
  1830                           
  1831                           ;dht11.c: 67:         while (!PORTAbits.RA6) {
  1832     17D7  2FE0               	goto	l196
  1833     17D8                     l3217:
  1834                           
  1835                           ;dht11.c: 68:             if (TMR0 > (100)) return 0;
  1836     17D8  3065               	movlw	101
  1837     17D9  0201               	subwf	1,w	;volatile
  1838     17DA  1C03               	skipc
  1839     17DB  2FDD               	goto	u4671
  1840     17DC  2FDE               	goto	u4670
  1841     17DD                     u4671:
  1842     17DD  2FE0               	goto	l196
  1843     17DE                     u4670:
  1844     17DE                     l3219:
  1845     17DE  3000               	movlw	0
  1846     17DF  2FFF               	goto	l199
  1847     17E0                     l196:	
  1848                           ;dht11.c: 69:         }
  1849                           
  1850                           
  1851                           ;dht11.c: 67:         while (!PORTAbits.RA6) {
  1852     17E0  1F05               	btfss	5,6	;volatile
  1853     17E1  2FE3               	goto	u4681
  1854     17E2  2FE4               	goto	u4680
  1855     17E3                     u4681:
  1856     17E3  2FD8               	goto	l3217
  1857     17E4                     u4680:
  1858     17E4                     l3223:
  1859                           
  1860                           ;dht11.c: 73:         TMR0= 0;
  1861     17E4  0181               	clrf	1	;volatile
  1862                           
  1863                           ;dht11.c: 74:         while (PORTAbits.RA6) {
  1864     17E5  2FED               	goto	l201
  1865     17E6                     l3225:
  1866                           
  1867                           ;dht11.c: 75:             if (TMR0 > (100)) return 0;
  1868     17E6  3065               	movlw	101
  1869     17E7  0201               	subwf	1,w	;volatile
  1870     17E8  1C03               	skipc
  1871     17E9  2FEB               	goto	u4691
  1872     17EA  2FEC               	goto	u4690
  1873     17EB                     u4691:
  1874     17EB  2FED               	goto	l201
  1875     17EC                     u4690:
  1876     17EC  2FDE               	goto	l3219
  1877     17ED                     l201:	
  1878                           ;dht11.c: 76:         }
  1879                           
  1880                           
  1881                           ;dht11.c: 74:         while (PORTAbits.RA6) {
  1882     17ED  1B05               	btfsc	5,6	;volatile
  1883     17EE  2FF0               	goto	u4701
  1884     17EF  2FF1               	goto	u4700
  1885     17F0                     u4701:
  1886     17F0  2FE6               	goto	l3225
  1887     17F1                     u4700:
  1888     17F1                     l204:
  1889     17F1  3032               	movlw	50	;# 
  1890     17F2  0201               	subwf	1,w	;# 
  1891     17F3  0DFA               	rlf	_dht11_aux,f	;# 
  1892     17F4                     l3231:
  1893                           
  1894                           ;dht11.c: 86:     }
  1895     17F4  3001               	movlw	1
  1896     17F5  00FF               	movwf	btemp+1
  1897     17F6  087F               	movf	btemp+1,w
  1898     17F7  07F3               	addwf	dht11_read_byte@i,f
  1899     17F8                     l3233:
  1900     17F8  3008               	movlw	8
  1901     17F9  0273               	subwf	dht11_read_byte@i,w
  1902     17FA  1C03               	skipc
  1903     17FB  2FFD               	goto	u4711
  1904     17FC  2FFE               	goto	u4710
  1905     17FD                     u4711:
  1906     17FD  2FD4               	goto	l3215
  1907     17FE                     u4710:
  1908     17FE                     l3235:
  1909                           
  1910                           ;dht11.c: 87:     return 1;
  1911     17FE  3001               	movlw	1
  1912     17FF                     l199:
  1913     17FF  0008               	return
  1914     1800                     __end_of_dht11_read_byte:
  1915                           
  1916                           	psect	text3
  1917     0074                     __ptext3:	
  1918 ;; *************** function ___fldiv *****************
  1919 ;; Defined at:
  1920 ;;		line 8 in file "C:\Program Files\Microchip\xc8\v2.46\pic\sources\c99\common\sprcdiv.c"
  1921 ;; Parameters:    Size  Location     Type
  1922 ;;  a               4   10[BANK0 ] unsigned char 
  1923 ;;  b               4   14[BANK0 ] unsigned char 
  1924 ;; Auto vars:     Size  Location     Type
  1925 ;;  grs             4   30[BANK0 ] unsigned long 
  1926 ;;  rem             4   23[BANK0 ] unsigned long 
  1927 ;;  new_exp         2   28[BANK0 ] short 
  1928 ;;  aexp            1   35[BANK0 ] unsigned char 
  1929 ;;  bexp            1   34[BANK0 ] unsigned char 
  1930 ;;  sign            1   27[BANK0 ] unsigned char 
  1931 ;; Return value:  Size  Location     Type
  1932 ;;                  4   10[BANK0 ] unsigned char 
  1933 ;; Registers used:
  1934 ;;		wreg, status,2, status,0, btemp+1
  1935 ;; Tracked objects:
  1936 ;;		On entry : 0/0
  1937 ;;		On exit  : 0/0
  1938 ;;		Unchanged: 0/0
  1939 ;; Data sizes:     COMMON   BANK0   BANK1   BANK3   BANK2
  1940 ;;      Params:         0       8       0       0       0
  1941 ;;      Locals:         0      13       0       0       0
  1942 ;;      Temps:          0       5       0       0       0
  1943 ;;      Totals:         0      26       0       0       0
  1944 ;;Total ram usage:       26 bytes
  1945 ;; Hardware stack levels used: 1
  1946 ;; Hardware stack levels required when called: 1
  1947 ;; This function calls:
  1948 ;;		Nothing
  1949 ;; This function is called by:
  1950 ;;		_dht11_read
  1951 ;; This function uses a non-reentrant model
  1952 ;;
  1953                           
  1954     0074                     ___fldiv:	
  1955                           ;psect for function ___fldiv
  1956                           
  1957     0074                     l3311:	
  1958                           ;incstack = 0
  1959                           ; Regs used in ___fldiv: [wreg+status,2+status,0+btemp+1]
  1960                           
  1961     0074  1283               	bcf	3,5	;RP0=0, select bank0
  1962     0075  1303               	bcf	3,6	;RP1=0, select bank0
  1963     0076  0831               	movf	___fldiv@b+3,w
  1964     0077  3980               	andlw	128
  1965     0078  00BB               	movwf	___fldiv@sign
  1966     0079                     l3313:
  1967     0079  0831               	movf	___fldiv@b+3,w
  1968     007A  00B2               	movwf	??___fldiv
  1969     007B  0732               	addwf	??___fldiv,w
  1970     007C  00C2               	movwf	___fldiv@bexp
  1971     007D                     l3315:
  1972     007D  1FB0               	btfss	___fldiv@b+2,7
  1973     007E  2880               	goto	u4901
  1974     007F  2881               	goto	u4900
  1975     0080                     u4901:
  1976     0080  2882               	goto	l3319
  1977     0081                     u4900:
  1978     0081                     l3317:
  1979     0081  1442               	bsf	___fldiv@bexp,0
  1980     0082                     l3319:
  1981     0082  0842               	movf	___fldiv@bexp,w
  1982     0083  1903               	btfsc	3,2
  1983     0084  2886               	goto	u4911
  1984     0085  2887               	goto	u4910
  1985     0086                     u4911:
  1986     0086  2897               	goto	l3329
  1987     0087                     u4910:
  1988     0087                     l3321:
  1989     0087  0A42               	incf	___fldiv@bexp,w
  1990     0088  1D03               	btfss	3,2
  1991     0089  288B               	goto	u4921
  1992     008A  288C               	goto	u4920
  1993     008B                     u4921:
  1994     008B  2894               	goto	l3325
  1995     008C                     u4920:
  1996     008C                     l3323:
  1997     008C  3000               	movlw	0
  1998     008D  00B1               	movwf	___fldiv@b+3
  1999     008E  3000               	movlw	0
  2000     008F  00B0               	movwf	___fldiv@b+2
  2001     0090  3000               	movlw	0
  2002     0091  00AF               	movwf	___fldiv@b+1
  2003     0092  3000               	movlw	0
  2004     0093  00AE               	movwf	___fldiv@b
  2005     0094                     l3325:
  2006     0094  17B0               	bsf	___fldiv@b+2,7
  2007     0095                     l3327:
  2008     0095  01B1               	clrf	___fldiv@b+3
  2009     0096  289F               	goto	l3331
  2010     0097                     l3329:
  2011     0097  3000               	movlw	0
  2012     0098  00B1               	movwf	___fldiv@b+3
  2013     0099  3000               	movlw	0
  2014     009A  00B0               	movwf	___fldiv@b+2
  2015     009B  3000               	movlw	0
  2016     009C  00AF               	movwf	___fldiv@b+1
  2017     009D  3000               	movlw	0
  2018     009E  00AE               	movwf	___fldiv@b
  2019     009F                     l3331:
  2020     009F  082D               	movf	___fldiv@a+3,w
  2021     00A0  3980               	andlw	128
  2022     00A1  00FF               	movwf	btemp+1
  2023     00A2  087F               	movf	btemp+1,w
  2024     00A3  06BB               	xorwf	___fldiv@sign,f
  2025     00A4                     l3333:
  2026     00A4  082D               	movf	___fldiv@a+3,w
  2027     00A5  00B2               	movwf	??___fldiv
  2028     00A6  0732               	addwf	??___fldiv,w
  2029     00A7  00C3               	movwf	___fldiv@aexp
  2030     00A8                     l3335:
  2031     00A8  1FAC               	btfss	___fldiv@a+2,7
  2032     00A9  28AB               	goto	u4931
  2033     00AA  28AC               	goto	u4930
  2034     00AB                     u4931:
  2035     00AB  28AD               	goto	l3339
  2036     00AC                     u4930:
  2037     00AC                     l3337:
  2038     00AC  1443               	bsf	___fldiv@aexp,0
  2039     00AD                     l3339:
  2040     00AD  0843               	movf	___fldiv@aexp,w
  2041     00AE  1903               	btfsc	3,2
  2042     00AF  28B1               	goto	u4941
  2043     00B0  28B2               	goto	u4940
  2044     00B1                     u4941:
  2045     00B1  28C2               	goto	l3349
  2046     00B2                     u4940:
  2047     00B2                     l3341:
  2048     00B2  0A43               	incf	___fldiv@aexp,w
  2049     00B3  1D03               	btfss	3,2
  2050     00B4  28B6               	goto	u4951
  2051     00B5  28B7               	goto	u4950
  2052     00B6                     u4951:
  2053     00B6  28BF               	goto	l3345
  2054     00B7                     u4950:
  2055     00B7                     l3343:
  2056     00B7  3000               	movlw	0
  2057     00B8  00AD               	movwf	___fldiv@a+3
  2058     00B9  3000               	movlw	0
  2059     00BA  00AC               	movwf	___fldiv@a+2
  2060     00BB  3000               	movlw	0
  2061     00BC  00AB               	movwf	___fldiv@a+1
  2062     00BD  3000               	movlw	0
  2063     00BE  00AA               	movwf	___fldiv@a
  2064     00BF                     l3345:
  2065     00BF  17AC               	bsf	___fldiv@a+2,7
  2066     00C0                     l3347:
  2067     00C0  01AD               	clrf	___fldiv@a+3
  2068     00C1  28CA               	goto	l668
  2069     00C2                     l3349:
  2070     00C2  3000               	movlw	0
  2071     00C3  00AD               	movwf	___fldiv@a+3
  2072     00C4  3000               	movlw	0
  2073     00C5  00AC               	movwf	___fldiv@a+2
  2074     00C6  3000               	movlw	0
  2075     00C7  00AB               	movwf	___fldiv@a+1
  2076     00C8  3000               	movlw	0
  2077     00C9  00AA               	movwf	___fldiv@a
  2078     00CA                     l668:
  2079     00CA  082D               	movf	___fldiv@a+3,w
  2080     00CB  042C               	iorwf	___fldiv@a+2,w
  2081     00CC  042B               	iorwf	___fldiv@a+1,w
  2082     00CD  042A               	iorwf	___fldiv@a,w
  2083     00CE  1D03               	skipz
  2084     00CF  28D1               	goto	u4961
  2085     00D0  28D2               	goto	u4960
  2086     00D1                     u4961:
  2087     00D1  28EB               	goto	l3359
  2088     00D2                     u4960:
  2089     00D2                     l3351:
  2090     00D2  3000               	movlw	0
  2091     00D3  00B1               	movwf	___fldiv@b+3
  2092     00D4  3000               	movlw	0
  2093     00D5  00B0               	movwf	___fldiv@b+2
  2094     00D6  3000               	movlw	0
  2095     00D7  00AF               	movwf	___fldiv@b+1
  2096     00D8  3000               	movlw	0
  2097     00D9  00AE               	movwf	___fldiv@b
  2098     00DA  3080               	movlw	128
  2099     00DB  04B0               	iorwf	___fldiv@b+2,f
  2100     00DC  307F               	movlw	127
  2101     00DD  04B1               	iorwf	___fldiv@b+3,f
  2102     00DE                     l3353:
  2103     00DE  083B               	movf	___fldiv@sign,w
  2104     00DF  00FF               	movwf	btemp+1
  2105     00E0  087F               	movf	btemp+1,w
  2106     00E1  04B1               	iorwf	___fldiv@b+3,f
  2107     00E2                     l3355:
  2108     00E2  0831               	movf	___fldiv@b+3,w
  2109     00E3  00AD               	movwf	?___fldiv+3
  2110     00E4  0830               	movf	___fldiv@b+2,w
  2111     00E5  00AC               	movwf	?___fldiv+2
  2112     00E6  082F               	movf	___fldiv@b+1,w
  2113     00E7  00AB               	movwf	?___fldiv+1
  2114     00E8  082E               	movf	___fldiv@b,w
  2115     00E9  00AA               	movwf	?___fldiv
  2116     00EA  2A42               	goto	l670
  2117     00EB                     l3359:
  2118     00EB  0842               	movf	___fldiv@bexp,w
  2119     00EC  1D03               	btfss	3,2
  2120     00ED  28EF               	goto	u4971
  2121     00EE  28F0               	goto	u4970
  2122     00EF                     u4971:
  2123     00EF  28F9               	goto	l3365
  2124     00F0                     u4970:
  2125     00F0                     l3361:
  2126     00F0  3000               	movlw	0
  2127     00F1  00AD               	movwf	?___fldiv+3
  2128     00F2  3000               	movlw	0
  2129     00F3  00AC               	movwf	?___fldiv+2
  2130     00F4  3000               	movlw	0
  2131     00F5  00AB               	movwf	?___fldiv+1
  2132     00F6  3000               	movlw	0
  2133     00F7  00AA               	movwf	?___fldiv
  2134     00F8  2A42               	goto	l670
  2135     00F9                     l3365:
  2136     00F9  0842               	movf	___fldiv@bexp,w
  2137     00FA  00B2               	movwf	??___fldiv
  2138     00FB  01B3               	clrf	??___fldiv+1
  2139     00FC  0833               	movf	??___fldiv+1,w
  2140     00FD  00B5               	movwf	??___fldiv+3
  2141     00FE  0843               	movf	___fldiv@aexp,w
  2142     00FF  0232               	subwf	??___fldiv,w
  2143     0100  00B4               	movwf	??___fldiv+2
  2144     0101  1C03               	skipc
  2145     0102  03B5               	decf	??___fldiv+3,f
  2146     0103  0834               	movf	??___fldiv+2,w
  2147     0104  3E7F               	addlw	127
  2148     0105  00BC               	movwf	___fldiv@new_exp
  2149     0106  0835               	movf	??___fldiv+3,w
  2150     0107  1803               	skipnc
  2151     0108  3E01               	addlw	1
  2152     0109  3E00               	addlw	0
  2153     010A  00BD               	movwf	___fldiv@new_exp+1
  2154     010B                     l3367:
  2155     010B  0831               	movf	___fldiv@b+3,w
  2156     010C  00BA               	movwf	___fldiv@rem+3
  2157     010D  0830               	movf	___fldiv@b+2,w
  2158     010E  00B9               	movwf	___fldiv@rem+2
  2159     010F  082F               	movf	___fldiv@b+1,w
  2160     0110  00B8               	movwf	___fldiv@rem+1
  2161     0111  082E               	movf	___fldiv@b,w
  2162     0112  00B7               	movwf	___fldiv@rem
  2163     0113                     l3369:
  2164     0113  3000               	movlw	0
  2165     0114  00B1               	movwf	___fldiv@b+3
  2166     0115  3000               	movlw	0
  2167     0116  00B0               	movwf	___fldiv@b+2
  2168     0117  3000               	movlw	0
  2169     0118  00AF               	movwf	___fldiv@b+1
  2170     0119  3000               	movlw	0
  2171     011A  00AE               	movwf	___fldiv@b
  2172     011B                     l3371:
  2173     011B  3000               	movlw	0
  2174     011C  00C1               	movwf	___fldiv@grs+3
  2175     011D  3000               	movlw	0
  2176     011E  00C0               	movwf	___fldiv@grs+2
  2177     011F  3000               	movlw	0
  2178     0120  00BF               	movwf	___fldiv@grs+1
  2179     0121  3000               	movlw	0
  2180     0122  00BE               	movwf	___fldiv@grs
  2181     0123                     l3373:
  2182     0123  01C3               	clrf	___fldiv@aexp
  2183     0124  296F               	goto	l3393
  2184     0125                     l3375:
  2185     0125  0843               	movf	___fldiv@aexp,w
  2186     0126  1903               	btfsc	3,2
  2187     0127  2929               	goto	u4981
  2188     0128  292A               	goto	u4980
  2189     0129                     u4981:
  2190     0129  294A               	goto	l3385
  2191     012A                     u4980:
  2192     012A                     l3377:
  2193     012A  3001               	movlw	1
  2194     012B  00B2               	movwf	??___fldiv
  2195     012C                     u4995:
  2196     012C  1003               	clrc
  2197     012D  0DB7               	rlf	___fldiv@rem,f
  2198     012E  0DB8               	rlf	___fldiv@rem+1,f
  2199     012F  0DB9               	rlf	___fldiv@rem+2,f
  2200     0130  0DBA               	rlf	___fldiv@rem+3,f
  2201     0131  0BB2               	decfsz	??___fldiv,f
  2202     0132  292C               	goto	u4995
  2203     0133  3001               	movlw	1
  2204     0134  00B2               	movwf	??___fldiv
  2205     0135                     u5005:
  2206     0135  1003               	clrc
  2207     0136  0DAE               	rlf	___fldiv@b,f
  2208     0137  0DAF               	rlf	___fldiv@b+1,f
  2209     0138  0DB0               	rlf	___fldiv@b+2,f
  2210     0139  0DB1               	rlf	___fldiv@b+3,f
  2211     013A  0BB2               	decfsz	??___fldiv,f
  2212     013B  2935               	goto	u5005
  2213     013C                     l3379:
  2214     013C  1FC1               	btfss	___fldiv@grs+3,7
  2215     013D  293F               	goto	u5011
  2216     013E  2940               	goto	u5010
  2217     013F                     u5011:
  2218     013F  2941               	goto	l3383
  2219     0140                     u5010:
  2220     0140                     l3381:
  2221     0140  142E               	bsf	___fldiv@b,0
  2222     0141                     l3383:
  2223     0141  3001               	movlw	1
  2224     0142  00B2               	movwf	??___fldiv
  2225     0143                     u5025:
  2226     0143  1003               	clrc
  2227     0144  0DBE               	rlf	___fldiv@grs,f
  2228     0145  0DBF               	rlf	___fldiv@grs+1,f
  2229     0146  0DC0               	rlf	___fldiv@grs+2,f
  2230     0147  0DC1               	rlf	___fldiv@grs+3,f
  2231     0148  0BB2               	decfsz	??___fldiv,f
  2232     0149  2943               	goto	u5025
  2233     014A                     l3385:
  2234     014A  082D               	movf	___fldiv@a+3,w
  2235     014B  023A               	subwf	___fldiv@rem+3,w
  2236     014C  1D03               	skipz
  2237     014D  2958               	goto	u5035
  2238     014E  082C               	movf	___fldiv@a+2,w
  2239     014F  0239               	subwf	___fldiv@rem+2,w
  2240     0150  1D03               	skipz
  2241     0151  2958               	goto	u5035
  2242     0152  082B               	movf	___fldiv@a+1,w
  2243     0153  0238               	subwf	___fldiv@rem+1,w
  2244     0154  1D03               	skipz
  2245     0155  2958               	goto	u5035
  2246     0156  082A               	movf	___fldiv@a,w
  2247     0157  0237               	subwf	___fldiv@rem,w
  2248     0158                     u5035:
  2249     0158  1C03               	skipc
  2250     0159  295B               	goto	u5031
  2251     015A  295C               	goto	u5030
  2252     015B                     u5031:
  2253     015B  296B               	goto	l3391
  2254     015C                     u5030:
  2255     015C                     l3387:
  2256     015C  1741               	bsf	___fldiv@grs+3,6
  2257     015D                     l3389:
  2258     015D  082A               	movf	___fldiv@a,w
  2259     015E  02B7               	subwf	___fldiv@rem,f
  2260     015F  082B               	movf	___fldiv@a+1,w
  2261     0160  1C03               	skipc
  2262     0161  0F2B               	incfsz	___fldiv@a+1,w
  2263     0162  02B8               	subwf	___fldiv@rem+1,f
  2264     0163  082C               	movf	___fldiv@a+2,w
  2265     0164  1C03               	skipc
  2266     0165  0F2C               	incfsz	___fldiv@a+2,w
  2267     0166  02B9               	subwf	___fldiv@rem+2,f
  2268     0167  082D               	movf	___fldiv@a+3,w
  2269     0168  1C03               	skipc
  2270     0169  0F2D               	incfsz	___fldiv@a+3,w
  2271     016A  02BA               	subwf	___fldiv@rem+3,f
  2272     016B                     l3391:
  2273     016B  3001               	movlw	1
  2274     016C  00FF               	movwf	btemp+1
  2275     016D  087F               	movf	btemp+1,w
  2276     016E  07C3               	addwf	___fldiv@aexp,f
  2277     016F                     l3393:
  2278     016F  301A               	movlw	26
  2279     0170  0243               	subwf	___fldiv@aexp,w
  2280     0171  1C03               	skipc
  2281     0172  2974               	goto	u5041
  2282     0173  2975               	goto	u5040
  2283     0174                     u5041:
  2284     0174  2925               	goto	l3375
  2285     0175                     u5040:
  2286     0175                     l3395:
  2287     0175  083A               	movf	___fldiv@rem+3,w
  2288     0176  0439               	iorwf	___fldiv@rem+2,w
  2289     0177  0438               	iorwf	___fldiv@rem+1,w
  2290     0178  0437               	iorwf	___fldiv@rem,w
  2291     0179  1903               	skipnz
  2292     017A  297C               	goto	u5051
  2293     017B  297D               	goto	u5050
  2294     017C                     u5051:
  2295     017C  299C               	goto	l3409
  2296     017D                     u5050:
  2297     017D                     l3397:
  2298     017D  143E               	bsf	___fldiv@grs,0
  2299     017E  299C               	goto	l3409
  2300     017F                     l3399:
  2301     017F  3001               	movlw	1
  2302     0180  00B2               	movwf	??___fldiv
  2303     0181                     u5065:
  2304     0181  1003               	clrc
  2305     0182  0DAE               	rlf	___fldiv@b,f
  2306     0183  0DAF               	rlf	___fldiv@b+1,f
  2307     0184  0DB0               	rlf	___fldiv@b+2,f
  2308     0185  0DB1               	rlf	___fldiv@b+3,f
  2309     0186  0BB2               	decfsz	??___fldiv,f
  2310     0187  2981               	goto	u5065
  2311     0188                     l3401:
  2312     0188  1FC1               	btfss	___fldiv@grs+3,7
  2313     0189  298B               	goto	u5071
  2314     018A  298C               	goto	u5070
  2315     018B                     u5071:
  2316     018B  298D               	goto	l3405
  2317     018C                     u5070:
  2318     018C                     l3403:
  2319     018C  142E               	bsf	___fldiv@b,0
  2320     018D                     l3405:
  2321     018D  3001               	movlw	1
  2322     018E  00B2               	movwf	??___fldiv
  2323     018F                     u5085:
  2324     018F  1003               	clrc
  2325     0190  0DBE               	rlf	___fldiv@grs,f
  2326     0191  0DBF               	rlf	___fldiv@grs+1,f
  2327     0192  0DC0               	rlf	___fldiv@grs+2,f
  2328     0193  0DC1               	rlf	___fldiv@grs+3,f
  2329     0194  0BB2               	decfsz	??___fldiv,f
  2330     0195  298F               	goto	u5085
  2331     0196                     l3407:
  2332     0196  30FF               	movlw	255
  2333     0197  07BC               	addwf	___fldiv@new_exp,f
  2334     0198  1803               	skipnc
  2335     0199  0ABD               	incf	___fldiv@new_exp+1,f
  2336     019A  30FF               	movlw	255
  2337     019B  07BD               	addwf	___fldiv@new_exp+1,f
  2338     019C                     l3409:
  2339     019C  1FB0               	btfss	___fldiv@b+2,7
  2340     019D  299F               	goto	u5091
  2341     019E  29A0               	goto	u5090
  2342     019F                     u5091:
  2343     019F  297F               	goto	l3399
  2344     01A0                     u5090:
  2345     01A0                     l3411:
  2346     01A0  01C3               	clrf	___fldiv@aexp
  2347     01A1                     l3413:
  2348     01A1  1FC1               	btfss	___fldiv@grs+3,7
  2349     01A2  29A4               	goto	u5101
  2350     01A3  29A5               	goto	u5100
  2351     01A4                     u5101:
  2352     01A4  29C1               	goto	l3421
  2353     01A5                     u5100:
  2354     01A5                     l3415:
  2355     01A5  30FF               	movlw	255
  2356     01A6  053E               	andwf	___fldiv@grs,w
  2357     01A7  00B2               	movwf	??___fldiv
  2358     01A8  30FF               	movlw	255
  2359     01A9  053F               	andwf	___fldiv@grs+1,w
  2360     01AA  00B3               	movwf	??___fldiv+1
  2361     01AB  30FF               	movlw	255
  2362     01AC  0540               	andwf	___fldiv@grs+2,w
  2363     01AD  00B4               	movwf	??___fldiv+2
  2364     01AE  307F               	movlw	127
  2365     01AF  0541               	andwf	___fldiv@grs+3,w
  2366     01B0  00B5               	movwf	??___fldiv+3
  2367     01B1  0835               	movf	??___fldiv+3,w
  2368     01B2  0434               	iorwf	??___fldiv+2,w
  2369     01B3  0433               	iorwf	??___fldiv+1,w
  2370     01B4  0432               	iorwf	??___fldiv,w
  2371     01B5  1903               	skipnz
  2372     01B6  29B8               	goto	u5111
  2373     01B7  29B9               	goto	u5110
  2374     01B8                     u5111:
  2375     01B8  29BC               	goto	l684
  2376     01B9                     u5110:
  2377     01B9                     l3417:
  2378     01B9  01C3               	clrf	___fldiv@aexp
  2379     01BA  0AC3               	incf	___fldiv@aexp,f
  2380     01BB  29C1               	goto	l3421
  2381     01BC                     l684:
  2382     01BC  1C2E               	btfss	___fldiv@b,0
  2383     01BD  29BF               	goto	u5121
  2384     01BE  29C0               	goto	u5120
  2385     01BF                     u5121:
  2386     01BF  29C1               	goto	l3421
  2387     01C0                     u5120:
  2388     01C0  29B9               	goto	l3417
  2389     01C1                     l3421:
  2390     01C1  0843               	movf	___fldiv@aexp,w
  2391     01C2  1903               	btfsc	3,2
  2392     01C3  29C5               	goto	u5131
  2393     01C4  29C6               	goto	u5130
  2394     01C5                     u5131:
  2395     01C5  29F7               	goto	l3431
  2396     01C6                     u5130:
  2397     01C6                     l3423:
  2398     01C6  3001               	movlw	1
  2399     01C7  07AE               	addwf	___fldiv@b,f
  2400     01C8  3000               	movlw	0
  2401     01C9  1803               	skipnc
  2402     01CA  3001               	movlw	1
  2403     01CB  07AF               	addwf	___fldiv@b+1,f
  2404     01CC  3000               	movlw	0
  2405     01CD  1803               	skipnc
  2406     01CE  3001               	movlw	1
  2407     01CF  07B0               	addwf	___fldiv@b+2,f
  2408     01D0  3000               	movlw	0
  2409     01D1  1803               	skipnc
  2410     01D2  3001               	movlw	1
  2411     01D3  07B1               	addwf	___fldiv@b+3,f
  2412     01D4                     l3425:
  2413     01D4  1C31               	btfss	___fldiv@b+3,0
  2414     01D5  29D7               	goto	u5141
  2415     01D6  29D8               	goto	u5140
  2416     01D7                     u5141:
  2417     01D7  29F7               	goto	l3431
  2418     01D8                     u5140:
  2419     01D8                     l3427:
  2420     01D8  082E               	movf	___fldiv@b,w
  2421     01D9  00B2               	movwf	??___fldiv
  2422     01DA  082F               	movf	___fldiv@b+1,w
  2423     01DB  00B3               	movwf	??___fldiv+1
  2424     01DC  0830               	movf	___fldiv@b+2,w
  2425     01DD  00B4               	movwf	??___fldiv+2
  2426     01DE  0831               	movf	___fldiv@b+3,w
  2427     01DF  00B5               	movwf	??___fldiv+3
  2428     01E0  3001               	movlw	1
  2429     01E1  00B6               	movwf	??___fldiv+4
  2430     01E2                     u5155:
  2431     01E2  0D35               	rlf	??___fldiv+3,w
  2432     01E3  0CB5               	rrf	??___fldiv+3,f
  2433     01E4  0CB4               	rrf	??___fldiv+2,f
  2434     01E5  0CB3               	rrf	??___fldiv+1,f
  2435     01E6  0CB2               	rrf	??___fldiv,f
  2436     01E7                     u5150:
  2437     01E7  0BB6               	decfsz	??___fldiv+4,f
  2438     01E8  29E2               	goto	u5155
  2439     01E9  0835               	movf	??___fldiv+3,w
  2440     01EA  00B1               	movwf	___fldiv@b+3
  2441     01EB  0834               	movf	??___fldiv+2,w
  2442     01EC  00B0               	movwf	___fldiv@b+2
  2443     01ED  0833               	movf	??___fldiv+1,w
  2444     01EE  00AF               	movwf	___fldiv@b+1
  2445     01EF  0832               	movf	??___fldiv,w
  2446     01F0  00AE               	movwf	___fldiv@b
  2447     01F1                     l3429:
  2448     01F1  3001               	movlw	1
  2449     01F2  07BC               	addwf	___fldiv@new_exp,f
  2450     01F3  1803               	skipnc
  2451     01F4  0ABD               	incf	___fldiv@new_exp+1,f
  2452     01F5  3000               	movlw	0
  2453     01F6  07BD               	addwf	___fldiv@new_exp+1,f
  2454     01F7                     l3431:
  2455     01F7  083D               	movf	___fldiv@new_exp+1,w
  2456     01F8  3A80               	xorlw	128
  2457     01F9  00FF               	movwf	btemp+1
  2458     01FA  3080               	movlw	128
  2459     01FB  027F               	subwf	btemp+1,w
  2460     01FC  1D03               	skipz
  2461     01FD  2A00               	goto	u5165
  2462     01FE  30FF               	movlw	255
  2463     01FF  023C               	subwf	___fldiv@new_exp,w
  2464     0200                     u5165:
  2465     0200  1C03               	skipc
  2466     0201  2A03               	goto	u5161
  2467     0202  2A04               	goto	u5160
  2468     0203                     u5161:
  2469     0203  2A12               	goto	l3435
  2470     0204                     u5160:
  2471     0204                     l3433:
  2472     0204  30FF               	movlw	255
  2473     0205  1283               	bcf	3,5	;RP0=0, select bank0
  2474     0206  1303               	bcf	3,6	;RP1=0, select bank0
  2475     0207  00BC               	movwf	___fldiv@new_exp
  2476     0208  3000               	movlw	0
  2477     0209  00BD               	movwf	___fldiv@new_exp+1
  2478     020A  3000               	movlw	0
  2479     020B  00B1               	movwf	___fldiv@b+3
  2480     020C  3000               	movlw	0
  2481     020D  00B0               	movwf	___fldiv@b+2
  2482     020E  3000               	movlw	0
  2483     020F  00AF               	movwf	___fldiv@b+1
  2484     0210  3000               	movlw	0
  2485     0211  00AE               	movwf	___fldiv@b
  2486     0212                     l3435:
  2487     0212  1283               	bcf	3,5	;RP0=0, select bank0
  2488     0213  1303               	bcf	3,6	;RP1=0, select bank0
  2489     0214  083D               	movf	___fldiv@new_exp+1,w
  2490     0215  3A80               	xorlw	128
  2491     0216  00FF               	movwf	btemp+1
  2492     0217  3080               	movlw	128
  2493     0218  027F               	subwf	btemp+1,w
  2494     0219  1D03               	skipz
  2495     021A  2A1D               	goto	u5175
  2496     021B  3001               	movlw	1
  2497     021C  023C               	subwf	___fldiv@new_exp,w
  2498     021D                     u5175:
  2499     021D  1803               	skipnc
  2500     021E  2A20               	goto	u5171
  2501     021F  2A21               	goto	u5170
  2502     0220                     u5171:
  2503     0220  2A2E               	goto	l690
  2504     0221                     u5170:
  2505     0221                     l3437:
  2506     0221  1283               	bcf	3,5	;RP0=0, select bank0
  2507     0222  1303               	bcf	3,6	;RP1=0, select bank0
  2508     0223  01BC               	clrf	___fldiv@new_exp
  2509     0224  01BD               	clrf	___fldiv@new_exp+1
  2510     0225                     l3439:
  2511     0225  3000               	movlw	0
  2512     0226  00B1               	movwf	___fldiv@b+3
  2513     0227  3000               	movlw	0
  2514     0228  00B0               	movwf	___fldiv@b+2
  2515     0229  3000               	movlw	0
  2516     022A  00AF               	movwf	___fldiv@b+1
  2517     022B  3000               	movlw	0
  2518     022C  00AE               	movwf	___fldiv@b
  2519     022D                     l3441:
  2520     022D  01BB               	clrf	___fldiv@sign
  2521     022E                     l690:
  2522     022E  1283               	bcf	3,5	;RP0=0, select bank0
  2523     022F  1303               	bcf	3,6	;RP1=0, select bank0
  2524     0230  083C               	movf	___fldiv@new_exp,w
  2525     0231  00C2               	movwf	___fldiv@bexp
  2526     0232                     l3443:
  2527     0232  1C42               	btfss	___fldiv@bexp,0
  2528     0233  2A35               	goto	u5181
  2529     0234  2A36               	goto	u5180
  2530     0235                     u5181:
  2531     0235  2A38               	goto	l3447
  2532     0236                     u5180:
  2533     0236                     l3445:
  2534     0236  17B0               	bsf	___fldiv@b+2,7
  2535     0237  2A3C               	goto	l3449
  2536     0238                     l3447:
  2537     0238  307F               	movlw	127
  2538     0239  00FF               	movwf	btemp+1
  2539     023A  087F               	movf	btemp+1,w
  2540     023B  05B0               	andwf	___fldiv@b+2,f
  2541     023C                     l3449:
  2542     023C  0842               	movf	___fldiv@bexp,w
  2543     023D  00B2               	movwf	??___fldiv
  2544     023E  1003               	clrc
  2545     023F  0C32               	rrf	??___fldiv,w
  2546     0240  00B1               	movwf	___fldiv@b+3
  2547     0241  28DE               	goto	l3353
  2548     0242                     l670:
  2549     0242  0008               	return
  2550     0243                     __end_of___fldiv:
  2551                           
  2552                           	psect	text4
  2553     1764                     __ptext4:	
  2554 ;; *************** function _dht11_config *****************
  2555 ;; Defined at:
  2556 ;;		line 96 in file "dht11.c"
  2557 ;; Parameters:    Size  Location     Type
  2558 ;;		None
  2559 ;; Auto vars:     Size  Location     Type
  2560 ;;		None
  2561 ;; Return value:  Size  Location     Type
  2562 ;;                  1    wreg      void 
  2563 ;; Registers used:
  2564 ;;		wreg
  2565 ;; Tracked objects:
  2566 ;;		On entry : 0/0
  2567 ;;		On exit  : 0/0
  2568 ;;		Unchanged: 0/0
  2569 ;; Data sizes:     COMMON   BANK0   BANK1   BANK3   BANK2
  2570 ;;      Params:         0       0       0       0       0
  2571 ;;      Locals:         0       0       0       0       0
  2572 ;;      Temps:          2       0       0       0       0
  2573 ;;      Totals:         2       0       0       0       0
  2574 ;;Total ram usage:        2 bytes
  2575 ;; Hardware stack levels used: 1
  2576 ;; Hardware stack levels required when called: 1
  2577 ;; This function calls:
  2578 ;;		Nothing
  2579 ;; This function is called by:
  2580 ;;		_main
  2581 ;; This function uses a non-reentrant model
  2582 ;;
  2583                           
  2584     1764                     _dht11_config:	
  2585                           ;psect for function _dht11_config
  2586                           
  2587     1764                     l2655:	
  2588                           ;incstack = 0
  2589                           ; Regs used in _dht11_config: [wreg]
  2590                           
  2591                           
  2592                           ;dht11.c: 97:     PORTAbits.RA6 = 0; TRISAbits.TRISA6 = 0;;
  2593     1764  1283               	bcf	3,5	;RP0=0, select bank0
  2594     1765  1303               	bcf	3,6	;RP1=0, select bank0
  2595     1766  1305               	bcf	5,6	;volatile
  2596     1767  1683               	bsf	3,5	;RP0=1, select bank1
  2597     1768  1303               	bcf	3,6	;RP1=0, select bank1
  2598     1769  1305               	bcf	5,6	;volatile
  2599     176A                     l2657:
  2600                           
  2601                           ;dht11.c: 98:     _delay((unsigned long)((18)*((4000000L)/4000.0)));
  2602     176A  3018               	movlw	24
  2603     176B  00F4               	movwf	??_dht11_config+1
  2604     176C  305F               	movlw	95
  2605     176D  00F3               	movwf	??_dht11_config
  2606     176E                     u5967:
  2607     176E  0BF3               	decfsz	??_dht11_config,f
  2608     176F  2F6E               	goto	u5967
  2609     1770  0BF4               	decfsz	??_dht11_config+1,f
  2610     1771  2F6E               	goto	u5967
  2611     1772                     l2659:
  2612                           
  2613                           ;dht11.c: 99:     TRISAbits.TRISA6 = 1;;
  2614     1772  1683               	bsf	3,5	;RP0=1, select bank1
  2615     1773  1303               	bcf	3,6	;RP1=0, select bank1
  2616     1774  1705               	bsf	5,6	;volatile
  2617                           
  2618                           ;dht11.c: 100:     _delay((unsigned long)((30)*((4000000L)/4000000.0)));
  2619     1775  3009               	movlw	9
  2620     1776  00F3               	movwf	??_dht11_config
  2621     1777                     u5977:
  2622     1777  0BF3               	decfsz	??_dht11_config,f
  2623     1778  2F77               	goto	u5977
  2624     1779  2F7A               	nop2
  2625     177A                     l2661:
  2626                           
  2627                           ;dht11.c: 101:     OPTION_REGbits.T0CS = 0; OPTION_REGbits.PSA = 1;
  2628     177A  1683               	bsf	3,5	;RP0=1, select bank1
  2629     177B  1303               	bcf	3,6	;RP1=0, select bank1
  2630     177C  1281               	bcf	1,5	;volatile
  2631     177D                     l2663:
  2632     177D  1581               	bsf	1,3	;volatile
  2633     177E                     l207:
  2634     177E  0008               	return
  2635     177F                     __end_of_dht11_config:
  2636                           
  2637                           	psect	text5
  2638     174E                     __ptext5:	
  2639 ;; *************** function _PWM_Init *****************
  2640 ;; Defined at:
  2641 ;;		line 71 in file "main.c"
  2642 ;; Parameters:    Size  Location     Type
  2643 ;;		None
  2644 ;; Auto vars:     Size  Location     Type
  2645 ;;		None
  2646 ;; Return value:  Size  Location     Type
  2647 ;;                  1    wreg      void 
  2648 ;; Registers used:
  2649 ;;		wreg, status,2, status,0
  2650 ;; Tracked objects:
  2651 ;;		On entry : 0/0
  2652 ;;		On exit  : 0/0
  2653 ;;		Unchanged: 0/0
  2654 ;; Data sizes:     COMMON   BANK0   BANK1   BANK3   BANK2
  2655 ;;      Params:         0       0       0       0       0
  2656 ;;      Locals:         0       0       0       0       0
  2657 ;;      Temps:          0       0       0       0       0
  2658 ;;      Totals:         0       0       0       0       0
  2659 ;;Total ram usage:        0 bytes
  2660 ;; Hardware stack levels used: 1
  2661 ;; Hardware stack levels required when called: 1
  2662 ;; This function calls:
  2663 ;;		Nothing
  2664 ;; This function is called by:
  2665 ;;		_main
  2666 ;; This function uses a non-reentrant model
  2667 ;;
  2668                           
  2669     174E                     _PWM_Init:	
  2670                           ;psect for function _PWM_Init
  2671                           
  2672     174E                     l2603:	
  2673                           ;incstack = 0
  2674                           ; Regs used in _PWM_Init: [wreg+status,2+status,0]
  2675                           
  2676                           
  2677                           ;main.c: 72:     TRISCbits.TRISC2 = 0;
  2678     174E  1683               	bsf	3,5	;RP0=1, select bank1
  2679     174F  1303               	bcf	3,6	;RP1=0, select bank1
  2680     1750  1107               	bcf	7,2	;volatile
  2681     1751                     l2605:
  2682                           
  2683                           ;main.c: 75:     CCP1CONbits.CCP1M = 0b1100;
  2684     1751  1283               	bcf	3,5	;RP0=0, select bank0
  2685     1752  1303               	bcf	3,6	;RP1=0, select bank0
  2686     1753  0817               	movf	23,w	;volatile
  2687     1754  39F0               	andlw	-16
  2688     1755  380C               	iorlw	12
  2689     1756  0097               	movwf	23	;volatile
  2690     1757                     l2607:
  2691                           
  2692                           ;main.c: 78:     PR2 = 255;
  2693     1757  30FF               	movlw	255
  2694     1758  1683               	bsf	3,5	;RP0=1, select bank1
  2695     1759  1303               	bcf	3,6	;RP1=0, select bank1
  2696     175A  0092               	movwf	18	;volatile
  2697     175B                     l2609:
  2698                           
  2699                           ;main.c: 79:     T2CONbits.T2CKPS = 0b01;
  2700     175B  1283               	bcf	3,5	;RP0=0, select bank0
  2701     175C  1303               	bcf	3,6	;RP1=0, select bank0
  2702     175D  0812               	movf	18,w	;volatile
  2703     175E  39FC               	andlw	-4
  2704     175F  3801               	iorlw	1
  2705     1760  0092               	movwf	18	;volatile
  2706     1761                     l2611:
  2707                           
  2708                           ;main.c: 80:     T2CONbits.TMR2ON = 1;
  2709     1761  1512               	bsf	18,2	;volatile
  2710     1762                     l2613:
  2711                           
  2712                           ;main.c: 83:     CCPR1L = 0;
  2713     1762  0195               	clrf	21	;volatile
  2714     1763                     l84:
  2715     1763  0008               	return
  2716     1764                     __end_of_PWM_Init:
  2717                           
  2718                           	psect	text6
  2719     09C7                     __ptext6:	
  2720 ;; *************** function _LCD_Init *****************
  2721 ;; Defined at:
  2722 ;;		line 101 in file "lcd_msd.c"
  2723 ;; Parameters:    Size  Location     Type
  2724 ;;		None
  2725 ;; Auto vars:     Size  Location     Type
  2726 ;;		None
  2727 ;; Return value:  Size  Location     Type
  2728 ;;                  1    wreg      void 
  2729 ;; Registers used:
  2730 ;;		wreg, status,2, status,0, btemp+1, pclath, cstack
  2731 ;; Tracked objects:
  2732 ;;		On entry : 0/0
  2733 ;;		On exit  : 0/0
  2734 ;;		Unchanged: 0/0
  2735 ;; Data sizes:     COMMON   BANK0   BANK1   BANK3   BANK2
  2736 ;;      Params:         0       0       0       0       0
  2737 ;;      Locals:         0       0       0       0       0
  2738 ;;      Temps:          0       2       0       0       0
  2739 ;;      Totals:         0       2       0       0       0
  2740 ;;Total ram usage:        2 bytes
  2741 ;; Hardware stack levels used: 1
  2742 ;; Hardware stack levels required when called: 4
  2743 ;; This function calls:
  2744 ;;		_LCD_Clear
  2745 ;;		_LCD_Write
  2746 ;; This function is called by:
  2747 ;;		_main
  2748 ;; This function uses a non-reentrant model
  2749 ;;
  2750                           
  2751     09C7                     _LCD_Init:	
  2752                           ;psect for function _LCD_Init
  2753                           
  2754     09C7                     l3647:	
  2755                           ;incstack = 0
  2756                           ; Regs used in _LCD_Init: [wreg+status,2+status,0+btemp+1+pclath+cstack]
  2757                           
  2758                           
  2759                           ;lcd_msd.c: 102:     TRISB = TRISB & 0b11010000u;
  2760     09C7  1683               	bsf	3,5	;RP0=1, select bank1
  2761     09C8  1303               	bcf	3,6	;RP1=0, select bank1
  2762     09C9  0806               	movf	6,w	;volatile
  2763     09CA  39D0               	andlw	208
  2764     09CB  0086               	movwf	6	;volatile
  2765     09CC                     l3649:
  2766                           
  2767                           ;lcd_msd.c: 103:     TRISCbits.TRISC1 = 0;
  2768     09CC  1087               	bcf	7,1	;volatile
  2769     09CD                     l3651:
  2770                           
  2771                           ;lcd_msd.c: 104:     TRISCbits.TRISC3 = 0;
  2772     09CD  1187               	bcf	7,3	;volatile
  2773     09CE                     l3653:
  2774                           
  2775                           ;lcd_msd.c: 105:     PORTCbits.RC3 = 0;
  2776     09CE  1283               	bcf	3,5	;RP0=0, select bank0
  2777     09CF  1303               	bcf	3,6	;RP1=0, select bank0
  2778     09D0  1187               	bcf	7,3	;volatile
  2779     09D1                     l3655:
  2780                           
  2781                           ;lcd_msd.c: 107:     PORTB = 0;
  2782     09D1  0186               	clrf	6	;volatile
  2783     09D2                     l3657:
  2784                           
  2785                           ;lcd_msd.c: 108:     PORTCbits.RC1 = 0;
  2786     09D2  1087               	bcf	7,1	;volatile
  2787                           
  2788                           ;lcd_msd.c: 110:     _delay((unsigned long)((100)*(4000000/4000.0)));
  2789     09D3  3082               	movlw	130
  2790     09D4  1283               	bcf	3,5	;RP0=0, select bank0
  2791     09D5  1303               	bcf	3,6	;RP1=0, select bank0
  2792     09D6  00C5               	movwf	??_LCD_Init+1
  2793     09D7  30DD               	movlw	221
  2794     09D8  00C4               	movwf	??_LCD_Init
  2795     09D9                     u5987:
  2796     09D9  0BC4               	decfsz	??_LCD_Init,f
  2797     09DA  29D9               	goto	u5987
  2798     09DB  0BC5               	decfsz	??_LCD_Init+1,f
  2799     09DC  29D9               	goto	u5987
  2800                           
  2801                           ;lcd_msd.c: 111:     PORTB = 0b00000011u;
  2802     09DD  3003               	movlw	3
  2803     09DE  1283               	bcf	3,5	;RP0=0, select bank0
  2804     09DF  1303               	bcf	3,6	;RP1=0, select bank0
  2805     09E0  0086               	movwf	6	;volatile
  2806     09E1                     l3659:
  2807                           
  2808                           ;lcd_msd.c: 112:     ((PORTCbits.RC1=1),(PORTCbits.RC1=0));
  2809     09E1  1487               	bsf	7,1	;volatile
  2810     09E2                     l3661:
  2811     09E2  1087               	bcf	7,1	;volatile
  2812                           
  2813                           ;lcd_msd.c: 113:     _delay((unsigned long)((5)*(4000000/4000.0)));
  2814     09E3  3007               	movlw	7
  2815     09E4  1283               	bcf	3,5	;RP0=0, select bank0
  2816     09E5  1303               	bcf	3,6	;RP1=0, select bank0
  2817     09E6  00C5               	movwf	??_LCD_Init+1
  2818     09E7  307C               	movlw	124
  2819     09E8  00C4               	movwf	??_LCD_Init
  2820     09E9                     u5997:
  2821     09E9  0BC4               	decfsz	??_LCD_Init,f
  2822     09EA  29E9               	goto	u5997
  2823     09EB  0BC5               	decfsz	??_LCD_Init+1,f
  2824     09EC  29E9               	goto	u5997
  2825     09ED  0000               	nop
  2826     09EE                     l3663:
  2827                           
  2828                           ;lcd_msd.c: 114:     ((PORTCbits.RC1=1),(PORTCbits.RC1=0));
  2829     09EE  1283               	bcf	3,5	;RP0=0, select bank0
  2830     09EF  1303               	bcf	3,6	;RP1=0, select bank0
  2831     09F0  1487               	bsf	7,1	;volatile
  2832     09F1                     l3665:
  2833     09F1  1087               	bcf	7,1	;volatile
  2834                           
  2835                           ;lcd_msd.c: 115:     _delay((unsigned long)((1)*(4000000/4000.0)));
  2836     09F2  30C7               	movlw	199
  2837     09F3  1283               	bcf	3,5	;RP0=0, select bank0
  2838     09F4  1303               	bcf	3,6	;RP1=0, select bank0
  2839     09F5  00C4               	movwf	??_LCD_Init
  2840     09F6                     u6007:
  2841     09F6  29F7               	nop2
  2842     09F7  0BC4               	decfsz	??_LCD_Init,f
  2843     09F8  29F6               	goto	u6007
  2844     09F9  29FA               	nop2
  2845     09FA                     l3667:
  2846                           
  2847                           ;lcd_msd.c: 116:     ((PORTCbits.RC1=1),(PORTCbits.RC1=0));
  2848     09FA  1283               	bcf	3,5	;RP0=0, select bank0
  2849     09FB  1303               	bcf	3,6	;RP1=0, select bank0
  2850     09FC  1487               	bsf	7,1	;volatile
  2851     09FD                     l3669:
  2852     09FD  1087               	bcf	7,1	;volatile
  2853                           
  2854                           ;lcd_msd.c: 117:     _delay((unsigned long)((1)*(4000000/4000.0)));
  2855     09FE  30C7               	movlw	199
  2856     09FF  1283               	bcf	3,5	;RP0=0, select bank0
  2857     0A00  1303               	bcf	3,6	;RP1=0, select bank0
  2858     0A01  00C4               	movwf	??_LCD_Init
  2859     0A02                     u6017:
  2860     0A02  2A03               	nop2
  2861     0A03  0BC4               	decfsz	??_LCD_Init,f
  2862     0A04  2A02               	goto	u6017
  2863     0A05  2A06               	nop2
  2864                           
  2865                           ;lcd_msd.c: 119:     PORTB = 0b00000010u;
  2866     0A06  3002               	movlw	2
  2867     0A07  1283               	bcf	3,5	;RP0=0, select bank0
  2868     0A08  1303               	bcf	3,6	;RP1=0, select bank0
  2869     0A09  0086               	movwf	6	;volatile
  2870     0A0A                     l3671:
  2871                           
  2872                           ;lcd_msd.c: 120:     ((PORTCbits.RC1=1),(PORTCbits.RC1=0));
  2873     0A0A  1487               	bsf	7,1	;volatile
  2874     0A0B                     l3673:
  2875     0A0B  1087               	bcf	7,1	;volatile
  2876                           
  2877                           ;lcd_msd.c: 122:     _delay((unsigned long)((100)*(4000000/4000000.0)));
  2878     0A0C  3020               	movlw	32
  2879     0A0D  1283               	bcf	3,5	;RP0=0, select bank0
  2880     0A0E  1303               	bcf	3,6	;RP1=0, select bank0
  2881     0A0F  00C4               	movwf	??_LCD_Init
  2882     0A10                     u6027:
  2883     0A10  0BC4               	decfsz	??_LCD_Init,f
  2884     0A11  2A10               	goto	u6027
  2885     0A12  0000               	nop
  2886     0A13                     l3675:
  2887                           
  2888                           ;lcd_msd.c: 123:     LCD_Write(0b00101000, 0);
  2889     0A13  01F7               	clrf	LCD_Write@RS
  2890     0A14  3028               	movlw	40
  2891     0A15  120A  158A  20E2  120A  158A  	fcall	_LCD_Write
  2892     0A1A                     l3677:
  2893                           
  2894                           ;lcd_msd.c: 124:     _delay((unsigned long)((100)*(4000000/4000000.0)));
  2895     0A1A  3020               	movlw	32
  2896     0A1B  1283               	bcf	3,5	;RP0=0, select bank0
  2897     0A1C  1303               	bcf	3,6	;RP1=0, select bank0
  2898     0A1D  00C4               	movwf	??_LCD_Init
  2899     0A1E                     u6037:
  2900     0A1E  0BC4               	decfsz	??_LCD_Init,f
  2901     0A1F  2A1E               	goto	u6037
  2902     0A20  0000               	nop
  2903                           
  2904                           ;lcd_msd.c: 125:     LCD_Clear();
  2905     0A21  160A  118A  2729  120A  158A  	fcall	_LCD_Clear
  2906     0A26                     l3679:
  2907                           
  2908                           ;lcd_msd.c: 126:     _delay((unsigned long)((4)*(4000000/4000.0)));
  2909     0A26  3006               	movlw	6
  2910     0A27  1283               	bcf	3,5	;RP0=0, select bank0
  2911     0A28  1303               	bcf	3,6	;RP1=0, select bank0
  2912     0A29  00C5               	movwf	??_LCD_Init+1
  2913     0A2A  302F               	movlw	47
  2914     0A2B  00C4               	movwf	??_LCD_Init
  2915     0A2C                     u6047:
  2916     0A2C  0BC4               	decfsz	??_LCD_Init,f
  2917     0A2D  2A2C               	goto	u6047
  2918     0A2E  0BC5               	decfsz	??_LCD_Init+1,f
  2919     0A2F  2A2C               	goto	u6047
  2920     0A30  2A31               	nop2
  2921     0A31                     l3681:
  2922                           
  2923                           ;lcd_msd.c: 127:     LCD_Write(0b00000110, 0);
  2924     0A31  01F7               	clrf	LCD_Write@RS
  2925     0A32  3006               	movlw	6
  2926     0A33  120A  158A  20E2  120A  158A  	fcall	_LCD_Write
  2927                           
  2928                           ;lcd_msd.c: 128:     _delay((unsigned long)((100)*(4000000/4000000.0)));
  2929     0A38  3020               	movlw	32
  2930     0A39  1283               	bcf	3,5	;RP0=0, select bank0
  2931     0A3A  1303               	bcf	3,6	;RP1=0, select bank0
  2932     0A3B  00C4               	movwf	??_LCD_Init
  2933     0A3C                     u6057:
  2934     0A3C  0BC4               	decfsz	??_LCD_Init,f
  2935     0A3D  2A3C               	goto	u6057
  2936     0A3E  0000               	nop
  2937     0A3F                     l3683:
  2938                           
  2939                           ;lcd_msd.c: 129:     LCD_Write(0b00001100, 0);
  2940     0A3F  01F7               	clrf	LCD_Write@RS
  2941     0A40  300C               	movlw	12
  2942     0A41  120A  158A  20E2  120A  158A  	fcall	_LCD_Write
  2943     0A46                     l3685:
  2944                           
  2945                           ;lcd_msd.c: 130:     _delay((unsigned long)((100)*(4000000/4000000.0)));
  2946     0A46  3020               	movlw	32
  2947     0A47  1283               	bcf	3,5	;RP0=0, select bank0
  2948     0A48  1303               	bcf	3,6	;RP1=0, select bank0
  2949     0A49  00C4               	movwf	??_LCD_Init
  2950     0A4A                     u6067:
  2951     0A4A  0BC4               	decfsz	??_LCD_Init,f
  2952     0A4B  2A4A               	goto	u6067
  2953     0A4C  0000               	nop
  2954     0A4D                     l139:
  2955     0A4D  0008               	return
  2956     0A4E                     __end_of_LCD_Init:
  2957                           
  2958                           	psect	text7
  2959     1729                     __ptext7:	
  2960 ;; *************** function _LCD_Clear *****************
  2961 ;; Defined at:
  2962 ;;		line 54 in file "lcd_msd.c"
  2963 ;; Parameters:    Size  Location     Type
  2964 ;;		None
  2965 ;; Auto vars:     Size  Location     Type
  2966 ;;		None
  2967 ;; Return value:  Size  Location     Type
  2968 ;;                  1    wreg      void 
  2969 ;; Registers used:
  2970 ;;		wreg, status,2, status,0, btemp+1, pclath, cstack
  2971 ;; Tracked objects:
  2972 ;;		On entry : 0/0
  2973 ;;		On exit  : 0/0
  2974 ;;		Unchanged: 0/0
  2975 ;; Data sizes:     COMMON   BANK0   BANK1   BANK3   BANK2
  2976 ;;      Params:         0       0       0       0       0
  2977 ;;      Locals:         0       0       0       0       0
  2978 ;;      Temps:          0       2       0       0       0
  2979 ;;      Totals:         0       2       0       0       0
  2980 ;;Total ram usage:        2 bytes
  2981 ;; Hardware stack levels used: 1
  2982 ;; Hardware stack levels required when called: 3
  2983 ;; This function calls:
  2984 ;;		_LCD_Write
  2985 ;; This function is called by:
  2986 ;;		_LCD_Init
  2987 ;; This function uses a non-reentrant model
  2988 ;;
  2989                           
  2990     1729                     _LCD_Clear:	
  2991                           ;psect for function _LCD_Clear
  2992                           
  2993     1729                     l3173:	
  2994                           ;incstack = 0
  2995                           ; Regs used in _LCD_Clear: [wreg+status,2+status,0+btemp+1+pclath+cstack]
  2996                           
  2997                           
  2998                           ;lcd_msd.c: 55:     LCD_Write(0x01, 0);
  2999     1729  01F7               	clrf	LCD_Write@RS
  3000     172A  3001               	movlw	1
  3001     172B  120A  158A  20E2  160A  118A  	fcall	_LCD_Write
  3002     1730                     l3175:
  3003                           
  3004                           ;lcd_msd.c: 57:     _delay((unsigned long)((2)*(4000000/4000.0)));
  3005     1730  3003               	movlw	3
  3006     1731  1283               	bcf	3,5	;RP0=0, select bank0
  3007     1732  1303               	bcf	3,6	;RP1=0, select bank0
  3008     1733  00C3               	movwf	??_LCD_Clear+1
  3009     1734  3097               	movlw	151
  3010     1735  00C2               	movwf	??_LCD_Clear
  3011     1736                     u6077:
  3012     1736  0BC2               	decfsz	??_LCD_Clear,f
  3013     1737  2F36               	goto	u6077
  3014     1738  0BC3               	decfsz	??_LCD_Clear+1,f
  3015     1739  2F36               	goto	u6077
  3016     173A                     l118:
  3017     173A  0008               	return
  3018     173B                     __end_of_LCD_Clear:
  3019                           
  3020                           	psect	text8
  3021     17A8                     __ptext8:	
  3022 ;; *************** function _LCD_Goto *****************
  3023 ;; Defined at:
  3024 ;;		line 76 in file "lcd_msd.c"
  3025 ;; Parameters:    Size  Location     Type
  3026 ;;  row             1    wreg     unsigned char 
  3027 ;;  pos             1   34[BANK0 ] unsigned char 
  3028 ;; Auto vars:     Size  Location     Type
  3029 ;;  row             1   35[BANK0 ] unsigned char 
  3030 ;;  data            1   36[BANK0 ] unsigned char 
  3031 ;; Return value:  Size  Location     Type
  3032 ;;                  1    wreg      void 
  3033 ;; Registers used:
  3034 ;;		wreg, fsr0l, fsr0h, status,2, status,0, btemp+1, pclath, cstack
  3035 ;; Tracked objects:
  3036 ;;		On entry : 0/0
  3037 ;;		On exit  : 0/0
  3038 ;;		Unchanged: 0/0
  3039 ;; Data sizes:     COMMON   BANK0   BANK1   BANK3   BANK2
  3040 ;;      Params:         0       1       0       0       0
  3041 ;;      Locals:         0       2       0       0       0
  3042 ;;      Temps:          0       0       0       0       0
  3043 ;;      Totals:         0       3       0       0       0
  3044 ;;Total ram usage:        3 bytes
  3045 ;; Hardware stack levels used: 1
  3046 ;; Hardware stack levels required when called: 3
  3047 ;; This function calls:
  3048 ;;		_LCD_Write
  3049 ;; This function is called by:
  3050 ;;		_main
  3051 ;; This function uses a non-reentrant model
  3052 ;;
  3053                           
  3054     17A8                     _LCD_Goto:	
  3055                           ;psect for function _LCD_Goto
  3056                           
  3057                           
  3058                           ;incstack = 0
  3059                           ; Regs used in _LCD_Goto: [wreg-fsr0h+status,2+status,0+btemp+1+pclath+cstack]
  3060                           ;LCD_Goto@row stored from wreg
  3061     17A8  1283               	bcf	3,5	;RP0=0, select bank0
  3062     17A9  1303               	bcf	3,6	;RP1=0, select bank0
  3063     17AA  00C3               	movwf	LCD_Goto@row
  3064     17AB                     l3731:
  3065                           
  3066                           ;lcd_msd.c: 77:     uint8_t data;;lcd_msd.c: 79:     switch (row) {
  3067     17AB  2FBC               	goto	l3743
  3068     17AC                     l3733:
  3069                           
  3070                           ;lcd_msd.c: 81:             data = 0x80 + 0x00 + pos;
  3071     17AC  0842               	movf	LCD_Goto@pos,w
  3072     17AD  3E80               	addlw	128
  3073     17AE  00C4               	movwf	LCD_Goto@data
  3074                           
  3075                           ;lcd_msd.c: 82:             break;
  3076     17AF  2FCA               	goto	l3745
  3077     17B0                     l3735:
  3078                           
  3079                           ;lcd_msd.c: 85:             data = 0x80 + 0x40 + pos;
  3080     17B0  0842               	movf	LCD_Goto@pos,w
  3081     17B1  3EC0               	addlw	192
  3082     17B2  00C4               	movwf	LCD_Goto@data
  3083                           
  3084                           ;lcd_msd.c: 86:             break;
  3085     17B3  2FCA               	goto	l3745
  3086     17B4                     l3737:
  3087                           
  3088                           ;lcd_msd.c: 89:             data = 0x80 + 0x10 + pos;
  3089     17B4  0842               	movf	LCD_Goto@pos,w
  3090     17B5  3E90               	addlw	144
  3091     17B6  00C4               	movwf	LCD_Goto@data
  3092                           
  3093                           ;lcd_msd.c: 90:             break;
  3094     17B7  2FCA               	goto	l3745
  3095     17B8                     l3739:
  3096                           
  3097                           ;lcd_msd.c: 93:             data = 0x80 + 0x50 + pos;
  3098     17B8  0842               	movf	LCD_Goto@pos,w
  3099     17B9  3ED0               	addlw	208
  3100     17BA  00C4               	movwf	LCD_Goto@data
  3101                           
  3102                           ;lcd_msd.c: 94:             break;
  3103     17BB  2FCA               	goto	l3745
  3104     17BC                     l3743:
  3105     17BC  0843               	movf	LCD_Goto@row,w
  3106                           
  3107                           ; Switch size 1, requested type "simple"
  3108                           ; Number of cases is 4, Range of values is 0 to 3
  3109                           ; switch strategies available:
  3110                           ; Name         Instructions Cycles
  3111                           ; simple_byte           13     7 (average)
  3112                           ; direct_byte           20     8 (fixed)
  3113                           ; jumptable            260     6 (fixed)
  3114                           ;	Chosen strategy is simple_byte
  3115     17BD  3A00               	xorlw	0	; case 0
  3116     17BE  1903               	skipnz
  3117     17BF  2FAC               	goto	l3733
  3118     17C0  3A01               	xorlw	1	; case 1
  3119     17C1  1903               	skipnz
  3120     17C2  2FB0               	goto	l3735
  3121     17C3  3A03               	xorlw	3	; case 2
  3122     17C4  1903               	skipnz
  3123     17C5  2FB4               	goto	l3737
  3124     17C6  3A01               	xorlw	1	; case 3
  3125     17C7  1903               	skipnz
  3126     17C8  2FB8               	goto	l3739
  3127     17C9  2FCA               	goto	l3745
  3128     17CA                     l3745:
  3129                           
  3130                           ;lcd_msd.c: 96:     LCD_Write(data, 0);
  3131     17CA  01F7               	clrf	LCD_Write@RS
  3132     17CB  0844               	movf	LCD_Goto@data,w
  3133     17CC  120A  158A  20E2  160A  118A  	fcall	_LCD_Write
  3134     17D1                     l136:
  3135     17D1  0008               	return
  3136     17D2                     __end_of_LCD_Goto:
  3137                           
  3138                           	psect	text9
  3139     0C5D                     __ptext9:	
  3140 ;; *************** function _LCD_Float *****************
  3141 ;; Defined at:
  3142 ;;		line 202 in file "lcd_msd.c"
  3143 ;; Parameters:    Size  Location     Type
  3144 ;;  value           4   64[BANK0 ] float 
  3145 ;;  positions       1   68[BANK0 ] unsigned char 
  3146 ;;  decimal_pos     1   69[BANK0 ] unsigned char 
  3147 ;; Auto vars:     Size  Location     Type
  3148 ;;  Bruch           4    5[BANK1 ] float 
  3149 ;;  number          4    1[BANK1 ] unsigned long 
  3150 ;;  i               1    0[BANK1 ] unsigned char 
  3151 ;; Return value:  Size  Location     Type
  3152 ;;                  1    wreg      void 
  3153 ;; Registers used:
  3154 ;;		wreg, fsr0l, fsr0h, status,2, status,0, btemp+1, pclath, cstack
  3155 ;; Tracked objects:
  3156 ;;		On entry : 0/0
  3157 ;;		On exit  : 0/0
  3158 ;;		Unchanged: 0/0
  3159 ;; Data sizes:     COMMON   BANK0   BANK1   BANK3   BANK2
  3160 ;;      Params:         0       6       0       0       0
  3161 ;;      Locals:         0       0       9       0       0
  3162 ;;      Temps:          0       0       0       0       0
  3163 ;;      Totals:         0       6       9       0       0
  3164 ;;Total ram usage:       15 bytes
  3165 ;; Hardware stack levels used: 1
  3166 ;; Hardware stack levels required when called: 4
  3167 ;; This function calls:
  3168 ;;		_LCD_Int
  3169 ;;		_LCD_Write
  3170 ;;		___flge
  3171 ;;		___flmul
  3172 ;;		___flneg
  3173 ;;		___flsub
  3174 ;;		___fltol
  3175 ;;		___xxtofl
  3176 ;; This function is called by:
  3177 ;;		_main
  3178 ;; This function uses a non-reentrant model
  3179 ;;
  3180                           
  3181     0C5D                     _LCD_Float:	
  3182                           ;psect for function _LCD_Float
  3183                           
  3184     0C5D                     l3747:	
  3185                           ;incstack = 0
  3186                           ; Regs used in _LCD_Float: [wreg-fsr0h+status,2+status,0+btemp+1+pclath+cstack]
  3187                           
  3188                           
  3189                           ;lcd_msd.c: 203:     uint8_t i;;lcd_msd.c: 204:     uint32_t number;;lcd_msd.c: 205:    
      +                           float Bruch;;lcd_msd.c: 207:     if (value >= 0)
  3190     0C5D  1283               	bcf	3,5	;RP0=0, select bank0
  3191     0C5E  1303               	bcf	3,6	;RP1=0, select bank0
  3192     0C5F  0863               	movf	LCD_Float@value+3,w
  3193     0C60  00A3               	movwf	___flge@ff1+3
  3194     0C61  0862               	movf	LCD_Float@value+2,w
  3195     0C62  00A2               	movwf	___flge@ff1+2
  3196     0C63  0861               	movf	LCD_Float@value+1,w
  3197     0C64  00A1               	movwf	___flge@ff1+1
  3198     0C65  0860               	movf	LCD_Float@value,w
  3199     0C66  00A0               	movwf	___flge@ff1
  3200     0C67  3000               	movlw	0
  3201     0C68  00A7               	movwf	___flge@ff2+3
  3202     0C69  3000               	movlw	0
  3203     0C6A  00A6               	movwf	___flge@ff2+2
  3204     0C6B  3000               	movlw	0
  3205     0C6C  00A5               	movwf	___flge@ff2+1
  3206     0C6D  3000               	movlw	0
  3207     0C6E  00A4               	movwf	___flge@ff2
  3208     0C6F  120A  158A  224E  120A  158A  	fcall	___flge
  3209     0C74  1C03               	btfss	3,0
  3210     0C75  2C77               	goto	u5781
  3211     0C76  2C78               	goto	u5780
  3212     0C77                     u5781:
  3213     0C77  2C81               	goto	l3751
  3214     0C78                     u5780:
  3215     0C78                     l3749:
  3216                           
  3217                           ;lcd_msd.c: 208:         LCD_Write('+', 1);
  3218     0C78  01F7               	clrf	LCD_Write@RS
  3219     0C79  0AF7               	incf	LCD_Write@RS,f
  3220     0C7A  302B               	movlw	43
  3221     0C7B  120A  158A  20E2  120A  158A  	fcall	_LCD_Write
  3222     0C80  2CA2               	goto	l3755
  3223     0C81                     l3751:
  3224                           
  3225                           ;lcd_msd.c: 210:         LCD_Write('-', 1);
  3226     0C81  01F7               	clrf	LCD_Write@RS
  3227     0C82  0AF7               	incf	LCD_Write@RS,f
  3228     0C83  302D               	movlw	45
  3229     0C84  120A  158A  20E2  120A  158A  	fcall	_LCD_Write
  3230     0C89                     l3753:
  3231                           
  3232                           ;lcd_msd.c: 211:         value = -value;
  3233     0C89  1283               	bcf	3,5	;RP0=0, select bank0
  3234     0C8A  1303               	bcf	3,6	;RP1=0, select bank0
  3235     0C8B  0863               	movf	LCD_Float@value+3,w
  3236     0C8C  00F6               	movwf	___flneg@f1+3
  3237     0C8D  0862               	movf	LCD_Float@value+2,w
  3238     0C8E  00F5               	movwf	___flneg@f1+2
  3239     0C8F  0861               	movf	LCD_Float@value+1,w
  3240     0C90  00F4               	movwf	___flneg@f1+1
  3241     0C91  0860               	movf	LCD_Float@value,w
  3242     0C92  00F3               	movwf	___flneg@f1
  3243     0C93  160A  118A  2712  120A  158A  	fcall	___flneg
  3244     0C98  0876               	movf	?___flneg+3,w
  3245     0C99  1283               	bcf	3,5	;RP0=0, select bank0
  3246     0C9A  1303               	bcf	3,6	;RP1=0, select bank0
  3247     0C9B  00E3               	movwf	LCD_Float@value+3
  3248     0C9C  0875               	movf	?___flneg+2,w
  3249     0C9D  00E2               	movwf	LCD_Float@value+2
  3250     0C9E  0874               	movf	?___flneg+1,w
  3251     0C9F  00E1               	movwf	LCD_Float@value+1
  3252     0CA0  0873               	movf	?___flneg,w
  3253     0CA1  00E0               	movwf	LCD_Float@value
  3254     0CA2                     l3755:
  3255                           
  3256                           ;lcd_msd.c: 214:     number = (int) value;
  3257     0CA2  1283               	bcf	3,5	;RP0=0, select bank0
  3258     0CA3  1303               	bcf	3,6	;RP1=0, select bank0
  3259     0CA4  0863               	movf	LCD_Float@value+3,w
  3260     0CA5  00F6               	movwf	___fltol@f1+3
  3261     0CA6  0862               	movf	LCD_Float@value+2,w
  3262     0CA7  00F5               	movwf	___fltol@f1+2
  3263     0CA8  0861               	movf	LCD_Float@value+1,w
  3264     0CA9  00F4               	movwf	___fltol@f1+1
  3265     0CAA  0860               	movf	LCD_Float@value,w
  3266     0CAB  00F3               	movwf	___fltol@f1
  3267     0CAC  120A  158A  214F  120A  158A  	fcall	___fltol
  3268     0CB1  0873               	movf	?___fltol,w
  3269     0CB2  1683               	bsf	3,5	;RP0=1, select bank1
  3270     0CB3  1303               	bcf	3,6	;RP1=0, select bank1
  3271     0CB4  00B6               	movwf	LCD_Float@number^(0+128)
  3272     0CB5  0874               	movf	?___fltol+1,w
  3273     0CB6  00B7               	movwf	(LCD_Float@number+1)^(0+128)
  3274     0CB7  3000               	movlw	0
  3275     0CB8  1BB7               	btfsc	(LCD_Float@number+1)^(0+128),7
  3276     0CB9  30FF               	movlw	255
  3277     0CBA  00B8               	movwf	(LCD_Float@number+2)^(0+128)
  3278     0CBB  00B9               	movwf	(LCD_Float@number+3)^(0+128)
  3279     0CBC                     l3757:
  3280                           
  3281                           ;lcd_msd.c: 215:     Bruch = value - number;
  3282     0CBC  0839               	movf	(LCD_Float@number+3)^(0+128),w
  3283     0CBD  00F6               	movwf	___xxtofl@val+3
  3284     0CBE  0838               	movf	(LCD_Float@number+2)^(0+128),w
  3285     0CBF  00F5               	movwf	___xxtofl@val+2
  3286     0CC0  0837               	movf	(LCD_Float@number+1)^(0+128),w
  3287     0CC1  00F4               	movwf	___xxtofl@val+1
  3288     0CC2  0836               	movf	LCD_Float@number^(0+128),w
  3289     0CC3  00F3               	movwf	___xxtofl@val
  3290     0CC4  3000               	movlw	0
  3291     0CC5  120A  158A  23A3  120A  158A  	fcall	___xxtofl
  3292     0CCA  0876               	movf	?___xxtofl+3,w
  3293     0CCB  1283               	bcf	3,5	;RP0=0, select bank0
  3294     0CCC  1303               	bcf	3,6	;RP1=0, select bank0
  3295     0CCD  00DB               	movwf	___flsub@a+3
  3296     0CCE  0875               	movf	?___xxtofl+2,w
  3297     0CCF  00DA               	movwf	___flsub@a+2
  3298     0CD0  0874               	movf	?___xxtofl+1,w
  3299     0CD1  00D9               	movwf	___flsub@a+1
  3300     0CD2  0873               	movf	?___xxtofl,w
  3301     0CD3  00D8               	movwf	___flsub@a
  3302     0CD4  0863               	movf	LCD_Float@value+3,w
  3303     0CD5  00DF               	movwf	___flsub@b+3
  3304     0CD6  0862               	movf	LCD_Float@value+2,w
  3305     0CD7  00DE               	movwf	___flsub@b+2
  3306     0CD8  0861               	movf	LCD_Float@value+1,w
  3307     0CD9  00DD               	movwf	___flsub@b+1
  3308     0CDA  0860               	movf	LCD_Float@value,w
  3309     0CDB  00DC               	movwf	___flsub@b
  3310     0CDC  120A  158A  2000  120A  158A  	fcall	___flsub
  3311     0CE1  1283               	bcf	3,5	;RP0=0, select bank0
  3312     0CE2  1303               	bcf	3,6	;RP1=0, select bank0
  3313     0CE3  085B               	movf	?___flsub+3,w
  3314     0CE4  1683               	bsf	3,5	;RP0=1, select bank1
  3315     0CE5  1303               	bcf	3,6	;RP1=0, select bank1
  3316     0CE6  00BD               	movwf	(LCD_Float@Bruch+3)^(0+128)
  3317     0CE7  1283               	bcf	3,5	;RP0=0, select bank0
  3318     0CE8  1303               	bcf	3,6	;RP1=0, select bank0
  3319     0CE9  085A               	movf	?___flsub+2,w
  3320     0CEA  1683               	bsf	3,5	;RP0=1, select bank1
  3321     0CEB  1303               	bcf	3,6	;RP1=0, select bank1
  3322     0CEC  00BC               	movwf	(LCD_Float@Bruch+2)^(0+128)
  3323     0CED  1283               	bcf	3,5	;RP0=0, select bank0
  3324     0CEE  1303               	bcf	3,6	;RP1=0, select bank0
  3325     0CEF  0859               	movf	?___flsub+1,w
  3326     0CF0  1683               	bsf	3,5	;RP0=1, select bank1
  3327     0CF1  1303               	bcf	3,6	;RP1=0, select bank1
  3328     0CF2  00BB               	movwf	(LCD_Float@Bruch+1)^(0+128)
  3329     0CF3  1283               	bcf	3,5	;RP0=0, select bank0
  3330     0CF4  1303               	bcf	3,6	;RP1=0, select bank0
  3331     0CF5  0858               	movf	?___flsub,w
  3332     0CF6  1683               	bsf	3,5	;RP0=1, select bank1
  3333     0CF7  1303               	bcf	3,6	;RP1=0, select bank1
  3334     0CF8  00BA               	movwf	LCD_Float@Bruch^(0+128)
  3335     0CF9                     l3759:
  3336                           
  3337                           ;lcd_msd.c: 217:     LCD_Int(number, positions - decimal_pos, 1);
  3338     0CF9  0839               	movf	(LCD_Float@number+3)^(0+128),w
  3339     0CFA  1283               	bcf	3,5	;RP0=0, select bank0
  3340     0CFB  1303               	bcf	3,6	;RP1=0, select bank0
  3341     0CFC  00C5               	movwf	LCD_Int@value+3
  3342     0CFD  1683               	bsf	3,5	;RP0=1, select bank1
  3343     0CFE  1303               	bcf	3,6	;RP1=0, select bank1
  3344     0CFF  0838               	movf	(LCD_Float@number+2)^(0+128),w
  3345     0D00  1283               	bcf	3,5	;RP0=0, select bank0
  3346     0D01  1303               	bcf	3,6	;RP1=0, select bank0
  3347     0D02  00C4               	movwf	LCD_Int@value+2
  3348     0D03  1683               	bsf	3,5	;RP0=1, select bank1
  3349     0D04  1303               	bcf	3,6	;RP1=0, select bank1
  3350     0D05  0837               	movf	(LCD_Float@number+1)^(0+128),w
  3351     0D06  1283               	bcf	3,5	;RP0=0, select bank0
  3352     0D07  1303               	bcf	3,6	;RP1=0, select bank0
  3353     0D08  00C3               	movwf	LCD_Int@value+1
  3354     0D09  1683               	bsf	3,5	;RP0=1, select bank1
  3355     0D0A  1303               	bcf	3,6	;RP1=0, select bank1
  3356     0D0B  0836               	movf	LCD_Float@number^(0+128),w
  3357     0D0C  1283               	bcf	3,5	;RP0=0, select bank0
  3358     0D0D  1303               	bcf	3,6	;RP1=0, select bank0
  3359     0D0E  00C2               	movwf	LCD_Int@value
  3360     0D0F  0865               	movf	LCD_Float@decimal_pos,w
  3361     0D10  0264               	subwf	LCD_Float@positions,w
  3362     0D11  00C6               	movwf	LCD_Int@positions
  3363     0D12  01C7               	clrf	LCD_Int@zeros
  3364     0D13  0AC7               	incf	LCD_Int@zeros,f
  3365     0D14  120A  158A  22F2  120A  158A  	fcall	_LCD_Int
  3366     0D19                     l3761:
  3367                           
  3368                           ;lcd_msd.c: 218:     LCD_Write('.', 1);
  3369     0D19  01F7               	clrf	LCD_Write@RS
  3370     0D1A  0AF7               	incf	LCD_Write@RS,f
  3371     0D1B  302E               	movlw	46
  3372     0D1C  120A  158A  20E2  120A  158A  	fcall	_LCD_Write
  3373     0D21                     l3763:
  3374                           
  3375                           ;lcd_msd.c: 220:     for (i = 1; i <= decimal_pos; i++)
  3376     0D21  1683               	bsf	3,5	;RP0=1, select bank1
  3377     0D22  1303               	bcf	3,6	;RP1=0, select bank1
  3378     0D23  01B5               	clrf	LCD_Float@i^(0+128)
  3379     0D24  0AB5               	incf	LCD_Float@i^(0+128),f
  3380     0D25  2D67               	goto	l3769
  3381     0D26                     l3765:
  3382                           
  3383                           ;lcd_msd.c: 221:         Bruch = Bruch * 10;
  3384     0D26  3041               	movlw	65
  3385     0D27  00A8               	movwf	___flmul@b+3
  3386     0D28  3020               	movlw	32
  3387     0D29  00A7               	movwf	___flmul@b+2
  3388     0D2A  3000               	movlw	0
  3389     0D2B  00A6               	movwf	___flmul@b+1
  3390     0D2C  3000               	movlw	0
  3391     0D2D  00A5               	movwf	___flmul@b
  3392     0D2E  1683               	bsf	3,5	;RP0=1, select bank1
  3393     0D2F  1303               	bcf	3,6	;RP1=0, select bank1
  3394     0D30  083D               	movf	(LCD_Float@Bruch+3)^(0+128),w
  3395     0D31  1283               	bcf	3,5	;RP0=0, select bank0
  3396     0D32  1303               	bcf	3,6	;RP1=0, select bank0
  3397     0D33  00AC               	movwf	___flmul@a+3
  3398     0D34  1683               	bsf	3,5	;RP0=1, select bank1
  3399     0D35  1303               	bcf	3,6	;RP1=0, select bank1
  3400     0D36  083C               	movf	(LCD_Float@Bruch+2)^(0+128),w
  3401     0D37  1283               	bcf	3,5	;RP0=0, select bank0
  3402     0D38  1303               	bcf	3,6	;RP1=0, select bank0
  3403     0D39  00AB               	movwf	___flmul@a+2
  3404     0D3A  1683               	bsf	3,5	;RP0=1, select bank1
  3405     0D3B  1303               	bcf	3,6	;RP1=0, select bank1
  3406     0D3C  083B               	movf	(LCD_Float@Bruch+1)^(0+128),w
  3407     0D3D  1283               	bcf	3,5	;RP0=0, select bank0
  3408     0D3E  1303               	bcf	3,6	;RP1=0, select bank0
  3409     0D3F  00AA               	movwf	___flmul@a+1
  3410     0D40  1683               	bsf	3,5	;RP0=1, select bank1
  3411     0D41  1303               	bcf	3,6	;RP1=0, select bank1
  3412     0D42  083A               	movf	LCD_Float@Bruch^(0+128),w
  3413     0D43  1283               	bcf	3,5	;RP0=0, select bank0
  3414     0D44  1303               	bcf	3,6	;RP1=0, select bank0
  3415     0D45  00A9               	movwf	___flmul@a
  3416     0D46  120A  118A  249B  120A  158A  	fcall	___flmul
  3417     0D4B  1283               	bcf	3,5	;RP0=0, select bank0
  3418     0D4C  1303               	bcf	3,6	;RP1=0, select bank0
  3419     0D4D  0828               	movf	?___flmul+3,w
  3420     0D4E  1683               	bsf	3,5	;RP0=1, select bank1
  3421     0D4F  1303               	bcf	3,6	;RP1=0, select bank1
  3422     0D50  00BD               	movwf	(LCD_Float@Bruch+3)^(0+128)
  3423     0D51  1283               	bcf	3,5	;RP0=0, select bank0
  3424     0D52  1303               	bcf	3,6	;RP1=0, select bank0
  3425     0D53  0827               	movf	?___flmul+2,w
  3426     0D54  1683               	bsf	3,5	;RP0=1, select bank1
  3427     0D55  1303               	bcf	3,6	;RP1=0, select bank1
  3428     0D56  00BC               	movwf	(LCD_Float@Bruch+2)^(0+128)
  3429     0D57  1283               	bcf	3,5	;RP0=0, select bank0
  3430     0D58  1303               	bcf	3,6	;RP1=0, select bank0
  3431     0D59  0826               	movf	?___flmul+1,w
  3432     0D5A  1683               	bsf	3,5	;RP0=1, select bank1
  3433     0D5B  1303               	bcf	3,6	;RP1=0, select bank1
  3434     0D5C  00BB               	movwf	(LCD_Float@Bruch+1)^(0+128)
  3435     0D5D  1283               	bcf	3,5	;RP0=0, select bank0
  3436     0D5E  1303               	bcf	3,6	;RP1=0, select bank0
  3437     0D5F  0825               	movf	?___flmul,w
  3438     0D60  1683               	bsf	3,5	;RP0=1, select bank1
  3439     0D61  1303               	bcf	3,6	;RP1=0, select bank1
  3440     0D62  00BA               	movwf	LCD_Float@Bruch^(0+128)
  3441     0D63                     l3767:
  3442     0D63  3001               	movlw	1
  3443     0D64  00FF               	movwf	btemp+1
  3444     0D65  087F               	movf	btemp+1,w
  3445     0D66  07B5               	addwf	LCD_Float@i^(0+128),f
  3446     0D67                     l3769:
  3447     0D67  0835               	movf	LCD_Float@i^(0+128),w
  3448     0D68  1283               	bcf	3,5	;RP0=0, select bank0
  3449     0D69  1303               	bcf	3,6	;RP1=0, select bank0
  3450     0D6A  0265               	subwf	LCD_Float@decimal_pos,w
  3451     0D6B  1803               	skipnc
  3452     0D6C  2D6E               	goto	u5791
  3453     0D6D  2D6F               	goto	u5790
  3454     0D6E                     u5791:
  3455     0D6E  2D26               	goto	l3765
  3456     0D6F                     u5790:
  3457     0D6F                     l3771:
  3458                           
  3459                           ;lcd_msd.c: 222:     LCD_Int((int) Bruch, decimal_pos, 0);
  3460     0D6F  1683               	bsf	3,5	;RP0=1, select bank1
  3461     0D70  1303               	bcf	3,6	;RP1=0, select bank1
  3462     0D71  083D               	movf	(LCD_Float@Bruch+3)^(0+128),w
  3463     0D72  00F6               	movwf	___fltol@f1+3
  3464     0D73  083C               	movf	(LCD_Float@Bruch+2)^(0+128),w
  3465     0D74  00F5               	movwf	___fltol@f1+2
  3466     0D75  083B               	movf	(LCD_Float@Bruch+1)^(0+128),w
  3467     0D76  00F4               	movwf	___fltol@f1+1
  3468     0D77  083A               	movf	LCD_Float@Bruch^(0+128),w
  3469     0D78  00F3               	movwf	___fltol@f1
  3470     0D79  120A  158A  214F  120A  158A  	fcall	___fltol
  3471     0D7E  0873               	movf	?___fltol,w
  3472     0D7F  1283               	bcf	3,5	;RP0=0, select bank0
  3473     0D80  1303               	bcf	3,6	;RP1=0, select bank0
  3474     0D81  00C2               	movwf	LCD_Int@value
  3475     0D82  0874               	movf	?___fltol+1,w
  3476     0D83  00C3               	movwf	LCD_Int@value+1
  3477     0D84  3000               	movlw	0
  3478     0D85  1BC3               	btfsc	LCD_Int@value+1,7
  3479     0D86  30FF               	movlw	255
  3480     0D87  00C4               	movwf	LCD_Int@value+2
  3481     0D88  00C5               	movwf	LCD_Int@value+3
  3482     0D89  0865               	movf	LCD_Float@decimal_pos,w
  3483     0D8A  00C6               	movwf	LCD_Int@positions
  3484     0D8B  01C7               	clrf	LCD_Int@zeros
  3485     0D8C  120A  158A  22F2  120A  158A  	fcall	_LCD_Int
  3486     0D91                     l177:
  3487     0D91  0008               	return
  3488     0D92                     __end_of_LCD_Float:
  3489                           
  3490                           	psect	text10
  3491     0BA3                     __ptext10:	
  3492 ;; *************** function ___xxtofl *****************
  3493 ;; Defined at:
  3494 ;;		line 10 in file "C:\Program Files\Microchip\xc8\v2.46\pic\sources\c99\common\xxtofl.c"
  3495 ;; Parameters:    Size  Location     Type
  3496 ;;  sign            1    wreg     unsigned char 
  3497 ;;  val             4    2[COMMON] long 
  3498 ;; Auto vars:     Size  Location     Type
  3499 ;;  sign            1    4[BANK0 ] unsigned char 
  3500 ;;  arg             4    6[BANK0 ] unsigned long 
  3501 ;;  exp             1    5[BANK0 ] unsigned char 
  3502 ;; Return value:  Size  Location     Type
  3503 ;;                  4    2[COMMON] unsigned char 
  3504 ;; Registers used:
  3505 ;;		wreg, status,2, status,0, btemp+1
  3506 ;; Tracked objects:
  3507 ;;		On entry : 0/0
  3508 ;;		On exit  : 0/0
  3509 ;;		Unchanged: 0/0
  3510 ;; Data sizes:     COMMON   BANK0   BANK1   BANK3   BANK2
  3511 ;;      Params:         4       0       0       0       0
  3512 ;;      Locals:         0       6       0       0       0
  3513 ;;      Temps:          0       4       0       0       0
  3514 ;;      Totals:         4      10       0       0       0
  3515 ;;Total ram usage:       14 bytes
  3516 ;; Hardware stack levels used: 1
  3517 ;; Hardware stack levels required when called: 1
  3518 ;; This function calls:
  3519 ;;		Nothing
  3520 ;; This function is called by:
  3521 ;;		_LCD_Float
  3522 ;;		_dht11_read
  3523 ;; This function uses a non-reentrant model
  3524 ;;
  3525                           
  3526     0BA3                     ___xxtofl:	
  3527                           ;psect for function ___xxtofl
  3528                           
  3529                           
  3530                           ;incstack = 0
  3531                           ; Regs used in ___xxtofl: [wreg+status,2+status,0+btemp+1]
  3532                           ;___xxtofl@sign stored from wreg
  3533     0BA3  1283               	bcf	3,5	;RP0=0, select bank0
  3534     0BA4  1303               	bcf	3,6	;RP1=0, select bank0
  3535     0BA5  00A4               	movwf	___xxtofl@sign
  3536     0BA6                     l3599:
  3537     0BA6  0824               	movf	___xxtofl@sign,w
  3538     0BA7  1903               	btfsc	3,2
  3539     0BA8  2BAA               	goto	u5561
  3540     0BA9  2BAB               	goto	u5560
  3541     0BAA                     u5561:
  3542     0BAA  2BBF               	goto	l3605
  3543     0BAB                     u5560:
  3544     0BAB                     l3601:
  3545     0BAB  1FF6               	btfss	___xxtofl@val+3,7
  3546     0BAC  2BAE               	goto	u5571
  3547     0BAD  2BAF               	goto	u5570
  3548     0BAE                     u5571:
  3549     0BAE  2BBF               	goto	l3605
  3550     0BAF                     u5570:
  3551     0BAF                     l3603:
  3552     0BAF  0973               	comf	___xxtofl@val,w
  3553     0BB0  00A6               	movwf	___xxtofl@arg
  3554     0BB1  0974               	comf	___xxtofl@val+1,w
  3555     0BB2  00A7               	movwf	___xxtofl@arg+1
  3556     0BB3  0975               	comf	___xxtofl@val+2,w
  3557     0BB4  00A8               	movwf	___xxtofl@arg+2
  3558     0BB5  0976               	comf	___xxtofl@val+3,w
  3559     0BB6  00A9               	movwf	___xxtofl@arg+3
  3560     0BB7  0AA6               	incf	___xxtofl@arg,f
  3561     0BB8  1903               	skipnz
  3562     0BB9  0AA7               	incf	___xxtofl@arg+1,f
  3563     0BBA  1903               	skipnz
  3564     0BBB  0AA8               	incf	___xxtofl@arg+2,f
  3565     0BBC  1903               	skipnz
  3566     0BBD  0AA9               	incf	___xxtofl@arg+3,f
  3567     0BBE  2BC7               	goto	l752
  3568     0BBF                     l3605:
  3569     0BBF  0876               	movf	___xxtofl@val+3,w
  3570     0BC0  00A9               	movwf	___xxtofl@arg+3
  3571     0BC1  0875               	movf	___xxtofl@val+2,w
  3572     0BC2  00A8               	movwf	___xxtofl@arg+2
  3573     0BC3  0874               	movf	___xxtofl@val+1,w
  3574     0BC4  00A7               	movwf	___xxtofl@arg+1
  3575     0BC5  0873               	movf	___xxtofl@val,w
  3576     0BC6  00A6               	movwf	___xxtofl@arg
  3577     0BC7                     l752:
  3578     0BC7  0876               	movf	___xxtofl@val+3,w
  3579     0BC8  0475               	iorwf	___xxtofl@val+2,w
  3580     0BC9  0474               	iorwf	___xxtofl@val+1,w
  3581     0BCA  0473               	iorwf	___xxtofl@val,w
  3582     0BCB  1D03               	skipz
  3583     0BCC  2BCE               	goto	u5581
  3584     0BCD  2BCF               	goto	u5580
  3585     0BCE                     u5581:
  3586     0BCE  2BD8               	goto	l3611
  3587     0BCF                     u5580:
  3588     0BCF                     l3607:
  3589     0BCF  3000               	movlw	0
  3590     0BD0  00F6               	movwf	?___xxtofl+3
  3591     0BD1  3000               	movlw	0
  3592     0BD2  00F5               	movwf	?___xxtofl+2
  3593     0BD3  3000               	movlw	0
  3594     0BD4  00F4               	movwf	?___xxtofl+1
  3595     0BD5  3000               	movlw	0
  3596     0BD6  00F3               	movwf	?___xxtofl
  3597     0BD7  2C5C               	goto	l754
  3598     0BD8                     l3611:
  3599     0BD8  3096               	movlw	150
  3600     0BD9  00A5               	movwf	___xxtofl@exp
  3601     0BDA  2BE8               	goto	l3617
  3602     0BDB                     l3613:
  3603     0BDB  3001               	movlw	1
  3604     0BDC  00FF               	movwf	btemp+1
  3605     0BDD  087F               	movf	btemp+1,w
  3606     0BDE  07A5               	addwf	___xxtofl@exp,f
  3607     0BDF                     l3615:
  3608     0BDF  3001               	movlw	1
  3609     0BE0                     u5595:
  3610     0BE0  1003               	clrc
  3611     0BE1  0CA9               	rrf	___xxtofl@arg+3,f
  3612     0BE2  0CA8               	rrf	___xxtofl@arg+2,f
  3613     0BE3  0CA7               	rrf	___xxtofl@arg+1,f
  3614     0BE4  0CA6               	rrf	___xxtofl@arg,f
  3615     0BE5  3EFF               	addlw	-1
  3616     0BE6  1D03               	skipz
  3617     0BE7  2BE0               	goto	u5595
  3618     0BE8                     l3617:
  3619     0BE8  30FE               	movlw	254
  3620     0BE9  0529               	andwf	___xxtofl@arg+3,w
  3621     0BEA  1D03               	btfss	3,2
  3622     0BEB  2BED               	goto	u5601
  3623     0BEC  2BEE               	goto	u5600
  3624     0BED                     u5601:
  3625     0BED  2BDB               	goto	l3613
  3626     0BEE                     u5600:
  3627     0BEE  2C0A               	goto	l3625
  3628     0BEF                     l3619:
  3629     0BEF  3001               	movlw	1
  3630     0BF0  00FF               	movwf	btemp+1
  3631     0BF1  087F               	movf	btemp+1,w
  3632     0BF2  07A5               	addwf	___xxtofl@exp,f
  3633     0BF3                     l3621:
  3634     0BF3  3001               	movlw	1
  3635     0BF4  07A6               	addwf	___xxtofl@arg,f
  3636     0BF5  3000               	movlw	0
  3637     0BF6  1803               	skipnc
  3638     0BF7  3001               	movlw	1
  3639     0BF8  07A7               	addwf	___xxtofl@arg+1,f
  3640     0BF9  3000               	movlw	0
  3641     0BFA  1803               	skipnc
  3642     0BFB  3001               	movlw	1
  3643     0BFC  07A8               	addwf	___xxtofl@arg+2,f
  3644     0BFD  3000               	movlw	0
  3645     0BFE  1803               	skipnc
  3646     0BFF  3001               	movlw	1
  3647     0C00  07A9               	addwf	___xxtofl@arg+3,f
  3648     0C01                     l3623:
  3649     0C01  3001               	movlw	1
  3650     0C02                     u5615:
  3651     0C02  1003               	clrc
  3652     0C03  0CA9               	rrf	___xxtofl@arg+3,f
  3653     0C04  0CA8               	rrf	___xxtofl@arg+2,f
  3654     0C05  0CA7               	rrf	___xxtofl@arg+1,f
  3655     0C06  0CA6               	rrf	___xxtofl@arg,f
  3656     0C07  3EFF               	addlw	-1
  3657     0C08  1D03               	skipz
  3658     0C09  2C02               	goto	u5615
  3659     0C0A                     l3625:
  3660     0C0A  30FF               	movlw	255
  3661     0C0B  0529               	andwf	___xxtofl@arg+3,w
  3662     0C0C  1D03               	btfss	3,2
  3663     0C0D  2C0F               	goto	u5621
  3664     0C0E  2C10               	goto	u5620
  3665     0C0F                     u5621:
  3666     0C0F  2BEF               	goto	l3619
  3667     0C10                     u5620:
  3668     0C10  2C1C               	goto	l3629
  3669     0C11                     l3627:
  3670     0C11  3001               	movlw	1
  3671     0C12  02A5               	subwf	___xxtofl@exp,f
  3672     0C13  3001               	movlw	1
  3673     0C14  00A0               	movwf	??___xxtofl
  3674     0C15                     u5635:
  3675     0C15  1003               	clrc
  3676     0C16  0DA6               	rlf	___xxtofl@arg,f
  3677     0C17  0DA7               	rlf	___xxtofl@arg+1,f
  3678     0C18  0DA8               	rlf	___xxtofl@arg+2,f
  3679     0C19  0DA9               	rlf	___xxtofl@arg+3,f
  3680     0C1A  0BA0               	decfsz	??___xxtofl,f
  3681     0C1B  2C15               	goto	u5635
  3682     0C1C                     l3629:
  3683     0C1C  1BA8               	btfsc	___xxtofl@arg+2,7
  3684     0C1D  2C1F               	goto	u5641
  3685     0C1E  2C20               	goto	u5640
  3686     0C1F                     u5641:
  3687     0C1F  2C26               	goto	l765
  3688     0C20                     u5640:
  3689     0C20                     l3631:
  3690     0C20  3002               	movlw	2
  3691     0C21  0225               	subwf	___xxtofl@exp,w
  3692     0C22  1803               	skipnc
  3693     0C23  2C25               	goto	u5651
  3694     0C24  2C26               	goto	u5650
  3695     0C25                     u5651:
  3696     0C25  2C11               	goto	l3627
  3697     0C26                     u5650:
  3698     0C26                     l765:
  3699     0C26  1825               	btfsc	___xxtofl@exp,0
  3700     0C27  2C29               	goto	u5661
  3701     0C28  2C2A               	goto	u5660
  3702     0C29                     u5661:
  3703     0C29  2C32               	goto	l766
  3704     0C2A                     u5660:
  3705     0C2A                     l3633:
  3706     0C2A  30FF               	movlw	255
  3707     0C2B  05A6               	andwf	___xxtofl@arg,f
  3708     0C2C  30FF               	movlw	255
  3709     0C2D  05A7               	andwf	___xxtofl@arg+1,f
  3710     0C2E  307F               	movlw	127
  3711     0C2F  05A8               	andwf	___xxtofl@arg+2,f
  3712     0C30  30FF               	movlw	255
  3713     0C31  05A9               	andwf	___xxtofl@arg+3,f
  3714     0C32                     l766:
  3715     0C32  1003               	clrc
  3716     0C33  0CA5               	rrf	___xxtofl@exp,f
  3717     0C34                     l3635:
  3718     0C34  0825               	movf	___xxtofl@exp,w
  3719     0C35  00A0               	movwf	??___xxtofl
  3720     0C36  01A1               	clrf	??___xxtofl+1
  3721     0C37  01A2               	clrf	??___xxtofl+2
  3722     0C38  01A3               	clrf	??___xxtofl+3
  3723     0C39  3018               	movlw	24
  3724     0C3A                     u5675:
  3725     0C3A  1003               	clrc
  3726     0C3B  0DA0               	rlf	??___xxtofl,f
  3727     0C3C  0DA1               	rlf	??___xxtofl+1,f
  3728     0C3D  0DA2               	rlf	??___xxtofl+2,f
  3729     0C3E  0DA3               	rlf	??___xxtofl+3,f
  3730     0C3F                     u5670:
  3731     0C3F  3EFF               	addlw	-1
  3732     0C40  1D03               	skipz
  3733     0C41  2C3A               	goto	u5675
  3734     0C42  0820               	movf	??___xxtofl,w
  3735     0C43  04A6               	iorwf	___xxtofl@arg,f
  3736     0C44  0821               	movf	??___xxtofl+1,w
  3737     0C45  04A7               	iorwf	___xxtofl@arg+1,f
  3738     0C46  0822               	movf	??___xxtofl+2,w
  3739     0C47  04A8               	iorwf	___xxtofl@arg+2,f
  3740     0C48  0823               	movf	??___xxtofl+3,w
  3741     0C49  04A9               	iorwf	___xxtofl@arg+3,f
  3742     0C4A                     l3637:
  3743     0C4A  0824               	movf	___xxtofl@sign,w
  3744     0C4B  1903               	btfsc	3,2
  3745     0C4C  2C4E               	goto	u5681
  3746     0C4D  2C4F               	goto	u5680
  3747     0C4E                     u5681:
  3748     0C4E  2C54               	goto	l3643
  3749     0C4F                     u5680:
  3750     0C4F                     l3639:
  3751     0C4F  1FF6               	btfss	___xxtofl@val+3,7
  3752     0C50  2C52               	goto	u5691
  3753     0C51  2C53               	goto	u5690
  3754     0C52                     u5691:
  3755     0C52  2C54               	goto	l3643
  3756     0C53                     u5690:
  3757     0C53                     l3641:
  3758     0C53  17A9               	bsf	___xxtofl@arg+3,7
  3759     0C54                     l3643:
  3760     0C54  0829               	movf	___xxtofl@arg+3,w
  3761     0C55  00F6               	movwf	?___xxtofl+3
  3762     0C56  0828               	movf	___xxtofl@arg+2,w
  3763     0C57  00F5               	movwf	?___xxtofl+2
  3764     0C58  0827               	movf	___xxtofl@arg+1,w
  3765     0C59  00F4               	movwf	?___xxtofl+1
  3766     0C5A  0826               	movf	___xxtofl@arg,w
  3767     0C5B  00F3               	movwf	?___xxtofl
  3768     0C5C                     l754:
  3769     0C5C  0008               	return
  3770     0C5D                     __end_of___xxtofl:
  3771                           
  3772                           	psect	text11
  3773     094F                     __ptext11:	
  3774 ;; *************** function ___fltol *****************
  3775 ;; Defined at:
  3776 ;;		line 43 in file "C:\Program Files\Microchip\xc8\v2.46\pic\sources\c99\common\fltol.c"
  3777 ;; Parameters:    Size  Location     Type
  3778 ;;  f1              4    2[COMMON] unsigned char 
  3779 ;; Auto vars:     Size  Location     Type
  3780 ;;  exp1            1    7[COMMON] unsigned char 
  3781 ;;  sign1           1    6[COMMON] unsigned char 
  3782 ;; Return value:  Size  Location     Type
  3783 ;;                  4    2[COMMON] long 
  3784 ;; Registers used:
  3785 ;;		wreg, status,2, status,0, btemp+1
  3786 ;; Tracked objects:
  3787 ;;		On entry : 0/0
  3788 ;;		On exit  : 0/0
  3789 ;;		Unchanged: 0/0
  3790 ;; Data sizes:     COMMON   BANK0   BANK1   BANK3   BANK2
  3791 ;;      Params:         4       0       0       0       0
  3792 ;;      Locals:         2       0       0       0       0
  3793 ;;      Temps:          0       4       0       0       0
  3794 ;;      Totals:         6       4       0       0       0
  3795 ;;Total ram usage:       10 bytes
  3796 ;; Hardware stack levels used: 1
  3797 ;; Hardware stack levels required when called: 1
  3798 ;; This function calls:
  3799 ;;		Nothing
  3800 ;; This function is called by:
  3801 ;;		_LCD_Float
  3802 ;; This function uses a non-reentrant model
  3803 ;;
  3804                           
  3805     094F                     ___fltol:	
  3806                           ;psect for function ___fltol
  3807                           
  3808     094F                     l3267:	
  3809                           ;incstack = 0
  3810                           ; Regs used in ___fltol: [wreg+status,2+status,0+btemp+1]
  3811                           
  3812     094F  1003               	clrc
  3813     0950  0D75               	rlf	___fltol@f1+2,w
  3814     0951  0D76               	rlf	___fltol@f1+3,w
  3815     0952  00F8               	movwf	___fltol@exp1
  3816     0953  0878               	movf	___fltol@exp1,w
  3817     0954  1D03               	btfss	3,2
  3818     0955  2957               	goto	u4801
  3819     0956  2958               	goto	u4800
  3820     0957                     u4801:
  3821     0957  2961               	goto	l3273
  3822     0958                     u4800:
  3823     0958                     l3269:
  3824     0958  3000               	movlw	0
  3825     0959  00F6               	movwf	?___fltol+3
  3826     095A  3000               	movlw	0
  3827     095B  00F5               	movwf	?___fltol+2
  3828     095C  3000               	movlw	0
  3829     095D  00F4               	movwf	?___fltol+1
  3830     095E  3000               	movlw	0
  3831     095F  00F3               	movwf	?___fltol
  3832     0960  29C6               	goto	l505
  3833     0961                     l3273:
  3834     0961  0873               	movf	___fltol@f1,w
  3835     0962  1283               	bcf	3,5	;RP0=0, select bank0
  3836     0963  1303               	bcf	3,6	;RP1=0, select bank0
  3837     0964  00A0               	movwf	??___fltol
  3838     0965  0874               	movf	___fltol@f1+1,w
  3839     0966  00A1               	movwf	??___fltol+1
  3840     0967  0875               	movf	___fltol@f1+2,w
  3841     0968  00A2               	movwf	??___fltol+2
  3842     0969  0876               	movf	___fltol@f1+3,w
  3843     096A  00A3               	movwf	??___fltol+3
  3844     096B  301F               	movlw	31
  3845     096C                     u4815:
  3846     096C  1003               	clrc
  3847     096D  0CA3               	rrf	??___fltol+3,f
  3848     096E  0CA2               	rrf	??___fltol+2,f
  3849     096F  0CA1               	rrf	??___fltol+1,f
  3850     0970  0CA0               	rrf	??___fltol,f
  3851     0971                     u4810:
  3852     0971  3EFF               	addlw	-1
  3853     0972  1D03               	skipz
  3854     0973  296C               	goto	u4815
  3855     0974  0820               	movf	??___fltol,w
  3856     0975  00F7               	movwf	___fltol@sign1
  3857     0976                     l3275:
  3858     0976  17F5               	bsf	___fltol@f1+2,7
  3859     0977                     l3277:
  3860     0977  30FF               	movlw	255
  3861     0978  05F3               	andwf	___fltol@f1,f
  3862     0979  30FF               	movlw	255
  3863     097A  05F4               	andwf	___fltol@f1+1,f
  3864     097B  30FF               	movlw	255
  3865     097C  05F5               	andwf	___fltol@f1+2,f
  3866     097D  3000               	movlw	0
  3867     097E  05F6               	andwf	___fltol@f1+3,f
  3868     097F                     l3279:
  3869     097F  3096               	movlw	150
  3870     0980  02F8               	subwf	___fltol@exp1,f
  3871     0981                     l3281:
  3872     0981  1FF8               	btfss	___fltol@exp1,7
  3873     0982  2984               	goto	u4821
  3874     0983  2985               	goto	u4820
  3875     0984                     u4821:
  3876     0984  299F               	goto	l3293
  3877     0985                     u4820:
  3878     0985                     l3283:
  3879     0985  0878               	movf	___fltol@exp1,w
  3880     0986  3A80               	xorlw	128
  3881     0987  3E97               	addlw	151
  3882     0988  1803               	skipnc
  3883     0989  298B               	goto	u4831
  3884     098A  298C               	goto	u4830
  3885     098B                     u4831:
  3886     098B  298D               	goto	l3289
  3887     098C                     u4830:
  3888     098C  2958               	goto	l3269
  3889     098D                     l3289:
  3890     098D  3001               	movlw	1
  3891     098E                     u4845:
  3892     098E  1003               	clrc
  3893     098F  0CF6               	rrf	___fltol@f1+3,f
  3894     0990  0CF5               	rrf	___fltol@f1+2,f
  3895     0991  0CF4               	rrf	___fltol@f1+1,f
  3896     0992  0CF3               	rrf	___fltol@f1,f
  3897     0993  3EFF               	addlw	-1
  3898     0994  1D03               	skipz
  3899     0995  298E               	goto	u4845
  3900     0996                     l3291:
  3901     0996  3001               	movlw	1
  3902     0997  00FF               	movwf	btemp+1
  3903     0998  087F               	movf	btemp+1,w
  3904     0999  07F8               	addwf	___fltol@exp1,f
  3905     099A  1D03               	btfss	3,2
  3906     099B  299D               	goto	u4851
  3907     099C  299E               	goto	u4850
  3908     099D                     u4851:
  3909     099D  298D               	goto	l3289
  3910     099E                     u4850:
  3911     099E  29B6               	goto	l3301
  3912     099F                     l3293:
  3913     099F  3020               	movlw	32
  3914     09A0  0278               	subwf	___fltol@exp1,w
  3915     09A1  1C03               	skipc
  3916     09A2  29A4               	goto	u4861
  3917     09A3  29A5               	goto	u4860
  3918     09A4                     u4861:
  3919     09A4  29B1               	goto	l512
  3920     09A5                     u4860:
  3921     09A5  2958               	goto	l3269
  3922     09A6                     l3299:
  3923     09A6  3001               	movlw	1
  3924     09A7  00A0               	movwf	??___fltol
  3925     09A8                     u4875:
  3926     09A8  1003               	clrc
  3927     09A9  0DF3               	rlf	___fltol@f1,f
  3928     09AA  0DF4               	rlf	___fltol@f1+1,f
  3929     09AB  0DF5               	rlf	___fltol@f1+2,f
  3930     09AC  0DF6               	rlf	___fltol@f1+3,f
  3931     09AD  0BA0               	decfsz	??___fltol,f
  3932     09AE  29A8               	goto	u4875
  3933     09AF  3001               	movlw	1
  3934     09B0  02F8               	subwf	___fltol@exp1,f
  3935     09B1                     l512:
  3936     09B1  0878               	movf	___fltol@exp1,w
  3937     09B2  1D03               	btfss	3,2
  3938     09B3  29B5               	goto	u4881
  3939     09B4  29B6               	goto	u4880
  3940     09B5                     u4881:
  3941     09B5  29A6               	goto	l3299
  3942     09B6                     u4880:
  3943     09B6                     l3301:
  3944     09B6  0877               	movf	___fltol@sign1,w
  3945     09B7  1903               	btfsc	3,2
  3946     09B8  29BA               	goto	u4891
  3947     09B9  29BB               	goto	u4890
  3948     09BA                     u4891:
  3949     09BA  29C6               	goto	l515
  3950     09BB                     u4890:
  3951     09BB                     l3303:
  3952     09BB  09F3               	comf	___fltol@f1,f
  3953     09BC  09F4               	comf	___fltol@f1+1,f
  3954     09BD  09F5               	comf	___fltol@f1+2,f
  3955     09BE  09F6               	comf	___fltol@f1+3,f
  3956     09BF  0AF3               	incf	___fltol@f1,f
  3957     09C0  1903               	skipnz
  3958     09C1  0AF4               	incf	___fltol@f1+1,f
  3959     09C2  1903               	skipnz
  3960     09C3  0AF5               	incf	___fltol@f1+2,f
  3961     09C4  1903               	skipnz
  3962     09C5  0AF6               	incf	___fltol@f1+3,f
  3963     09C6                     l515:
  3964     09C6                     l505:
  3965     09C6  0008               	return
  3966     09C7                     __end_of___fltol:
  3967                           
  3968                           	psect	text12
  3969     0800                     __ptext12:	
  3970 ;; *************** function ___flsub *****************
  3971 ;; Defined at:
  3972 ;;		line 242 in file "C:\Program Files\Microchip\xc8\v2.46\pic\sources\c99\common\sprcadd.c"
  3973 ;; Parameters:    Size  Location     Type
  3974 ;;  a               4   56[BANK0 ] long 
  3975 ;;  b               4   60[BANK0 ] long 
  3976 ;; Auto vars:     Size  Location     Type
  3977 ;;		None
  3978 ;; Return value:  Size  Location     Type
  3979 ;;                  4   56[BANK0 ] long 
  3980 ;; Registers used:
  3981 ;;		wreg, status,2, status,0, btemp+1, pclath, cstack
  3982 ;; Tracked objects:
  3983 ;;		On entry : 0/0
  3984 ;;		On exit  : 0/0
  3985 ;;		Unchanged: 0/0
  3986 ;; Data sizes:     COMMON   BANK0   BANK1   BANK3   BANK2
  3987 ;;      Params:         0       8       0       0       0
  3988 ;;      Locals:         0       0       0       0       0
  3989 ;;      Temps:          0       0       0       0       0
  3990 ;;      Totals:         0       8       0       0       0
  3991 ;;Total ram usage:        8 bytes
  3992 ;; Hardware stack levels used: 1
  3993 ;; Hardware stack levels required when called: 2
  3994 ;; This function calls:
  3995 ;;		___fladd
  3996 ;; This function is called by:
  3997 ;;		_LCD_Float
  3998 ;; This function uses a non-reentrant model
  3999 ;;
  4000                           
  4001     0800                     ___flsub:	
  4002                           ;psect for function ___flsub
  4003                           
  4004     0800                     l3305:	
  4005                           ;incstack = 0
  4006                           ; Regs used in ___flsub: [wreg+status,2+status,0+btemp+1+pclath+cstack]
  4007                           
  4008     0800  3080               	movlw	128
  4009     0801  1283               	bcf	3,5	;RP0=0, select bank0
  4010     0802  1303               	bcf	3,6	;RP1=0, select bank0
  4011     0803  06DB               	xorwf	___flsub@a+3,f
  4012     0804                     l3307:
  4013     0804  085F               	movf	___flsub@b+3,w
  4014     0805  00C7               	movwf	___fladd@b+3
  4015     0806  085E               	movf	___flsub@b+2,w
  4016     0807  00C6               	movwf	___fladd@b+2
  4017     0808  085D               	movf	___flsub@b+1,w
  4018     0809  00C5               	movwf	___fladd@b+1
  4019     080A  085C               	movf	___flsub@b,w
  4020     080B  00C4               	movwf	___fladd@b
  4021     080C  085B               	movf	___flsub@a+3,w
  4022     080D  00CB               	movwf	___fladd@a+3
  4023     080E  085A               	movf	___flsub@a+2,w
  4024     080F  00CA               	movwf	___fladd@a+2
  4025     0810  0859               	movf	___flsub@a+1,w
  4026     0811  00C9               	movwf	___fladd@a+1
  4027     0812  0858               	movf	___flsub@a,w
  4028     0813  00C8               	movwf	___fladd@a
  4029     0814  120A  118A  2243  120A  158A  	fcall	___fladd
  4030     0819  1283               	bcf	3,5	;RP0=0, select bank0
  4031     081A  1303               	bcf	3,6	;RP1=0, select bank0
  4032     081B  0847               	movf	?___fladd+3,w
  4033     081C  00DB               	movwf	?___flsub+3
  4034     081D  0846               	movf	?___fladd+2,w
  4035     081E  00DA               	movwf	?___flsub+2
  4036     081F  0845               	movf	?___fladd+1,w
  4037     0820  00D9               	movwf	?___flsub+1
  4038     0821  0844               	movf	?___fladd,w
  4039     0822  00D8               	movwf	?___flsub
  4040     0823                     l658:
  4041     0823  0008               	return
  4042     0824                     __end_of___flsub:
  4043                           
  4044                           	psect	text13
  4045     0243                     __ptext13:	
  4046 ;; *************** function ___fladd *****************
  4047 ;; Defined at:
  4048 ;;		line 10 in file "C:\Program Files\Microchip\xc8\v2.46\pic\sources\c99\common\sprcadd.c"
  4049 ;; Parameters:    Size  Location     Type
  4050 ;;  b               4   36[BANK0 ] long 
  4051 ;;  a               4   40[BANK0 ] long 
  4052 ;; Auto vars:     Size  Location     Type
  4053 ;;  grs             1   55[BANK0 ] unsigned char 
  4054 ;;  bexp            1   54[BANK0 ] unsigned char 
  4055 ;;  aexp            1   53[BANK0 ] unsigned char 
  4056 ;;  signs           1   52[BANK0 ] unsigned char 
  4057 ;; Return value:  Size  Location     Type
  4058 ;;                  4   36[BANK0 ] unsigned char 
  4059 ;; Registers used:
  4060 ;;		wreg, status,2, status,0, btemp+1
  4061 ;; Tracked objects:
  4062 ;;		On entry : 0/0
  4063 ;;		On exit  : 0/0
  4064 ;;		Unchanged: 0/0
  4065 ;; Data sizes:     COMMON   BANK0   BANK1   BANK3   BANK2
  4066 ;;      Params:         0       8       0       0       0
  4067 ;;      Locals:         0       4       0       0       0
  4068 ;;      Temps:          0       8       0       0       0
  4069 ;;      Totals:         0      20       0       0       0
  4070 ;;Total ram usage:       20 bytes
  4071 ;; Hardware stack levels used: 1
  4072 ;; Hardware stack levels required when called: 1
  4073 ;; This function calls:
  4074 ;;		Nothing
  4075 ;; This function is called by:
  4076 ;;		_dht11_read
  4077 ;;		___flsub
  4078 ;; This function uses a non-reentrant model
  4079 ;;
  4080                           
  4081     0243                     ___fladd:	
  4082                           ;psect for function ___fladd
  4083                           
  4084     0243                     l2959:	
  4085                           ;incstack = 0
  4086                           ; Regs used in ___fladd: [wreg+status,2+status,0+btemp+1]
  4087                           
  4088     0243  1283               	bcf	3,5	;RP0=0, select bank0
  4089     0244  1303               	bcf	3,6	;RP1=0, select bank0
  4090     0245  0847               	movf	___fladd@b+3,w
  4091     0246  3980               	andlw	128
  4092     0247  00D4               	movwf	___fladd@signs
  4093     0248                     l2961:
  4094     0248  0847               	movf	___fladd@b+3,w
  4095     0249  00CC               	movwf	??___fladd
  4096     024A  074C               	addwf	??___fladd,w
  4097     024B  00D6               	movwf	___fladd@bexp
  4098     024C                     l2963:
  4099     024C  1FC6               	btfss	___fladd@b+2,7
  4100     024D  2A4F               	goto	u4131
  4101     024E  2A50               	goto	u4130
  4102     024F                     u4131:
  4103     024F  2A51               	goto	l2967
  4104     0250                     u4130:
  4105     0250                     l2965:
  4106     0250  1456               	bsf	___fladd@bexp,0
  4107     0251                     l2967:
  4108     0251  0856               	movf	___fladd@bexp,w
  4109     0252  1903               	btfsc	3,2
  4110     0253  2A55               	goto	u4141
  4111     0254  2A56               	goto	u4140
  4112     0255                     u4141:
  4113     0255  2A66               	goto	l2977
  4114     0256                     u4140:
  4115     0256                     l2969:
  4116     0256  0A56               	incf	___fladd@bexp,w
  4117     0257  1D03               	btfss	3,2
  4118     0258  2A5A               	goto	u4151
  4119     0259  2A5B               	goto	u4150
  4120     025A                     u4151:
  4121     025A  2A63               	goto	l2973
  4122     025B                     u4150:
  4123     025B                     l2971:
  4124     025B  3000               	movlw	0
  4125     025C  00C7               	movwf	___fladd@b+3
  4126     025D  3000               	movlw	0
  4127     025E  00C6               	movwf	___fladd@b+2
  4128     025F  3000               	movlw	0
  4129     0260  00C5               	movwf	___fladd@b+1
  4130     0261  3000               	movlw	0
  4131     0262  00C4               	movwf	___fladd@b
  4132     0263                     l2973:
  4133     0263  17C6               	bsf	___fladd@b+2,7
  4134     0264                     l2975:
  4135     0264  01C7               	clrf	___fladd@b+3
  4136     0265  2A6E               	goto	l2979
  4137     0266                     l2977:
  4138     0266  3000               	movlw	0
  4139     0267  00C7               	movwf	___fladd@b+3
  4140     0268  3000               	movlw	0
  4141     0269  00C6               	movwf	___fladd@b+2
  4142     026A  3000               	movlw	0
  4143     026B  00C5               	movwf	___fladd@b+1
  4144     026C  3000               	movlw	0
  4145     026D  00C4               	movwf	___fladd@b
  4146     026E                     l2979:
  4147     026E  084B               	movf	___fladd@a+3,w
  4148     026F  3980               	andlw	128
  4149     0270  00D5               	movwf	___fladd@aexp
  4150     0271                     l2981:
  4151     0271  0855               	movf	___fladd@aexp,w
  4152     0272  0654               	xorwf	___fladd@signs,w
  4153     0273  1903               	skipnz
  4154     0274  2A76               	goto	u4161
  4155     0275  2A77               	goto	u4160
  4156     0276                     u4161:
  4157     0276  2A78               	goto	l2985
  4158     0277                     u4160:
  4159     0277                     l2983:
  4160     0277  1754               	bsf	___fladd@signs,6
  4161     0278                     l2985:
  4162     0278  084B               	movf	___fladd@a+3,w
  4163     0279  00CC               	movwf	??___fladd
  4164     027A  074C               	addwf	??___fladd,w
  4165     027B  00D5               	movwf	___fladd@aexp
  4166     027C                     l2987:
  4167     027C  1FCA               	btfss	___fladd@a+2,7
  4168     027D  2A7F               	goto	u4171
  4169     027E  2A80               	goto	u4170
  4170     027F                     u4171:
  4171     027F  2A81               	goto	l2991
  4172     0280                     u4170:
  4173     0280                     l2989:
  4174     0280  1455               	bsf	___fladd@aexp,0
  4175     0281                     l2991:
  4176     0281  0855               	movf	___fladd@aexp,w
  4177     0282  1903               	btfsc	3,2
  4178     0283  2A85               	goto	u4181
  4179     0284  2A86               	goto	u4180
  4180     0285                     u4181:
  4181     0285  2A96               	goto	l3001
  4182     0286                     u4180:
  4183     0286                     l2993:
  4184     0286  0A55               	incf	___fladd@aexp,w
  4185     0287  1D03               	btfss	3,2
  4186     0288  2A8A               	goto	u4191
  4187     0289  2A8B               	goto	u4190
  4188     028A                     u4191:
  4189     028A  2A93               	goto	l2997
  4190     028B                     u4190:
  4191     028B                     l2995:
  4192     028B  3000               	movlw	0
  4193     028C  00CB               	movwf	___fladd@a+3
  4194     028D  3000               	movlw	0
  4195     028E  00CA               	movwf	___fladd@a+2
  4196     028F  3000               	movlw	0
  4197     0290  00C9               	movwf	___fladd@a+1
  4198     0291  3000               	movlw	0
  4199     0292  00C8               	movwf	___fladd@a
  4200     0293                     l2997:
  4201     0293  17CA               	bsf	___fladd@a+2,7
  4202     0294                     l2999:
  4203     0294  01CB               	clrf	___fladd@a+3
  4204     0295  2A9E               	goto	l612
  4205     0296                     l3001:
  4206     0296  3000               	movlw	0
  4207     0297  00CB               	movwf	___fladd@a+3
  4208     0298  3000               	movlw	0
  4209     0299  00CA               	movwf	___fladd@a+2
  4210     029A  3000               	movlw	0
  4211     029B  00C9               	movwf	___fladd@a+1
  4212     029C  3000               	movlw	0
  4213     029D  00C8               	movwf	___fladd@a
  4214     029E                     l612:
  4215     029E  0856               	movf	___fladd@bexp,w
  4216     029F  0255               	subwf	___fladd@aexp,w
  4217     02A0  1803               	skipnc
  4218     02A1  2AA3               	goto	u4201
  4219     02A2  2AA4               	goto	u4200
  4220     02A3                     u4201:
  4221     02A3  2ACA               	goto	l3037
  4222     02A4                     u4200:
  4223     02A4                     l3003:
  4224     02A4  1F54               	btfss	___fladd@signs,6
  4225     02A5  2AA7               	goto	u4211
  4226     02A6  2AA8               	goto	u4210
  4227     02A7                     u4211:
  4228     02A7  2AAC               	goto	l3007
  4229     02A8                     u4210:
  4230     02A8                     l3005:
  4231     02A8  3080               	movlw	128
  4232     02A9  00FF               	movwf	btemp+1
  4233     02AA  087F               	movf	btemp+1,w
  4234     02AB  06D4               	xorwf	___fladd@signs,f
  4235     02AC                     l3007:
  4236     02AC  0856               	movf	___fladd@bexp,w
  4237     02AD  00D7               	movwf	___fladd@grs
  4238     02AE                     l3009:
  4239     02AE  0855               	movf	___fladd@aexp,w
  4240     02AF  00D6               	movwf	___fladd@bexp
  4241     02B0                     l3011:
  4242     02B0  0857               	movf	___fladd@grs,w
  4243     02B1  00D5               	movwf	___fladd@aexp
  4244     02B2                     l3013:
  4245     02B2  0844               	movf	___fladd@b,w
  4246     02B3  00D7               	movwf	___fladd@grs
  4247     02B4                     l3015:
  4248     02B4  0848               	movf	___fladd@a,w
  4249     02B5  00C4               	movwf	___fladd@b
  4250     02B6                     l3017:
  4251     02B6  0857               	movf	___fladd@grs,w
  4252     02B7  00C8               	movwf	___fladd@a
  4253     02B8                     l3019:
  4254     02B8  0845               	movf	___fladd@b+1,w
  4255     02B9  00D7               	movwf	___fladd@grs
  4256     02BA                     l3021:
  4257     02BA  0849               	movf	___fladd@a+1,w
  4258     02BB  00C5               	movwf	___fladd@b+1
  4259     02BC                     l3023:
  4260     02BC  0857               	movf	___fladd@grs,w
  4261     02BD  00C9               	movwf	___fladd@a+1
  4262     02BE                     l3025:
  4263     02BE  0846               	movf	___fladd@b+2,w
  4264     02BF  00D7               	movwf	___fladd@grs
  4265     02C0                     l3027:
  4266     02C0  084A               	movf	___fladd@a+2,w
  4267     02C1  00C6               	movwf	___fladd@b+2
  4268     02C2                     l3029:
  4269     02C2  0857               	movf	___fladd@grs,w
  4270     02C3  00CA               	movwf	___fladd@a+2
  4271     02C4                     l3031:
  4272     02C4  0847               	movf	___fladd@b+3,w
  4273     02C5  00D7               	movwf	___fladd@grs
  4274     02C6                     l3033:
  4275     02C6  084B               	movf	___fladd@a+3,w
  4276     02C7  00C7               	movwf	___fladd@b+3
  4277     02C8                     l3035:
  4278     02C8  0857               	movf	___fladd@grs,w
  4279     02C9  00CB               	movwf	___fladd@a+3
  4280     02CA                     l3037:
  4281     02CA  01D7               	clrf	___fladd@grs
  4282     02CB                     l3039:
  4283     02CB  0855               	movf	___fladd@aexp,w
  4284     02CC  00CC               	movwf	??___fladd
  4285     02CD  01CD               	clrf	??___fladd+1
  4286     02CE  084D               	movf	??___fladd+1,w
  4287     02CF  00CF               	movwf	??___fladd+3
  4288     02D0  0856               	movf	___fladd@bexp,w
  4289     02D1  024C               	subwf	??___fladd,w
  4290     02D2  00CE               	movwf	??___fladd+2
  4291     02D3  1C03               	skipc
  4292     02D4  03CF               	decf	??___fladd+3,f
  4293     02D5  084F               	movf	??___fladd+3,w
  4294     02D6  3A80               	xorlw	128
  4295     02D7  00FF               	movwf	btemp+1
  4296     02D8  3080               	movlw	128
  4297     02D9  027F               	subwf	btemp+1,w
  4298     02DA  1D03               	skipz
  4299     02DB  2ADE               	goto	u4225
  4300     02DC  301A               	movlw	26
  4301     02DD  024E               	subwf	??___fladd+2,w
  4302     02DE                     u4225:
  4303     02DE  1C03               	skipc
  4304     02DF  2AE1               	goto	u4221
  4305     02E0  2AE2               	goto	u4220
  4306     02E1                     u4221:
  4307     02E1  2B19               	goto	l3055
  4308     02E2                     u4220:
  4309     02E2                     l3041:
  4310     02E2  1283               	bcf	3,5	;RP0=0, select bank0
  4311     02E3  1303               	bcf	3,6	;RP1=0, select bank0
  4312     02E4  0847               	movf	___fladd@b+3,w
  4313     02E5  0446               	iorwf	___fladd@b+2,w
  4314     02E6  0445               	iorwf	___fladd@b+1,w
  4315     02E7  0444               	iorwf	___fladd@b,w
  4316     02E8  1D03               	skipz
  4317     02E9  2AEB               	goto	u4231
  4318     02EA  2AED               	goto	u4230
  4319     02EB                     u4231:
  4320     02EB  3001               	movlw	1
  4321     02EC  2AEE               	goto	u4240
  4322     02ED                     u4230:
  4323     02ED  3000               	movlw	0
  4324     02EE                     u4240:
  4325     02EE  00D7               	movwf	___fladd@grs
  4326     02EF  3000               	movlw	0
  4327     02F0  00C7               	movwf	___fladd@b+3
  4328     02F1  3000               	movlw	0
  4329     02F2  00C6               	movwf	___fladd@b+2
  4330     02F3  3000               	movlw	0
  4331     02F4  00C5               	movwf	___fladd@b+1
  4332     02F5  3000               	movlw	0
  4333     02F6  00C4               	movwf	___fladd@b
  4334     02F7  0855               	movf	___fladd@aexp,w
  4335     02F8  00D6               	movwf	___fladd@bexp
  4336     02F9  2B21               	goto	l616
  4337     02FA                     l618:
  4338     02FA  1C57               	btfss	___fladd@grs,0
  4339     02FB  2AFD               	goto	u4251
  4340     02FC  2AFE               	goto	u4250
  4341     02FD                     u4251:
  4342     02FD  2B05               	goto	l3045
  4343     02FE                     u4250:
  4344     02FE                     l3043:
  4345     02FE  0857               	movf	___fladd@grs,w
  4346     02FF  00CC               	movwf	??___fladd
  4347     0300  1003               	clrc
  4348     0301  0C4C               	rrf	??___fladd,w
  4349     0302  3801               	iorlw	1
  4350     0303  00D7               	movwf	___fladd@grs
  4351     0304  2B07               	goto	l3047
  4352     0305                     l3045:
  4353     0305  1003               	clrc
  4354     0306  0CD7               	rrf	___fladd@grs,f
  4355     0307                     l3047:
  4356     0307  1C44               	btfss	___fladd@b,0
  4357     0308  2B0A               	goto	u4261
  4358     0309  2B0B               	goto	u4260
  4359     030A                     u4261:
  4360     030A  2B0C               	goto	l3051
  4361     030B                     u4260:
  4362     030B                     l3049:
  4363     030B  17D7               	bsf	___fladd@grs,7
  4364     030C                     l3051:
  4365     030C  3001               	movlw	1
  4366     030D  00CC               	movwf	??___fladd
  4367     030E                     u4275:
  4368     030E  0D47               	rlf	___fladd@b+3,w
  4369     030F  0CC7               	rrf	___fladd@b+3,f
  4370     0310  0CC6               	rrf	___fladd@b+2,f
  4371     0311  0CC5               	rrf	___fladd@b+1,f
  4372     0312  0CC4               	rrf	___fladd@b,f
  4373     0313  0BCC               	decfsz	??___fladd& (0+127),f
  4374     0314  2B0E               	goto	u4275
  4375     0315                     l3053:
  4376     0315  3001               	movlw	1
  4377     0316  00FF               	movwf	btemp+1
  4378     0317  087F               	movf	btemp+1,w
  4379     0318  07D6               	addwf	___fladd@bexp,f
  4380     0319                     l3055:
  4381     0319  1283               	bcf	3,5	;RP0=0, select bank0
  4382     031A  1303               	bcf	3,6	;RP1=0, select bank0
  4383     031B  0855               	movf	___fladd@aexp,w
  4384     031C  0256               	subwf	___fladd@bexp,w
  4385     031D  1C03               	skipc
  4386     031E  2B20               	goto	u4281
  4387     031F  2B21               	goto	u4280
  4388     0320                     u4281:
  4389     0320  2AFA               	goto	l618
  4390     0321                     u4280:
  4391     0321                     l616:
  4392     0321  1B54               	btfsc	___fladd@signs,6
  4393     0322  2B24               	goto	u4291
  4394     0323  2B25               	goto	u4290
  4395     0324                     u4291:
  4396     0324  2B6E               	goto	l3081
  4397     0325                     u4290:
  4398     0325                     l3057:
  4399     0325  0856               	movf	___fladd@bexp,w
  4400     0326  1D03               	btfss	3,2
  4401     0327  2B29               	goto	u4301
  4402     0328  2B2A               	goto	u4300
  4403     0329                     u4301:
  4404     0329  2B33               	goto	l3063
  4405     032A                     u4300:
  4406     032A                     l3059:
  4407     032A  3000               	movlw	0
  4408     032B  00C7               	movwf	?___fladd+3
  4409     032C  3000               	movlw	0
  4410     032D  00C6               	movwf	?___fladd+2
  4411     032E  3000               	movlw	0
  4412     032F  00C5               	movwf	?___fladd+1
  4413     0330  3000               	movlw	0
  4414     0331  00C4               	movwf	?___fladd
  4415     0332  2C9A               	goto	l625
  4416     0333                     l3063:
  4417     0333  0848               	movf	___fladd@a,w
  4418     0334  07C4               	addwf	___fladd@b,f
  4419     0335  0849               	movf	___fladd@a+1,w
  4420     0336  1103               	clrz
  4421     0337  1803               	skipnc
  4422     0338  3E01               	addlw	1
  4423     0339  1903               	skipnz
  4424     033A  2B3C               	goto	u4311
  4425     033B  07C5               	addwf	___fladd@b+1,f
  4426     033C                     u4311:
  4427     033C  084A               	movf	___fladd@a+2,w
  4428     033D  1103               	clrz
  4429     033E  1803               	skipnc
  4430     033F  3E01               	addlw	1
  4431     0340  1903               	skipnz
  4432     0341  2B43               	goto	u4312
  4433     0342  07C6               	addwf	___fladd@b+2,f
  4434     0343                     u4312:
  4435     0343  084B               	movf	___fladd@a+3,w
  4436     0344  1103               	clrz
  4437     0345  1803               	skipnc
  4438     0346  3E01               	addlw	1
  4439     0347  1903               	skipnz
  4440     0348  2B4A               	goto	u4313
  4441     0349  07C7               	addwf	___fladd@b+3,f
  4442     034A                     u4313:
  4443     034A                     l3065:
  4444     034A  1C47               	btfss	___fladd@b+3,0
  4445     034B  2B4D               	goto	u4321
  4446     034C  2B4E               	goto	u4320
  4447     034D                     u4321:
  4448     034D  2C22               	goto	l3117
  4449     034E                     u4320:
  4450     034E                     l3067:
  4451     034E  1C57               	btfss	___fladd@grs,0
  4452     034F  2B51               	goto	u4331
  4453     0350  2B52               	goto	u4330
  4454     0351                     u4331:
  4455     0351  2B59               	goto	l3071
  4456     0352                     u4330:
  4457     0352                     l3069:
  4458     0352  0857               	movf	___fladd@grs,w
  4459     0353  00CC               	movwf	??___fladd
  4460     0354  1003               	clrc
  4461     0355  0C4C               	rrf	??___fladd,w
  4462     0356  3801               	iorlw	1
  4463     0357  00D7               	movwf	___fladd@grs
  4464     0358  2B5B               	goto	l3073
  4465     0359                     l3071:
  4466     0359  1003               	clrc
  4467     035A  0CD7               	rrf	___fladd@grs,f
  4468     035B                     l3073:
  4469     035B  1C44               	btfss	___fladd@b,0
  4470     035C  2B5E               	goto	u4341
  4471     035D  2B5F               	goto	u4340
  4472     035E                     u4341:
  4473     035E  2B60               	goto	l3077
  4474     035F                     u4340:
  4475     035F                     l3075:
  4476     035F  17D7               	bsf	___fladd@grs,7
  4477     0360                     l3077:
  4478     0360  3001               	movlw	1
  4479     0361  00CC               	movwf	??___fladd
  4480     0362                     u4355:
  4481     0362  0D47               	rlf	___fladd@b+3,w
  4482     0363  0CC7               	rrf	___fladd@b+3,f
  4483     0364  0CC6               	rrf	___fladd@b+2,f
  4484     0365  0CC5               	rrf	___fladd@b+1,f
  4485     0366  0CC4               	rrf	___fladd@b,f
  4486     0367  0BCC               	decfsz	??___fladd& (0+127),f
  4487     0368  2B62               	goto	u4355
  4488     0369                     l3079:
  4489     0369  3001               	movlw	1
  4490     036A  00FF               	movwf	btemp+1
  4491     036B  087F               	movf	btemp+1,w
  4492     036C  07D6               	addwf	___fladd@bexp,f
  4493     036D  2C22               	goto	l3117
  4494     036E                     l3081:
  4495     036E  0847               	movf	___fladd@b+3,w
  4496     036F  3A80               	xorlw	128
  4497     0370  00FF               	movwf	btemp+1
  4498     0371  084B               	movf	___fladd@a+3,w
  4499     0372  3A80               	xorlw	128
  4500     0373  027F               	subwf	btemp+1,w
  4501     0374  1D03               	skipz
  4502     0375  2B80               	goto	u4363
  4503     0376  084A               	movf	___fladd@a+2,w
  4504     0377  0246               	subwf	___fladd@b+2,w
  4505     0378  1D03               	skipz
  4506     0379  2B80               	goto	u4363
  4507     037A  0849               	movf	___fladd@a+1,w
  4508     037B  0245               	subwf	___fladd@b+1,w
  4509     037C  1D03               	skipz
  4510     037D  2B80               	goto	u4363
  4511     037E  0848               	movf	___fladd@a,w
  4512     037F  0244               	subwf	___fladd@b,w
  4513     0380                     u4363:
  4514     0380  1803               	skipnc
  4515     0381  2B83               	goto	u4361
  4516     0382  2B84               	goto	u4360
  4517     0383                     u4361:
  4518     0383  2BDC               	goto	l3093
  4519     0384                     u4360:
  4520     0384                     l3083:
  4521     0384  30FF               	movlw	255
  4522     0385  00CC               	movwf	??___fladd
  4523     0386  30FF               	movlw	255
  4524     0387  00CD               	movwf	??___fladd+1
  4525     0388  30FF               	movlw	255
  4526     0389  00CE               	movwf	??___fladd+2
  4527     038A  30FF               	movlw	255
  4528     038B  00CF               	movwf	??___fladd+3
  4529     038C  0848               	movf	___fladd@a,w
  4530     038D  00D0               	movwf	??___fladd+4
  4531     038E  0849               	movf	___fladd@a+1,w
  4532     038F  00D1               	movwf	??___fladd+5
  4533     0390  084A               	movf	___fladd@a+2,w
  4534     0391  00D2               	movwf	??___fladd+6
  4535     0392  084B               	movf	___fladd@a+3,w
  4536     0393  00D3               	movwf	??___fladd+7
  4537     0394  0844               	movf	___fladd@b,w
  4538     0395  02D0               	subwf	??___fladd+4,f
  4539     0396  0845               	movf	___fladd@b+1,w
  4540     0397  1C03               	skipc
  4541     0398  0F45               	incfsz	___fladd@b+1,w
  4542     0399  2B9B               	goto	u4371
  4543     039A  2B9C               	goto	u4372
  4544     039B                     u4371:
  4545     039B  02D1               	subwf	??___fladd+5,f
  4546     039C                     u4372:
  4547     039C  0846               	movf	___fladd@b+2,w
  4548     039D  1C03               	skipc
  4549     039E  0F46               	incfsz	___fladd@b+2,w
  4550     039F  2BA1               	goto	u4373
  4551     03A0  2BA2               	goto	u4374
  4552     03A1                     u4373:
  4553     03A1  02D2               	subwf	??___fladd+6,f
  4554     03A2                     u4374:
  4555     03A2  0847               	movf	___fladd@b+3,w
  4556     03A3  1C03               	skipc
  4557     03A4  0F47               	incfsz	___fladd@b+3,w
  4558     03A5  2BA7               	goto	u4375
  4559     03A6  2BA8               	goto	u4376
  4560     03A7                     u4375:
  4561     03A7  02D3               	subwf	??___fladd+7,f
  4562     03A8                     u4376:
  4563     03A8  0850               	movf	??___fladd+4,w
  4564     03A9  07CC               	addwf	??___fladd,f
  4565     03AA  0851               	movf	??___fladd+5,w
  4566     03AB  1803               	skipnc
  4567     03AC  0F51               	incfsz	??___fladd+5,w
  4568     03AD  2BAF               	goto	u4380
  4569     03AE  2BB0               	goto	u4381
  4570     03AF                     u4380:
  4571     03AF  07CD               	addwf	??___fladd+1,f
  4572     03B0                     u4381:
  4573     03B0  0852               	movf	??___fladd+6,w
  4574     03B1  1803               	skipnc
  4575     03B2  0F52               	incfsz	??___fladd+6,w
  4576     03B3  2BB5               	goto	u4382
  4577     03B4  2BB6               	goto	u4383
  4578     03B5                     u4382:
  4579     03B5  07CE               	addwf	??___fladd+2,f
  4580     03B6                     u4383:
  4581     03B6  0853               	movf	??___fladd+7,w
  4582     03B7  1803               	skipnc
  4583     03B8  0A53               	incf	??___fladd+7,w
  4584     03B9  07CF               	addwf	??___fladd+3,f
  4585     03BA  084F               	movf	??___fladd+3,w
  4586     03BB  00C7               	movwf	___fladd@b+3
  4587     03BC  084E               	movf	??___fladd+2,w
  4588     03BD  00C6               	movwf	___fladd@b+2
  4589     03BE  084D               	movf	??___fladd+1,w
  4590     03BF  00C5               	movwf	___fladd@b+1
  4591     03C0  084C               	movf	??___fladd,w
  4592     03C1  00C4               	movwf	___fladd@b
  4593     03C2                     l3085:
  4594     03C2  3080               	movlw	128
  4595     03C3  00FF               	movwf	btemp+1
  4596     03C4  087F               	movf	btemp+1,w
  4597     03C5  06D4               	xorwf	___fladd@signs,f
  4598     03C6                     l3087:
  4599     03C6  09D7               	comf	___fladd@grs,f
  4600     03C7  0AD7               	incf	___fladd@grs,f
  4601     03C8                     l3089:
  4602     03C8  0857               	movf	___fladd@grs,w
  4603     03C9  1D03               	btfss	3,2
  4604     03CA  2BCC               	goto	u4391
  4605     03CB  2BCD               	goto	u4390
  4606     03CC                     u4391:
  4607     03CC  2BEA               	goto	l633
  4608     03CD                     u4390:
  4609     03CD                     l3091:
  4610     03CD  3001               	movlw	1
  4611     03CE  07C4               	addwf	___fladd@b,f
  4612     03CF  3000               	movlw	0
  4613     03D0  1803               	skipnc
  4614     03D1  3001               	movlw	1
  4615     03D2  07C5               	addwf	___fladd@b+1,f
  4616     03D3  3000               	movlw	0
  4617     03D4  1803               	skipnc
  4618     03D5  3001               	movlw	1
  4619     03D6  07C6               	addwf	___fladd@b+2,f
  4620     03D7  3000               	movlw	0
  4621     03D8  1803               	skipnc
  4622     03D9  3001               	movlw	1
  4623     03DA  07C7               	addwf	___fladd@b+3,f
  4624     03DB  2BEA               	goto	l633
  4625     03DC                     l3093:
  4626     03DC  0848               	movf	___fladd@a,w
  4627     03DD  02C4               	subwf	___fladd@b,f
  4628     03DE  0849               	movf	___fladd@a+1,w
  4629     03DF  1C03               	skipc
  4630     03E0  0F49               	incfsz	___fladd@a+1,w
  4631     03E1  02C5               	subwf	___fladd@b+1,f
  4632     03E2  084A               	movf	___fladd@a+2,w
  4633     03E3  1C03               	skipc
  4634     03E4  0F4A               	incfsz	___fladd@a+2,w
  4635     03E5  02C6               	subwf	___fladd@b+2,f
  4636     03E6  084B               	movf	___fladd@a+3,w
  4637     03E7  1C03               	skipc
  4638     03E8  0F4B               	incfsz	___fladd@a+3,w
  4639     03E9  02C7               	subwf	___fladd@b+3,f
  4640     03EA                     l633:
  4641     03EA  0847               	movf	___fladd@b+3,w
  4642     03EB  0446               	iorwf	___fladd@b+2,w
  4643     03EC  0445               	iorwf	___fladd@b+1,w
  4644     03ED  0444               	iorwf	___fladd@b,w
  4645     03EE  1D03               	skipz
  4646     03EF  2BF1               	goto	u4401
  4647     03F0  2BF2               	goto	u4400
  4648     03F1                     u4401:
  4649     03F1  2C1E               	goto	l3115
  4650     03F2                     u4400:
  4651     03F2                     l3095:
  4652     03F2  0857               	movf	___fladd@grs,w
  4653     03F3  1D03               	btfss	3,2
  4654     03F4  2BF6               	goto	u4411
  4655     03F5  2BF7               	goto	u4410
  4656     03F6                     u4411:
  4657     03F6  2C1E               	goto	l3115
  4658     03F7                     u4410:
  4659     03F7                     l3097:
  4660     03F7  3000               	movlw	0
  4661     03F8  00C7               	movwf	?___fladd+3
  4662     03F9  3000               	movlw	0
  4663     03FA  00C6               	movwf	?___fladd+2
  4664     03FB  3000               	movlw	0
  4665     03FC  00C5               	movwf	?___fladd+1
  4666     03FD  3000               	movlw	0
  4667     03FE  00C4               	movwf	?___fladd
  4668     03FF  2C9A               	goto	l625
  4669     0400                     l3101:
  4670     0400  3001               	movlw	1
  4671     0401  00CC               	movwf	??___fladd
  4672     0402                     u4425:
  4673     0402  1003               	clrc
  4674     0403  0DC4               	rlf	___fladd@b,f
  4675     0404  0DC5               	rlf	___fladd@b+1,f
  4676     0405  0DC6               	rlf	___fladd@b+2,f
  4677     0406  0DC7               	rlf	___fladd@b+3,f
  4678     0407  0BCC               	decfsz	??___fladd,f
  4679     0408  2C02               	goto	u4425
  4680     0409                     l3103:
  4681     0409  1FD7               	btfss	___fladd@grs,7
  4682     040A  2C0C               	goto	u4431
  4683     040B  2C0D               	goto	u4430
  4684     040C                     u4431:
  4685     040C  2C0E               	goto	l637
  4686     040D                     u4430:
  4687     040D                     l3105:
  4688     040D  1444               	bsf	___fladd@b,0
  4689     040E                     l637:
  4690     040E  1C57               	btfss	___fladd@grs,0
  4691     040F  2C11               	goto	u4441
  4692     0410  2C12               	goto	u4440
  4693     0411                     u4441:
  4694     0411  2C15               	goto	l3109
  4695     0412                     u4440:
  4696     0412                     l3107:
  4697     0412  1403               	setc
  4698     0413  0DD7               	rlf	___fladd@grs,f
  4699     0414  2C17               	goto	l3111
  4700     0415                     l3109:
  4701     0415  1003               	clrc
  4702     0416  0DD7               	rlf	___fladd@grs,f
  4703     0417                     l3111:
  4704     0417  0856               	movf	___fladd@bexp,w
  4705     0418  1903               	btfsc	3,2
  4706     0419  2C1B               	goto	u4451
  4707     041A  2C1C               	goto	u4450
  4708     041B                     u4451:
  4709     041B  2C1E               	goto	l3115
  4710     041C                     u4450:
  4711     041C                     l3113:
  4712     041C  3001               	movlw	1
  4713     041D  02D6               	subwf	___fladd@bexp,f
  4714     041E                     l3115:
  4715     041E  1FC6               	btfss	___fladd@b+2,7
  4716     041F  2C21               	goto	u4461
  4717     0420  2C22               	goto	u4460
  4718     0421                     u4461:
  4719     0421  2C00               	goto	l3101
  4720     0422                     u4460:
  4721     0422                     l3117:
  4722     0422  01D5               	clrf	___fladd@aexp
  4723     0423                     l3119:
  4724     0423  1FD7               	btfss	___fladd@grs,7
  4725     0424  2C26               	goto	u4471
  4726     0425  2C27               	goto	u4470
  4727     0426                     u4471:
  4728     0426  2C35               	goto	l3127
  4729     0427                     u4470:
  4730     0427                     l3121:
  4731     0427  0857               	movf	___fladd@grs,w
  4732     0428  397F               	andlw	127
  4733     0429  1903               	btfsc	3,2
  4734     042A  2C2C               	goto	u4481
  4735     042B  2C2D               	goto	u4480
  4736     042C                     u4481:
  4737     042C  2C30               	goto	l643
  4738     042D                     u4480:
  4739     042D                     l3123:
  4740     042D  01D5               	clrf	___fladd@aexp
  4741     042E  0AD5               	incf	___fladd@aexp,f
  4742     042F  2C35               	goto	l3127
  4743     0430                     l643:
  4744     0430  1C44               	btfss	___fladd@b,0
  4745     0431  2C33               	goto	u4491
  4746     0432  2C34               	goto	u4490
  4747     0433                     u4491:
  4748     0433  2C35               	goto	l3127
  4749     0434                     u4490:
  4750     0434  2C2D               	goto	l3123
  4751     0435                     l3127:
  4752     0435  0855               	movf	___fladd@aexp,w
  4753     0436  1903               	btfsc	3,2
  4754     0437  2C39               	goto	u4501
  4755     0438  2C3A               	goto	u4500
  4756     0439                     u4501:
  4757     0439  2C6E               	goto	l3137
  4758     043A                     u4500:
  4759     043A                     l3129:
  4760     043A  3001               	movlw	1
  4761     043B  07C4               	addwf	___fladd@b,f
  4762     043C  3000               	movlw	0
  4763     043D  1803               	skipnc
  4764     043E  3001               	movlw	1
  4765     043F  07C5               	addwf	___fladd@b+1,f
  4766     0440  3000               	movlw	0
  4767     0441  1803               	skipnc
  4768     0442  3001               	movlw	1
  4769     0443  07C6               	addwf	___fladd@b+2,f
  4770     0444  3000               	movlw	0
  4771     0445  1803               	skipnc
  4772     0446  3001               	movlw	1
  4773     0447  07C7               	addwf	___fladd@b+3,f
  4774     0448                     l3131:
  4775     0448  1C47               	btfss	___fladd@b+3,0
  4776     0449  2C4B               	goto	u4511
  4777     044A  2C4C               	goto	u4510
  4778     044B                     u4511:
  4779     044B  2C6E               	goto	l3137
  4780     044C                     u4510:
  4781     044C                     l3133:
  4782     044C  0844               	movf	___fladd@b,w
  4783     044D  00CC               	movwf	??___fladd
  4784     044E  0845               	movf	___fladd@b+1,w
  4785     044F  00CD               	movwf	??___fladd+1
  4786     0450  0846               	movf	___fladd@b+2,w
  4787     0451  00CE               	movwf	??___fladd+2
  4788     0452  0847               	movf	___fladd@b+3,w
  4789     0453  00CF               	movwf	??___fladd+3
  4790     0454  3001               	movlw	1
  4791     0455  00D0               	movwf	??___fladd+4
  4792     0456                     u4525:
  4793     0456  0D4F               	rlf	??___fladd+3,w
  4794     0457  0CCF               	rrf	??___fladd+3,f
  4795     0458  0CCE               	rrf	??___fladd+2,f
  4796     0459  0CCD               	rrf	??___fladd+1,f
  4797     045A  0CCC               	rrf	??___fladd,f
  4798     045B                     u4520:
  4799     045B  0BD0               	decfsz	??___fladd+4,f
  4800     045C  2C56               	goto	u4525
  4801     045D  084F               	movf	??___fladd+3,w
  4802     045E  00C7               	movwf	___fladd@b+3
  4803     045F  084E               	movf	??___fladd+2,w
  4804     0460  00C6               	movwf	___fladd@b+2
  4805     0461  084D               	movf	??___fladd+1,w
  4806     0462  00C5               	movwf	___fladd@b+1
  4807     0463  084C               	movf	??___fladd,w
  4808     0464  00C4               	movwf	___fladd@b
  4809     0465  0A56               	incf	___fladd@bexp,w
  4810     0466  1903               	btfsc	3,2
  4811     0467  2C69               	goto	u4531
  4812     0468  2C6A               	goto	u4530
  4813     0469                     u4531:
  4814     0469  2C6E               	goto	l3137
  4815     046A                     u4530:
  4816     046A                     l3135:
  4817     046A  3001               	movlw	1
  4818     046B  00FF               	movwf	btemp+1
  4819     046C  087F               	movf	btemp+1,w
  4820     046D  07D6               	addwf	___fladd@bexp,f
  4821     046E                     l3137:
  4822     046E  0A56               	incf	___fladd@bexp,w
  4823     046F  1903               	btfsc	3,2
  4824     0470  2C72               	goto	u4541
  4825     0471  2C73               	goto	u4540
  4826     0472                     u4541:
  4827     0472  2C78               	goto	l3141
  4828     0473                     u4540:
  4829     0473                     l3139:
  4830     0473  0856               	movf	___fladd@bexp,w
  4831     0474  1D03               	btfss	3,2
  4832     0475  2C77               	goto	u4551
  4833     0476  2C78               	goto	u4550
  4834     0477                     u4551:
  4835     0477  2C86               	goto	l3147
  4836     0478                     u4550:
  4837     0478                     l3141:
  4838     0478  3000               	movlw	0
  4839     0479  00C7               	movwf	___fladd@b+3
  4840     047A  3000               	movlw	0
  4841     047B  00C6               	movwf	___fladd@b+2
  4842     047C  3000               	movlw	0
  4843     047D  00C5               	movwf	___fladd@b+1
  4844     047E  3000               	movlw	0
  4845     047F  00C4               	movwf	___fladd@b
  4846     0480                     l3143:
  4847     0480  0856               	movf	___fladd@bexp,w
  4848     0481  1D03               	btfss	3,2
  4849     0482  2C84               	goto	u4561
  4850     0483  2C85               	goto	u4560
  4851     0484                     u4561:
  4852     0484  2C86               	goto	l3147
  4853     0485                     u4560:
  4854     0485                     l3145:
  4855     0485  01D4               	clrf	___fladd@signs
  4856     0486                     l3147:
  4857     0486  1C56               	btfss	___fladd@bexp,0
  4858     0487  2C89               	goto	u4571
  4859     0488  2C8A               	goto	u4570
  4860     0489                     u4571:
  4861     0489  2C8C               	goto	l3151
  4862     048A                     u4570:
  4863     048A                     l3149:
  4864     048A  17C6               	bsf	___fladd@b+2,7
  4865     048B  2C90               	goto	l3153
  4866     048C                     l3151:
  4867     048C  307F               	movlw	127
  4868     048D  00FF               	movwf	btemp+1
  4869     048E  087F               	movf	btemp+1,w
  4870     048F  05C6               	andwf	___fladd@b+2,f
  4871     0490                     l3153:
  4872     0490  0856               	movf	___fladd@bexp,w
  4873     0491  00CC               	movwf	??___fladd
  4874     0492  1003               	clrc
  4875     0493  0C4C               	rrf	??___fladd,w
  4876     0494  00C7               	movwf	___fladd@b+3
  4877     0495                     l3155:
  4878     0495  1FD4               	btfss	___fladd@signs,7
  4879     0496  2C98               	goto	u4581
  4880     0497  2C99               	goto	u4580
  4881     0498                     u4581:
  4882     0498  2C9A               	goto	l655
  4883     0499                     u4580:
  4884     0499                     l3157:
  4885     0499  17C7               	bsf	___fladd@b+3,7
  4886     049A                     l655:
  4887     049A                     l625:
  4888     049A  0008               	return
  4889     049B                     __end_of___fladd:
  4890                           
  4891                           	psect	text14
  4892     1712                     __ptext14:	
  4893 ;; *************** function ___flneg *****************
  4894 ;; Defined at:
  4895 ;;		line 15 in file "C:\Program Files\Microchip\xc8\v2.46\pic\sources\c99\common\flneg.c"
  4896 ;; Parameters:    Size  Location     Type
  4897 ;;  f1              4    2[COMMON] unsigned char 
  4898 ;; Auto vars:     Size  Location     Type
  4899 ;;		None
  4900 ;; Return value:  Size  Location     Type
  4901 ;;                  4    2[COMMON] unsigned char 
  4902 ;; Registers used:
  4903 ;;		wreg
  4904 ;; Tracked objects:
  4905 ;;		On entry : 0/0
  4906 ;;		On exit  : 0/0
  4907 ;;		Unchanged: 0/0
  4908 ;; Data sizes:     COMMON   BANK0   BANK1   BANK3   BANK2
  4909 ;;      Params:         4       0       0       0       0
  4910 ;;      Locals:         0       0       0       0       0
  4911 ;;      Temps:          0       0       0       0       0
  4912 ;;      Totals:         4       0       0       0       0
  4913 ;;Total ram usage:        4 bytes
  4914 ;; Hardware stack levels used: 1
  4915 ;; Hardware stack levels required when called: 1
  4916 ;; This function calls:
  4917 ;;		Nothing
  4918 ;; This function is called by:
  4919 ;;		_LCD_Float
  4920 ;; This function uses a non-reentrant model
  4921 ;;
  4922                           
  4923     1712                     ___flneg:	
  4924                           ;psect for function ___flneg
  4925                           
  4926     1712                     l3259:	
  4927                           ;incstack = 0
  4928                           ; Regs used in ___flneg: [wreg]
  4929                           
  4930     1712  0876               	movf	___flneg@f1+3,w
  4931     1713  0475               	iorwf	___flneg@f1+2,w
  4932     1714  0474               	iorwf	___flneg@f1+1,w
  4933     1715  0473               	iorwf	___flneg@f1,w
  4934     1716  1903               	skipnz
  4935     1717  2F19               	goto	u4791
  4936     1718  2F1A               	goto	u4790
  4937     1719                     u4791:
  4938     1719  2F1C               	goto	l3263
  4939     171A                     u4790:
  4940     171A                     l3261:
  4941     171A  3080               	movlw	128
  4942     171B  06F6               	xorwf	___flneg@f1+3,f
  4943     171C                     l3263:
  4944     171C                     l501:
  4945     171C  0008               	return
  4946     171D                     __end_of___flneg:
  4947                           
  4948                           	psect	text15
  4949     049B                     __ptext15:	
  4950 ;; *************** function ___flmul *****************
  4951 ;; Defined at:
  4952 ;;		line 8 in file "C:\Program Files\Microchip\xc8\v2.46\pic\sources\c99\common\sprcmul.c"
  4953 ;; Parameters:    Size  Location     Type
  4954 ;;  b               4    5[BANK0 ] unsigned char 
  4955 ;;  a               4    9[BANK0 ] unsigned char 
  4956 ;; Auto vars:     Size  Location     Type
  4957 ;;  prod            4   25[BANK0 ] struct .
  4958 ;;  grs             4   20[BANK0 ] unsigned long 
  4959 ;;  temp            2   29[BANK0 ] struct .
  4960 ;;  bexp            1   24[BANK0 ] unsigned char 
  4961 ;;  aexp            1   19[BANK0 ] unsigned char 
  4962 ;;  sign            1   18[BANK0 ] unsigned char 
  4963 ;; Return value:  Size  Location     Type
  4964 ;;                  4    5[BANK0 ] unsigned char 
  4965 ;; Registers used:
  4966 ;;		wreg, status,2, status,0, btemp+1, pclath, cstack
  4967 ;; Tracked objects:
  4968 ;;		On entry : 0/0
  4969 ;;		On exit  : 0/0
  4970 ;;		Unchanged: 0/0
  4971 ;; Data sizes:     COMMON   BANK0   BANK1   BANK3   BANK2
  4972 ;;      Params:         0       8       0       0       0
  4973 ;;      Locals:         0      13       0       0       0
  4974 ;;      Temps:          0       5       0       0       0
  4975 ;;      Totals:         0      26       0       0       0
  4976 ;;Total ram usage:       26 bytes
  4977 ;; Hardware stack levels used: 1
  4978 ;; Hardware stack levels required when called: 2
  4979 ;; This function calls:
  4980 ;;		__Umul8_16
  4981 ;; This function is called by:
  4982 ;;		_LCD_Float
  4983 ;; This function uses a non-reentrant model
  4984 ;;
  4985                           
  4986     049B                     ___flmul:	
  4987                           ;psect for function ___flmul
  4988                           
  4989     049B                     l3457:	
  4990                           ;incstack = 0
  4991                           ; Regs used in ___flmul: [wreg+status,2+status,0+btemp+1+pclath+cstack]
  4992                           
  4993     049B  1283               	bcf	3,5	;RP0=0, select bank0
  4994     049C  1303               	bcf	3,6	;RP1=0, select bank0
  4995     049D  0828               	movf	___flmul@b+3,w
  4996     049E  3980               	andlw	128
  4997     049F  00B2               	movwf	___flmul@sign
  4998     04A0                     l3459:
  4999     04A0  0828               	movf	___flmul@b+3,w
  5000     04A1  00AD               	movwf	??___flmul
  5001     04A2  072D               	addwf	??___flmul,w
  5002     04A3  00B8               	movwf	___flmul@bexp
  5003     04A4                     l3461:
  5004     04A4  1FA7               	btfss	___flmul@b+2,7
  5005     04A5  2CA7               	goto	u5191
  5006     04A6  2CA8               	goto	u5190
  5007     04A7                     u5191:
  5008     04A7  2CA9               	goto	l3465
  5009     04A8                     u5190:
  5010     04A8                     l3463:
  5011     04A8  1438               	bsf	___flmul@bexp,0
  5012     04A9                     l3465:
  5013     04A9  0838               	movf	___flmul@bexp,w
  5014     04AA  1903               	btfsc	3,2
  5015     04AB  2CAD               	goto	u5201
  5016     04AC  2CAE               	goto	u5200
  5017     04AD                     u5201:
  5018     04AD  2CBD               	goto	l3473
  5019     04AE                     u5200:
  5020     04AE                     l3467:
  5021     04AE  0A38               	incf	___flmul@bexp,w
  5022     04AF  1D03               	btfss	3,2
  5023     04B0  2CB2               	goto	u5211
  5024     04B1  2CB3               	goto	u5210
  5025     04B2                     u5211:
  5026     04B2  2CBB               	goto	l3471
  5027     04B3                     u5210:
  5028     04B3                     l3469:
  5029     04B3  3000               	movlw	0
  5030     04B4  00A8               	movwf	___flmul@b+3
  5031     04B5  3000               	movlw	0
  5032     04B6  00A7               	movwf	___flmul@b+2
  5033     04B7  3000               	movlw	0
  5034     04B8  00A6               	movwf	___flmul@b+1
  5035     04B9  3000               	movlw	0
  5036     04BA  00A5               	movwf	___flmul@b
  5037     04BB                     l3471:
  5038     04BB  17A7               	bsf	___flmul@b+2,7
  5039     04BC  2CC5               	goto	l3475
  5040     04BD                     l3473:
  5041     04BD  3000               	movlw	0
  5042     04BE  00A8               	movwf	___flmul@b+3
  5043     04BF  3000               	movlw	0
  5044     04C0  00A7               	movwf	___flmul@b+2
  5045     04C1  3000               	movlw	0
  5046     04C2  00A6               	movwf	___flmul@b+1
  5047     04C3  3000               	movlw	0
  5048     04C4  00A5               	movwf	___flmul@b
  5049     04C5                     l3475:
  5050     04C5  082C               	movf	___flmul@a+3,w
  5051     04C6  3980               	andlw	128
  5052     04C7  00FF               	movwf	btemp+1
  5053     04C8  087F               	movf	btemp+1,w
  5054     04C9  06B2               	xorwf	___flmul@sign,f
  5055     04CA                     l3477:
  5056     04CA  082C               	movf	___flmul@a+3,w
  5057     04CB  00AD               	movwf	??___flmul
  5058     04CC  072D               	addwf	??___flmul,w
  5059     04CD  00B3               	movwf	___flmul@aexp
  5060     04CE                     l3479:
  5061     04CE  1FAB               	btfss	___flmul@a+2,7
  5062     04CF  2CD1               	goto	u5221
  5063     04D0  2CD2               	goto	u5220
  5064     04D1                     u5221:
  5065     04D1  2CD3               	goto	l3483
  5066     04D2                     u5220:
  5067     04D2                     l3481:
  5068     04D2  1433               	bsf	___flmul@aexp,0
  5069     04D3                     l3483:
  5070     04D3  0833               	movf	___flmul@aexp,w
  5071     04D4  1903               	btfsc	3,2
  5072     04D5  2CD7               	goto	u5231
  5073     04D6  2CD8               	goto	u5230
  5074     04D7                     u5231:
  5075     04D7  2CE7               	goto	l3491
  5076     04D8                     u5230:
  5077     04D8                     l3485:
  5078     04D8  0A33               	incf	___flmul@aexp,w
  5079     04D9  1D03               	btfss	3,2
  5080     04DA  2CDC               	goto	u5241
  5081     04DB  2CDD               	goto	u5240
  5082     04DC                     u5241:
  5083     04DC  2CE5               	goto	l3489
  5084     04DD                     u5240:
  5085     04DD                     l3487:
  5086     04DD  3000               	movlw	0
  5087     04DE  00AC               	movwf	___flmul@a+3
  5088     04DF  3000               	movlw	0
  5089     04E0  00AB               	movwf	___flmul@a+2
  5090     04E1  3000               	movlw	0
  5091     04E2  00AA               	movwf	___flmul@a+1
  5092     04E3  3000               	movlw	0
  5093     04E4  00A9               	movwf	___flmul@a
  5094     04E5                     l3489:
  5095     04E5  17AB               	bsf	___flmul@a+2,7
  5096     04E6  2CEF               	goto	l3493
  5097     04E7                     l3491:
  5098     04E7  3000               	movlw	0
  5099     04E8  00AC               	movwf	___flmul@a+3
  5100     04E9  3000               	movlw	0
  5101     04EA  00AB               	movwf	___flmul@a+2
  5102     04EB  3000               	movlw	0
  5103     04EC  00AA               	movwf	___flmul@a+1
  5104     04ED  3000               	movlw	0
  5105     04EE  00A9               	movwf	___flmul@a
  5106     04EF                     l3493:
  5107     04EF  0833               	movf	___flmul@aexp,w
  5108     04F0  1903               	btfsc	3,2
  5109     04F1  2CF3               	goto	u5251
  5110     04F2  2CF4               	goto	u5250
  5111     04F3                     u5251:
  5112     04F3  2CF9               	goto	l3497
  5113     04F4                     u5250:
  5114     04F4                     l3495:
  5115     04F4  0838               	movf	___flmul@bexp,w
  5116     04F5  1D03               	btfss	3,2
  5117     04F6  2CF8               	goto	u5261
  5118     04F7  2CF9               	goto	u5260
  5119     04F8                     u5261:
  5120     04F8  2D02               	goto	l3501
  5121     04F9                     u5260:
  5122     04F9                     l3497:
  5123     04F9  3000               	movlw	0
  5124     04FA  00A8               	movwf	?___flmul+3
  5125     04FB  3000               	movlw	0
  5126     04FC  00A7               	movwf	?___flmul+2
  5127     04FD  3000               	movlw	0
  5128     04FE  00A6               	movwf	?___flmul+1
  5129     04FF  3000               	movlw	0
  5130     0500  00A5               	movwf	?___flmul
  5131     0501  2FDF               	goto	l708
  5132     0502                     l3501:
  5133     0502  0825               	movf	___flmul@b,w
  5134     0503  00F3               	movwf	__Umul8_16@multiplicand
  5135     0504  082B               	movf	___flmul@a+2,w
  5136     0505  160A  118A  277F  120A  118A  	fcall	__Umul8_16
  5137     050A  0874               	movf	?__Umul8_16+1,w
  5138     050B  1283               	bcf	3,5	;RP0=0, select bank0
  5139     050C  1303               	bcf	3,6	;RP1=0, select bank0
  5140     050D  00BE               	movwf	___flmul@temp+1
  5141     050E  0873               	movf	?__Umul8_16,w
  5142     050F  00BD               	movwf	___flmul@temp
  5143     0510                     l3503:
  5144     0510  083D               	movf	___flmul@temp,w
  5145     0511  00AD               	movwf	??___flmul
  5146     0512  01AE               	clrf	??___flmul+1
  5147     0513  01AF               	clrf	??___flmul+2
  5148     0514  01B0               	clrf	??___flmul+3
  5149     0515  0830               	movf	??___flmul+3,w
  5150     0516  00B7               	movwf	___flmul@grs+3
  5151     0517  082F               	movf	??___flmul+2,w
  5152     0518  00B6               	movwf	___flmul@grs+2
  5153     0519  082E               	movf	??___flmul+1,w
  5154     051A  00B5               	movwf	___flmul@grs+1
  5155     051B  082D               	movf	??___flmul,w
  5156     051C  00B4               	movwf	___flmul@grs
  5157     051D                     l3505:
  5158     051D  083E               	movf	___flmul@temp+1,w
  5159     051E  00AD               	movwf	??___flmul
  5160     051F  01AE               	clrf	??___flmul+1
  5161     0520  01AF               	clrf	??___flmul+2
  5162     0521  01B0               	clrf	??___flmul+3
  5163     0522  0830               	movf	??___flmul+3,w
  5164     0523  00BC               	movwf	___flmul@prod+3
  5165     0524  082F               	movf	??___flmul+2,w
  5166     0525  00BB               	movwf	___flmul@prod+2
  5167     0526  082E               	movf	??___flmul+1,w
  5168     0527  00BA               	movwf	___flmul@prod+1
  5169     0528  082D               	movf	??___flmul,w
  5170     0529  00B9               	movwf	___flmul@prod
  5171     052A  0826               	movf	___flmul@b+1,w
  5172     052B  00F3               	movwf	__Umul8_16@multiplicand
  5173     052C  082A               	movf	___flmul@a+1,w
  5174     052D  160A  118A  277F  120A  118A  	fcall	__Umul8_16
  5175     0532  0874               	movf	?__Umul8_16+1,w
  5176     0533  1283               	bcf	3,5	;RP0=0, select bank0
  5177     0534  1303               	bcf	3,6	;RP1=0, select bank0
  5178     0535  00BE               	movwf	___flmul@temp+1
  5179     0536  0873               	movf	?__Umul8_16,w
  5180     0537  00BD               	movwf	___flmul@temp
  5181     0538                     l3507:
  5182     0538  083D               	movf	___flmul@temp,w
  5183     0539  00AD               	movwf	??___flmul
  5184     053A  01AE               	clrf	??___flmul+1
  5185     053B  01AF               	clrf	??___flmul+2
  5186     053C  01B0               	clrf	??___flmul+3
  5187     053D  082D               	movf	??___flmul,w
  5188     053E  07B4               	addwf	___flmul@grs,f
  5189     053F  082E               	movf	??___flmul+1,w
  5190     0540  1103               	clrz
  5191     0541  1803               	skipnc
  5192     0542  3E01               	addlw	1
  5193     0543  1903               	skipnz
  5194     0544  2D46               	goto	u5271
  5195     0545  07B5               	addwf	___flmul@grs+1,f
  5196     0546                     u5271:
  5197     0546  082F               	movf	??___flmul+2,w
  5198     0547  1103               	clrz
  5199     0548  1803               	skipnc
  5200     0549  3E01               	addlw	1
  5201     054A  1903               	skipnz
  5202     054B  2D4D               	goto	u5272
  5203     054C  07B6               	addwf	___flmul@grs+2,f
  5204     054D                     u5272:
  5205     054D  0830               	movf	??___flmul+3,w
  5206     054E  1103               	clrz
  5207     054F  1803               	skipnc
  5208     0550  3E01               	addlw	1
  5209     0551  1903               	skipnz
  5210     0552  2D54               	goto	u5273
  5211     0553  07B7               	addwf	___flmul@grs+3,f
  5212     0554                     u5273:
  5213     0554                     l3509:
  5214     0554  083E               	movf	___flmul@temp+1,w
  5215     0555  00AD               	movwf	??___flmul
  5216     0556  01AE               	clrf	??___flmul+1
  5217     0557  01AF               	clrf	??___flmul+2
  5218     0558  01B0               	clrf	??___flmul+3
  5219     0559  082D               	movf	??___flmul,w
  5220     055A  07B9               	addwf	___flmul@prod,f
  5221     055B  082E               	movf	??___flmul+1,w
  5222     055C  1103               	clrz
  5223     055D  1803               	skipnc
  5224     055E  3E01               	addlw	1
  5225     055F  1903               	skipnz
  5226     0560  2D62               	goto	u5281
  5227     0561  07BA               	addwf	___flmul@prod+1,f
  5228     0562                     u5281:
  5229     0562  082F               	movf	??___flmul+2,w
  5230     0563  1103               	clrz
  5231     0564  1803               	skipnc
  5232     0565  3E01               	addlw	1
  5233     0566  1903               	skipnz
  5234     0567  2D69               	goto	u5282
  5235     0568  07BB               	addwf	___flmul@prod+2,f
  5236     0569                     u5282:
  5237     0569  0830               	movf	??___flmul+3,w
  5238     056A  1103               	clrz
  5239     056B  1803               	skipnc
  5240     056C  3E01               	addlw	1
  5241     056D  1903               	skipnz
  5242     056E  2D70               	goto	u5283
  5243     056F  07BC               	addwf	___flmul@prod+3,f
  5244     0570                     u5283:
  5245     0570  0827               	movf	___flmul@b+2,w
  5246     0571  00F3               	movwf	__Umul8_16@multiplicand
  5247     0572  0829               	movf	___flmul@a,w
  5248     0573  160A  118A  277F  120A  118A  	fcall	__Umul8_16
  5249     0578  0874               	movf	?__Umul8_16+1,w
  5250     0579  1283               	bcf	3,5	;RP0=0, select bank0
  5251     057A  1303               	bcf	3,6	;RP1=0, select bank0
  5252     057B  00BE               	movwf	___flmul@temp+1
  5253     057C  0873               	movf	?__Umul8_16,w
  5254     057D  00BD               	movwf	___flmul@temp
  5255     057E                     l3511:
  5256     057E  083D               	movf	___flmul@temp,w
  5257     057F  00AD               	movwf	??___flmul
  5258     0580  01AE               	clrf	??___flmul+1
  5259     0581  01AF               	clrf	??___flmul+2
  5260     0582  01B0               	clrf	??___flmul+3
  5261     0583  082D               	movf	??___flmul,w
  5262     0584  07B4               	addwf	___flmul@grs,f
  5263     0585  082E               	movf	??___flmul+1,w
  5264     0586  1103               	clrz
  5265     0587  1803               	skipnc
  5266     0588  3E01               	addlw	1
  5267     0589  1903               	skipnz
  5268     058A  2D8C               	goto	u5291
  5269     058B  07B5               	addwf	___flmul@grs+1,f
  5270     058C                     u5291:
  5271     058C  082F               	movf	??___flmul+2,w
  5272     058D  1103               	clrz
  5273     058E  1803               	skipnc
  5274     058F  3E01               	addlw	1
  5275     0590  1903               	skipnz
  5276     0591  2D93               	goto	u5292
  5277     0592  07B6               	addwf	___flmul@grs+2,f
  5278     0593                     u5292:
  5279     0593  0830               	movf	??___flmul+3,w
  5280     0594  1103               	clrz
  5281     0595  1803               	skipnc
  5282     0596  3E01               	addlw	1
  5283     0597  1903               	skipnz
  5284     0598  2D9A               	goto	u5293
  5285     0599  07B7               	addwf	___flmul@grs+3,f
  5286     059A                     u5293:
  5287     059A                     l3513:
  5288     059A  083E               	movf	___flmul@temp+1,w
  5289     059B  00AD               	movwf	??___flmul
  5290     059C  01AE               	clrf	??___flmul+1
  5291     059D  01AF               	clrf	??___flmul+2
  5292     059E  01B0               	clrf	??___flmul+3
  5293     059F  082D               	movf	??___flmul,w
  5294     05A0  07B9               	addwf	___flmul@prod,f
  5295     05A1  082E               	movf	??___flmul+1,w
  5296     05A2  1103               	clrz
  5297     05A3  1803               	skipnc
  5298     05A4  3E01               	addlw	1
  5299     05A5  1903               	skipnz
  5300     05A6  2DA8               	goto	u5301
  5301     05A7  07BA               	addwf	___flmul@prod+1,f
  5302     05A8                     u5301:
  5303     05A8  082F               	movf	??___flmul+2,w
  5304     05A9  1103               	clrz
  5305     05AA  1803               	skipnc
  5306     05AB  3E01               	addlw	1
  5307     05AC  1903               	skipnz
  5308     05AD  2DAF               	goto	u5302
  5309     05AE  07BB               	addwf	___flmul@prod+2,f
  5310     05AF                     u5302:
  5311     05AF  0830               	movf	??___flmul+3,w
  5312     05B0  1103               	clrz
  5313     05B1  1803               	skipnc
  5314     05B2  3E01               	addlw	1
  5315     05B3  1903               	skipnz
  5316     05B4  2DB6               	goto	u5303
  5317     05B5  07BC               	addwf	___flmul@prod+3,f
  5318     05B6                     u5303:
  5319     05B6                     l3515:
  5320     05B6  3008               	movlw	8
  5321     05B7  00AD               	movwf	??___flmul
  5322     05B8                     u5315:
  5323     05B8  1003               	clrc
  5324     05B9  0DB4               	rlf	___flmul@grs,f
  5325     05BA  0DB5               	rlf	___flmul@grs+1,f
  5326     05BB  0DB6               	rlf	___flmul@grs+2,f
  5327     05BC  0DB7               	rlf	___flmul@grs+3,f
  5328     05BD  0BAD               	decfsz	??___flmul,f
  5329     05BE  2DB8               	goto	u5315
  5330     05BF                     l3517:
  5331     05BF  0826               	movf	___flmul@b+1,w
  5332     05C0  00F3               	movwf	__Umul8_16@multiplicand
  5333     05C1  0829               	movf	___flmul@a,w
  5334     05C2  160A  118A  277F  120A  118A  	fcall	__Umul8_16
  5335     05C7  0874               	movf	?__Umul8_16+1,w
  5336     05C8  1283               	bcf	3,5	;RP0=0, select bank0
  5337     05C9  1303               	bcf	3,6	;RP1=0, select bank0
  5338     05CA  00BE               	movwf	___flmul@temp+1
  5339     05CB  0873               	movf	?__Umul8_16,w
  5340     05CC  00BD               	movwf	___flmul@temp
  5341     05CD                     l3519:
  5342     05CD  083D               	movf	___flmul@temp,w
  5343     05CE  00AD               	movwf	??___flmul
  5344     05CF  083E               	movf	___flmul@temp+1,w
  5345     05D0  00AE               	movwf	??___flmul+1
  5346     05D1  01AF               	clrf	??___flmul+2
  5347     05D2  01B0               	clrf	??___flmul+3
  5348     05D3  082D               	movf	??___flmul,w
  5349     05D4  07B4               	addwf	___flmul@grs,f
  5350     05D5  082E               	movf	??___flmul+1,w
  5351     05D6  1103               	clrz
  5352     05D7  1803               	skipnc
  5353     05D8  3E01               	addlw	1
  5354     05D9  1903               	skipnz
  5355     05DA  2DDC               	goto	u5321
  5356     05DB  07B5               	addwf	___flmul@grs+1,f
  5357     05DC                     u5321:
  5358     05DC  082F               	movf	??___flmul+2,w
  5359     05DD  1103               	clrz
  5360     05DE  1803               	skipnc
  5361     05DF  3E01               	addlw	1
  5362     05E0  1903               	skipnz
  5363     05E1  2DE3               	goto	u5322
  5364     05E2  07B6               	addwf	___flmul@grs+2,f
  5365     05E3                     u5322:
  5366     05E3  0830               	movf	??___flmul+3,w
  5367     05E4  1103               	clrz
  5368     05E5  1803               	skipnc
  5369     05E6  3E01               	addlw	1
  5370     05E7  1903               	skipnz
  5371     05E8  2DEA               	goto	u5323
  5372     05E9  07B7               	addwf	___flmul@grs+3,f
  5373     05EA                     u5323:
  5374     05EA                     l3521:
  5375     05EA  0825               	movf	___flmul@b,w
  5376     05EB  00F3               	movwf	__Umul8_16@multiplicand
  5377     05EC  082A               	movf	___flmul@a+1,w
  5378     05ED  160A  118A  277F  120A  118A  	fcall	__Umul8_16
  5379     05F2  0874               	movf	?__Umul8_16+1,w
  5380     05F3  1283               	bcf	3,5	;RP0=0, select bank0
  5381     05F4  1303               	bcf	3,6	;RP1=0, select bank0
  5382     05F5  00BE               	movwf	___flmul@temp+1
  5383     05F6  0873               	movf	?__Umul8_16,w
  5384     05F7  00BD               	movwf	___flmul@temp
  5385     05F8                     l3523:
  5386     05F8  083D               	movf	___flmul@temp,w
  5387     05F9  00AD               	movwf	??___flmul
  5388     05FA  083E               	movf	___flmul@temp+1,w
  5389     05FB  00AE               	movwf	??___flmul+1
  5390     05FC  01AF               	clrf	??___flmul+2
  5391     05FD  01B0               	clrf	??___flmul+3
  5392     05FE  082D               	movf	??___flmul,w
  5393     05FF  07B4               	addwf	___flmul@grs,f
  5394     0600  082E               	movf	??___flmul+1,w
  5395     0601  1103               	clrz
  5396     0602  1803               	skipnc
  5397     0603  3E01               	addlw	1
  5398     0604  1903               	skipnz
  5399     0605  2E07               	goto	u5331
  5400     0606  07B5               	addwf	___flmul@grs+1,f
  5401     0607                     u5331:
  5402     0607  082F               	movf	??___flmul+2,w
  5403     0608  1103               	clrz
  5404     0609  1803               	skipnc
  5405     060A  3E01               	addlw	1
  5406     060B  1903               	skipnz
  5407     060C  2E0E               	goto	u5332
  5408     060D  07B6               	addwf	___flmul@grs+2,f
  5409     060E                     u5332:
  5410     060E  0830               	movf	??___flmul+3,w
  5411     060F  1103               	clrz
  5412     0610  1803               	skipnc
  5413     0611  3E01               	addlw	1
  5414     0612  1903               	skipnz
  5415     0613  2E15               	goto	u5333
  5416     0614  07B7               	addwf	___flmul@grs+3,f
  5417     0615                     u5333:
  5418     0615                     l3525:
  5419     0615  3008               	movlw	8
  5420     0616  00AD               	movwf	??___flmul
  5421     0617                     u5345:
  5422     0617  1003               	clrc
  5423     0618  0DB4               	rlf	___flmul@grs,f
  5424     0619  0DB5               	rlf	___flmul@grs+1,f
  5425     061A  0DB6               	rlf	___flmul@grs+2,f
  5426     061B  0DB7               	rlf	___flmul@grs+3,f
  5427     061C  0BAD               	decfsz	??___flmul,f
  5428     061D  2E17               	goto	u5345
  5429     061E  0825               	movf	___flmul@b,w
  5430     061F  00F3               	movwf	__Umul8_16@multiplicand
  5431     0620  0829               	movf	___flmul@a,w
  5432     0621  160A  118A  277F  120A  118A  	fcall	__Umul8_16
  5433     0626  0874               	movf	?__Umul8_16+1,w
  5434     0627  1283               	bcf	3,5	;RP0=0, select bank0
  5435     0628  1303               	bcf	3,6	;RP1=0, select bank0
  5436     0629  00BE               	movwf	___flmul@temp+1
  5437     062A  0873               	movf	?__Umul8_16,w
  5438     062B  00BD               	movwf	___flmul@temp
  5439     062C                     l3527:
  5440     062C  083D               	movf	___flmul@temp,w
  5441     062D  00AD               	movwf	??___flmul
  5442     062E  083E               	movf	___flmul@temp+1,w
  5443     062F  00AE               	movwf	??___flmul+1
  5444     0630  01AF               	clrf	??___flmul+2
  5445     0631  01B0               	clrf	??___flmul+3
  5446     0632  082D               	movf	??___flmul,w
  5447     0633  07B4               	addwf	___flmul@grs,f
  5448     0634  082E               	movf	??___flmul+1,w
  5449     0635  1103               	clrz
  5450     0636  1803               	skipnc
  5451     0637  3E01               	addlw	1
  5452     0638  1903               	skipnz
  5453     0639  2E3B               	goto	u5351
  5454     063A  07B5               	addwf	___flmul@grs+1,f
  5455     063B                     u5351:
  5456     063B  082F               	movf	??___flmul+2,w
  5457     063C  1103               	clrz
  5458     063D  1803               	skipnc
  5459     063E  3E01               	addlw	1
  5460     063F  1903               	skipnz
  5461     0640  2E42               	goto	u5352
  5462     0641  07B6               	addwf	___flmul@grs+2,f
  5463     0642                     u5352:
  5464     0642  0830               	movf	??___flmul+3,w
  5465     0643  1103               	clrz
  5466     0644  1803               	skipnc
  5467     0645  3E01               	addlw	1
  5468     0646  1903               	skipnz
  5469     0647  2E49               	goto	u5353
  5470     0648  07B7               	addwf	___flmul@grs+3,f
  5471     0649                     u5353:
  5472     0649                     l3529:
  5473     0649  0826               	movf	___flmul@b+1,w
  5474     064A  00F3               	movwf	__Umul8_16@multiplicand
  5475     064B  082B               	movf	___flmul@a+2,w
  5476     064C  160A  118A  277F  120A  118A  	fcall	__Umul8_16
  5477     0651  0874               	movf	?__Umul8_16+1,w
  5478     0652  1283               	bcf	3,5	;RP0=0, select bank0
  5479     0653  1303               	bcf	3,6	;RP1=0, select bank0
  5480     0654  00BE               	movwf	___flmul@temp+1
  5481     0655  0873               	movf	?__Umul8_16,w
  5482     0656  00BD               	movwf	___flmul@temp
  5483     0657  083D               	movf	___flmul@temp,w
  5484     0658  00AD               	movwf	??___flmul
  5485     0659  083E               	movf	___flmul@temp+1,w
  5486     065A  00AE               	movwf	??___flmul+1
  5487     065B  01AF               	clrf	??___flmul+2
  5488     065C  01B0               	clrf	??___flmul+3
  5489     065D  082D               	movf	??___flmul,w
  5490     065E  07B9               	addwf	___flmul@prod,f
  5491     065F  082E               	movf	??___flmul+1,w
  5492     0660  1103               	clrz
  5493     0661  1803               	skipnc
  5494     0662  3E01               	addlw	1
  5495     0663  1903               	skipnz
  5496     0664  2E66               	goto	u5361
  5497     0665  07BA               	addwf	___flmul@prod+1,f
  5498     0666                     u5361:
  5499     0666  082F               	movf	??___flmul+2,w
  5500     0667  1103               	clrz
  5501     0668  1803               	skipnc
  5502     0669  3E01               	addlw	1
  5503     066A  1903               	skipnz
  5504     066B  2E6D               	goto	u5362
  5505     066C  07BB               	addwf	___flmul@prod+2,f
  5506     066D                     u5362:
  5507     066D  0830               	movf	??___flmul+3,w
  5508     066E  1103               	clrz
  5509     066F  1803               	skipnc
  5510     0670  3E01               	addlw	1
  5511     0671  1903               	skipnz
  5512     0672  2E74               	goto	u5363
  5513     0673  07BC               	addwf	___flmul@prod+3,f
  5514     0674                     u5363:
  5515     0674                     l3531:
  5516     0674  0827               	movf	___flmul@b+2,w
  5517     0675  00F3               	movwf	__Umul8_16@multiplicand
  5518     0676  082A               	movf	___flmul@a+1,w
  5519     0677  160A  118A  277F  120A  118A  	fcall	__Umul8_16
  5520     067C  0874               	movf	?__Umul8_16+1,w
  5521     067D  1283               	bcf	3,5	;RP0=0, select bank0
  5522     067E  1303               	bcf	3,6	;RP1=0, select bank0
  5523     067F  00BE               	movwf	___flmul@temp+1
  5524     0680  0873               	movf	?__Umul8_16,w
  5525     0681  00BD               	movwf	___flmul@temp
  5526     0682                     l3533:
  5527     0682  083D               	movf	___flmul@temp,w
  5528     0683  00AD               	movwf	??___flmul
  5529     0684  083E               	movf	___flmul@temp+1,w
  5530     0685  00AE               	movwf	??___flmul+1
  5531     0686  01AF               	clrf	??___flmul+2
  5532     0687  01B0               	clrf	??___flmul+3
  5533     0688  082D               	movf	??___flmul,w
  5534     0689  07B9               	addwf	___flmul@prod,f
  5535     068A  082E               	movf	??___flmul+1,w
  5536     068B  1103               	clrz
  5537     068C  1803               	skipnc
  5538     068D  3E01               	addlw	1
  5539     068E  1903               	skipnz
  5540     068F  2E91               	goto	u5371
  5541     0690  07BA               	addwf	___flmul@prod+1,f
  5542     0691                     u5371:
  5543     0691  082F               	movf	??___flmul+2,w
  5544     0692  1103               	clrz
  5545     0693  1803               	skipnc
  5546     0694  3E01               	addlw	1
  5547     0695  1903               	skipnz
  5548     0696  2E98               	goto	u5372
  5549     0697  07BB               	addwf	___flmul@prod+2,f
  5550     0698                     u5372:
  5551     0698  0830               	movf	??___flmul+3,w
  5552     0699  1103               	clrz
  5553     069A  1803               	skipnc
  5554     069B  3E01               	addlw	1
  5555     069C  1903               	skipnz
  5556     069D  2E9F               	goto	u5373
  5557     069E  07BC               	addwf	___flmul@prod+3,f
  5558     069F                     u5373:
  5559     069F  0827               	movf	___flmul@b+2,w
  5560     06A0  00F3               	movwf	__Umul8_16@multiplicand
  5561     06A1  082B               	movf	___flmul@a+2,w
  5562     06A2  160A  118A  277F  120A  118A  	fcall	__Umul8_16
  5563     06A7  0874               	movf	?__Umul8_16+1,w
  5564     06A8  1283               	bcf	3,5	;RP0=0, select bank0
  5565     06A9  1303               	bcf	3,6	;RP1=0, select bank0
  5566     06AA  00BE               	movwf	___flmul@temp+1
  5567     06AB  0873               	movf	?__Umul8_16,w
  5568     06AC  00BD               	movwf	___flmul@temp
  5569     06AD                     l3535:
  5570     06AD  083D               	movf	___flmul@temp,w
  5571     06AE  00AD               	movwf	??___flmul
  5572     06AF  083E               	movf	___flmul@temp+1,w
  5573     06B0  00AE               	movwf	??___flmul+1
  5574     06B1  01AF               	clrf	??___flmul+2
  5575     06B2  01B0               	clrf	??___flmul+3
  5576     06B3  3008               	movlw	8
  5577     06B4                     u5385:
  5578     06B4  1003               	clrc
  5579     06B5  0DAD               	rlf	??___flmul,f
  5580     06B6  0DAE               	rlf	??___flmul+1,f
  5581     06B7  0DAF               	rlf	??___flmul+2,f
  5582     06B8  0DB0               	rlf	??___flmul+3,f
  5583     06B9                     u5380:
  5584     06B9  3EFF               	addlw	-1
  5585     06BA  1D03               	skipz
  5586     06BB  2EB4               	goto	u5385
  5587     06BC  082D               	movf	??___flmul,w
  5588     06BD  07B9               	addwf	___flmul@prod,f
  5589     06BE  082E               	movf	??___flmul+1,w
  5590     06BF  1103               	clrz
  5591     06C0  1803               	skipnc
  5592     06C1  3E01               	addlw	1
  5593     06C2  1903               	skipnz
  5594     06C3  2EC5               	goto	u5391
  5595     06C4  07BA               	addwf	___flmul@prod+1,f
  5596     06C5                     u5391:
  5597     06C5  082F               	movf	??___flmul+2,w
  5598     06C6  1103               	clrz
  5599     06C7  1803               	skipnc
  5600     06C8  3E01               	addlw	1
  5601     06C9  1903               	skipnz
  5602     06CA  2ECC               	goto	u5392
  5603     06CB  07BB               	addwf	___flmul@prod+2,f
  5604     06CC                     u5392:
  5605     06CC  0830               	movf	??___flmul+3,w
  5606     06CD  1103               	clrz
  5607     06CE  1803               	skipnc
  5608     06CF  3E01               	addlw	1
  5609     06D0  1903               	skipnz
  5610     06D1  2ED3               	goto	u5393
  5611     06D2  07BC               	addwf	___flmul@prod+3,f
  5612     06D3                     u5393:
  5613     06D3                     l3537:
  5614     06D3  0834               	movf	___flmul@grs,w
  5615     06D4  00AD               	movwf	??___flmul
  5616     06D5  0835               	movf	___flmul@grs+1,w
  5617     06D6  00AE               	movwf	??___flmul+1
  5618     06D7  0836               	movf	___flmul@grs+2,w
  5619     06D8  00AF               	movwf	??___flmul+2
  5620     06D9  0837               	movf	___flmul@grs+3,w
  5621     06DA  00B0               	movwf	??___flmul+3
  5622     06DB  3018               	movlw	24
  5623     06DC                     u5405:
  5624     06DC  1003               	clrc
  5625     06DD  0CB0               	rrf	??___flmul+3,f
  5626     06DE  0CAF               	rrf	??___flmul+2,f
  5627     06DF  0CAE               	rrf	??___flmul+1,f
  5628     06E0  0CAD               	rrf	??___flmul,f
  5629     06E1                     u5400:
  5630     06E1  3EFF               	addlw	-1
  5631     06E2  1D03               	skipz
  5632     06E3  2EDC               	goto	u5405
  5633     06E4  082D               	movf	??___flmul,w
  5634     06E5  07B9               	addwf	___flmul@prod,f
  5635     06E6  082E               	movf	??___flmul+1,w
  5636     06E7  1103               	clrz
  5637     06E8  1803               	skipnc
  5638     06E9  3E01               	addlw	1
  5639     06EA  1903               	skipnz
  5640     06EB  2EED               	goto	u5411
  5641     06EC  07BA               	addwf	___flmul@prod+1,f
  5642     06ED                     u5411:
  5643     06ED  082F               	movf	??___flmul+2,w
  5644     06EE  1103               	clrz
  5645     06EF  1803               	skipnc
  5646     06F0  3E01               	addlw	1
  5647     06F1  1903               	skipnz
  5648     06F2  2EF4               	goto	u5412
  5649     06F3  07BB               	addwf	___flmul@prod+2,f
  5650     06F4                     u5412:
  5651     06F4  0830               	movf	??___flmul+3,w
  5652     06F5  1103               	clrz
  5653     06F6  1803               	skipnc
  5654     06F7  3E01               	addlw	1
  5655     06F8  1903               	skipnz
  5656     06F9  2EFB               	goto	u5413
  5657     06FA  07BC               	addwf	___flmul@prod+3,f
  5658     06FB                     u5413:
  5659     06FB                     l3539:
  5660     06FB  3008               	movlw	8
  5661     06FC  00AD               	movwf	??___flmul
  5662     06FD                     u5425:
  5663     06FD  1003               	clrc
  5664     06FE  0DB4               	rlf	___flmul@grs,f
  5665     06FF  0DB5               	rlf	___flmul@grs+1,f
  5666     0700  0DB6               	rlf	___flmul@grs+2,f
  5667     0701  0DB7               	rlf	___flmul@grs+3,f
  5668     0702  0BAD               	decfsz	??___flmul,f
  5669     0703  2EFD               	goto	u5425
  5670     0704                     l3541:
  5671     0704  0838               	movf	___flmul@bexp,w
  5672     0705  0733               	addwf	___flmul@aexp,w
  5673     0706  00AD               	movwf	??___flmul
  5674     0707  01AE               	clrf	??___flmul+1
  5675     0708  0DAE               	rlf	??___flmul+1,f
  5676     0709  082D               	movf	??___flmul,w
  5677     070A  3E82               	addlw	130
  5678     070B  00BD               	movwf	___flmul@temp
  5679     070C  082E               	movf	??___flmul+1,w
  5680     070D  1803               	skipnc
  5681     070E  3E01               	addlw	1
  5682     070F  3EFF               	addlw	255
  5683     0710  00BE               	movwf	___flmul@temp+1
  5684     0711  2F2F               	goto	l3553
  5685     0712                     l3543:
  5686     0712  3001               	movlw	1
  5687     0713  00AD               	movwf	??___flmul
  5688     0714                     u5435:
  5689     0714  1003               	clrc
  5690     0715  0DB9               	rlf	___flmul@prod,f
  5691     0716  0DBA               	rlf	___flmul@prod+1,f
  5692     0717  0DBB               	rlf	___flmul@prod+2,f
  5693     0718  0DBC               	rlf	___flmul@prod+3,f
  5694     0719  0BAD               	decfsz	??___flmul,f
  5695     071A  2F14               	goto	u5435
  5696     071B                     l3545:
  5697     071B  1FB7               	btfss	___flmul@grs+3,7
  5698     071C  2F1E               	goto	u5441
  5699     071D  2F1F               	goto	u5440
  5700     071E                     u5441:
  5701     071E  2F20               	goto	l3549
  5702     071F                     u5440:
  5703     071F                     l3547:
  5704     071F  1439               	bsf	___flmul@prod,0
  5705     0720                     l3549:
  5706     0720  3001               	movlw	1
  5707     0721  00AD               	movwf	??___flmul
  5708     0722                     u5455:
  5709     0722  1003               	clrc
  5710     0723  0DB4               	rlf	___flmul@grs,f
  5711     0724  0DB5               	rlf	___flmul@grs+1,f
  5712     0725  0DB6               	rlf	___flmul@grs+2,f
  5713     0726  0DB7               	rlf	___flmul@grs+3,f
  5714     0727  0BAD               	decfsz	??___flmul,f
  5715     0728  2F22               	goto	u5455
  5716     0729                     l3551:
  5717     0729  30FF               	movlw	255
  5718     072A  07BD               	addwf	___flmul@temp,f
  5719     072B  1803               	skipnc
  5720     072C  0ABE               	incf	___flmul@temp+1,f
  5721     072D  30FF               	movlw	255
  5722     072E  07BE               	addwf	___flmul@temp+1,f
  5723     072F                     l3553:
  5724     072F  1FBB               	btfss	___flmul@prod+2,7
  5725     0730  2F32               	goto	u5461
  5726     0731  2F33               	goto	u5460
  5727     0732                     u5461:
  5728     0732  2F12               	goto	l3543
  5729     0733                     u5460:
  5730     0733                     l3555:
  5731     0733  01B3               	clrf	___flmul@aexp
  5732     0734                     l3557:
  5733     0734  1FB7               	btfss	___flmul@grs+3,7
  5734     0735  2F37               	goto	u5471
  5735     0736  2F38               	goto	u5470
  5736     0737                     u5471:
  5737     0737  2F54               	goto	l3565
  5738     0738                     u5470:
  5739     0738                     l3559:
  5740     0738  30FF               	movlw	255
  5741     0739  0534               	andwf	___flmul@grs,w
  5742     073A  00AD               	movwf	??___flmul
  5743     073B  30FF               	movlw	255
  5744     073C  0535               	andwf	___flmul@grs+1,w
  5745     073D  00AE               	movwf	??___flmul+1
  5746     073E  30FF               	movlw	255
  5747     073F  0536               	andwf	___flmul@grs+2,w
  5748     0740  00AF               	movwf	??___flmul+2
  5749     0741  307F               	movlw	127
  5750     0742  0537               	andwf	___flmul@grs+3,w
  5751     0743  00B0               	movwf	??___flmul+3
  5752     0744  0830               	movf	??___flmul+3,w
  5753     0745  042F               	iorwf	??___flmul+2,w
  5754     0746  042E               	iorwf	??___flmul+1,w
  5755     0747  042D               	iorwf	??___flmul,w
  5756     0748  1903               	skipnz
  5757     0749  2F4B               	goto	u5481
  5758     074A  2F4C               	goto	u5480
  5759     074B                     u5481:
  5760     074B  2F4F               	goto	l714
  5761     074C                     u5480:
  5762     074C                     l3561:
  5763     074C  01B3               	clrf	___flmul@aexp
  5764     074D  0AB3               	incf	___flmul@aexp,f
  5765     074E  2F54               	goto	l3565
  5766     074F                     l714:
  5767     074F  1C39               	btfss	___flmul@prod,0
  5768     0750  2F52               	goto	u5491
  5769     0751  2F53               	goto	u5490
  5770     0752                     u5491:
  5771     0752  2F54               	goto	l3565
  5772     0753                     u5490:
  5773     0753  2F4C               	goto	l3561
  5774     0754                     l3565:
  5775     0754  0833               	movf	___flmul@aexp,w
  5776     0755  1903               	btfsc	3,2
  5777     0756  2F58               	goto	u5501
  5778     0757  2F59               	goto	u5500
  5779     0758                     u5501:
  5780     0758  2F8A               	goto	l3575
  5781     0759                     u5500:
  5782     0759                     l3567:
  5783     0759  3001               	movlw	1
  5784     075A  07B9               	addwf	___flmul@prod,f
  5785     075B  3000               	movlw	0
  5786     075C  1803               	skipnc
  5787     075D  3001               	movlw	1
  5788     075E  07BA               	addwf	___flmul@prod+1,f
  5789     075F  3000               	movlw	0
  5790     0760  1803               	skipnc
  5791     0761  3001               	movlw	1
  5792     0762  07BB               	addwf	___flmul@prod+2,f
  5793     0763  3000               	movlw	0
  5794     0764  1803               	skipnc
  5795     0765  3001               	movlw	1
  5796     0766  07BC               	addwf	___flmul@prod+3,f
  5797     0767                     l3569:
  5798     0767  1C3C               	btfss	___flmul@prod+3,0
  5799     0768  2F6A               	goto	u5511
  5800     0769  2F6B               	goto	u5510
  5801     076A                     u5511:
  5802     076A  2F8A               	goto	l3575
  5803     076B                     u5510:
  5804     076B                     l3571:
  5805     076B  0839               	movf	___flmul@prod,w
  5806     076C  00AD               	movwf	??___flmul
  5807     076D  083A               	movf	___flmul@prod+1,w
  5808     076E  00AE               	movwf	??___flmul+1
  5809     076F  083B               	movf	___flmul@prod+2,w
  5810     0770  00AF               	movwf	??___flmul+2
  5811     0771  083C               	movf	___flmul@prod+3,w
  5812     0772  00B0               	movwf	??___flmul+3
  5813     0773  3001               	movlw	1
  5814     0774  00B1               	movwf	??___flmul+4
  5815     0775                     u5525:
  5816     0775  0D30               	rlf	??___flmul+3,w
  5817     0776  0CB0               	rrf	??___flmul+3,f
  5818     0777  0CAF               	rrf	??___flmul+2,f
  5819     0778  0CAE               	rrf	??___flmul+1,f
  5820     0779  0CAD               	rrf	??___flmul,f
  5821     077A                     u5520:
  5822     077A  0BB1               	decfsz	??___flmul+4,f
  5823     077B  2F75               	goto	u5525
  5824     077C  0830               	movf	??___flmul+3,w
  5825     077D  00BC               	movwf	___flmul@prod+3
  5826     077E  082F               	movf	??___flmul+2,w
  5827     077F  00BB               	movwf	___flmul@prod+2
  5828     0780  082E               	movf	??___flmul+1,w
  5829     0781  00BA               	movwf	___flmul@prod+1
  5830     0782  082D               	movf	??___flmul,w
  5831     0783  00B9               	movwf	___flmul@prod
  5832     0784                     l3573:
  5833     0784  3001               	movlw	1
  5834     0785  07BD               	addwf	___flmul@temp,f
  5835     0786  1803               	skipnc
  5836     0787  0ABE               	incf	___flmul@temp+1,f
  5837     0788  3000               	movlw	0
  5838     0789  07BE               	addwf	___flmul@temp+1,f
  5839     078A                     l3575:
  5840     078A  083E               	movf	___flmul@temp+1,w
  5841     078B  3A80               	xorlw	128
  5842     078C  00FF               	movwf	btemp+1
  5843     078D  3080               	movlw	128
  5844     078E  027F               	subwf	btemp+1,w
  5845     078F  1D03               	skipz
  5846     0790  2F93               	goto	u5535
  5847     0791  30FF               	movlw	255
  5848     0792  023D               	subwf	___flmul@temp,w
  5849     0793                     u5535:
  5850     0793  1C03               	skipc
  5851     0794  2F96               	goto	u5531
  5852     0795  2F97               	goto	u5530
  5853     0796                     u5531:
  5854     0796  2FA2               	goto	l3579
  5855     0797                     u5530:
  5856     0797                     l3577:
  5857     0797  307F               	movlw	127
  5858     0798  1283               	bcf	3,5	;RP0=0, select bank0
  5859     0799  1303               	bcf	3,6	;RP1=0, select bank0
  5860     079A  00BC               	movwf	___flmul@prod+3
  5861     079B  3080               	movlw	128
  5862     079C  00BB               	movwf	___flmul@prod+2
  5863     079D  3000               	movlw	0
  5864     079E  00BA               	movwf	___flmul@prod+1
  5865     079F  3000               	movlw	0
  5866     07A0  00B9               	movwf	___flmul@prod
  5867     07A1  2FD3               	goto	l3593
  5868     07A2                     l3579:
  5869     07A2  1283               	bcf	3,5	;RP0=0, select bank0
  5870     07A3  1303               	bcf	3,6	;RP1=0, select bank0
  5871     07A4  083E               	movf	___flmul@temp+1,w
  5872     07A5  3A80               	xorlw	128
  5873     07A6  00FF               	movwf	btemp+1
  5874     07A7  3080               	movlw	128
  5875     07A8  027F               	subwf	btemp+1,w
  5876     07A9  1D03               	skipz
  5877     07AA  2FAD               	goto	u5545
  5878     07AB  3001               	movlw	1
  5879     07AC  023D               	subwf	___flmul@temp,w
  5880     07AD                     u5545:
  5881     07AD  1803               	skipnc
  5882     07AE  2FB0               	goto	u5541
  5883     07AF  2FB1               	goto	u5540
  5884     07B0                     u5541:
  5885     07B0  2FBD               	goto	l3585
  5886     07B1                     u5540:
  5887     07B1                     l3581:
  5888     07B1  3000               	movlw	0
  5889     07B2  1283               	bcf	3,5	;RP0=0, select bank0
  5890     07B3  1303               	bcf	3,6	;RP1=0, select bank0
  5891     07B4  00BC               	movwf	___flmul@prod+3
  5892     07B5  3000               	movlw	0
  5893     07B6  00BB               	movwf	___flmul@prod+2
  5894     07B7  3000               	movlw	0
  5895     07B8  00BA               	movwf	___flmul@prod+1
  5896     07B9  3000               	movlw	0
  5897     07BA  00B9               	movwf	___flmul@prod
  5898     07BB                     l3583:
  5899     07BB  01B2               	clrf	___flmul@sign
  5900     07BC  2FD3               	goto	l3593
  5901     07BD                     l3585:
  5902     07BD  1283               	bcf	3,5	;RP0=0, select bank0
  5903     07BE  1303               	bcf	3,6	;RP1=0, select bank0
  5904     07BF  083D               	movf	___flmul@temp,w
  5905     07C0  00B8               	movwf	___flmul@bexp
  5906     07C1  30FF               	movlw	255
  5907     07C2  05B9               	andwf	___flmul@prod,f
  5908     07C3  30FF               	movlw	255
  5909     07C4  05BA               	andwf	___flmul@prod+1,f
  5910     07C5  307F               	movlw	127
  5911     07C6  05BB               	andwf	___flmul@prod+2,f
  5912     07C7  3000               	movlw	0
  5913     07C8  05BC               	andwf	___flmul@prod+3,f
  5914     07C9                     l3587:
  5915     07C9  1C38               	btfss	___flmul@bexp,0
  5916     07CA  2FCC               	goto	u5551
  5917     07CB  2FCD               	goto	u5550
  5918     07CC                     u5551:
  5919     07CC  2FCE               	goto	l3591
  5920     07CD                     u5550:
  5921     07CD                     l3589:
  5922     07CD  17BB               	bsf	___flmul@prod+2,7
  5923     07CE                     l3591:
  5924     07CE  0838               	movf	___flmul@bexp,w
  5925     07CF  00AD               	movwf	??___flmul
  5926     07D0  1003               	clrc
  5927     07D1  0C2D               	rrf	??___flmul,w
  5928     07D2  00BC               	movwf	___flmul@prod+3
  5929     07D3                     l3593:
  5930     07D3  0832               	movf	___flmul@sign,w
  5931     07D4  00FF               	movwf	btemp+1
  5932     07D5  087F               	movf	btemp+1,w
  5933     07D6  04BC               	iorwf	___flmul@prod+3,f
  5934     07D7                     l3595:
  5935     07D7  083C               	movf	___flmul@prod+3,w
  5936     07D8  00A8               	movwf	?___flmul+3
  5937     07D9  083B               	movf	___flmul@prod+2,w
  5938     07DA  00A7               	movwf	?___flmul+2
  5939     07DB  083A               	movf	___flmul@prod+1,w
  5940     07DC  00A6               	movwf	?___flmul+1
  5941     07DD  0839               	movf	___flmul@prod,w
  5942     07DE  00A5               	movwf	?___flmul
  5943     07DF                     l708:
  5944     07DF  0008               	return
  5945     07E0                     __end_of___flmul:
  5946                           
  5947                           	psect	text16
  5948     177F                     __ptext16:	
  5949 ;; *************** function __Umul8_16 *****************
  5950 ;; Defined at:
  5951 ;;		line 4 in file "C:\Program Files\Microchip\xc8\v2.46\pic\sources\c99\common\Umul8_16.c"
  5952 ;; Parameters:    Size  Location     Type
  5953 ;;  multiplier      1    wreg     unsigned char 
  5954 ;;  multiplicand    1    2[COMMON] unsigned char 
  5955 ;; Auto vars:     Size  Location     Type
  5956 ;;  multiplier      1    4[BANK0 ] unsigned char 
  5957 ;;  word_mpld       2    2[BANK0 ] unsigned short 
  5958 ;;  product         2    0[BANK0 ] unsigned short 
  5959 ;; Return value:  Size  Location     Type
  5960 ;;                  2    2[COMMON] unsigned int 
  5961 ;; Registers used:
  5962 ;;		wreg, status,2, status,0
  5963 ;; Tracked objects:
  5964 ;;		On entry : 0/0
  5965 ;;		On exit  : 0/0
  5966 ;;		Unchanged: 0/0
  5967 ;; Data sizes:     COMMON   BANK0   BANK1   BANK3   BANK2
  5968 ;;      Params:         2       0       0       0       0
  5969 ;;      Locals:         0       5       0       0       0
  5970 ;;      Temps:          2       0       0       0       0
  5971 ;;      Totals:         4       5       0       0       0
  5972 ;;Total ram usage:        9 bytes
  5973 ;; Hardware stack levels used: 1
  5974 ;; Hardware stack levels required when called: 1
  5975 ;; This function calls:
  5976 ;;		Nothing
  5977 ;; This function is called by:
  5978 ;;		___flmul
  5979 ;; This function uses a non-reentrant model
  5980 ;;
  5981                           
  5982     177F                     __Umul8_16:	
  5983                           ;psect for function __Umul8_16
  5984                           
  5985                           
  5986                           ;incstack = 0
  5987                           ; Regs used in __Umul8_16: [wreg+status,2+status,0]
  5988                           ;__Umul8_16@multiplier stored from wreg
  5989     177F  1283               	bcf	3,5	;RP0=0, select bank0
  5990     1780  1303               	bcf	3,6	;RP1=0, select bank0
  5991     1781  00A4               	movwf	__Umul8_16@multiplier
  5992     1782                     l3159:
  5993     1782  01A0               	clrf	__Umul8_16@product
  5994     1783  01A1               	clrf	__Umul8_16@product+1
  5995     1784                     l3161:
  5996     1784  0873               	movf	__Umul8_16@multiplicand,w
  5997     1785  00F5               	movwf	??__Umul8_16
  5998     1786  01F6               	clrf	??__Umul8_16+1
  5999     1787  0875               	movf	??__Umul8_16,w
  6000     1788  00A2               	movwf	__Umul8_16@word_mpld
  6001     1789  0876               	movf	??__Umul8_16+1,w
  6002     178A  00A3               	movwf	__Umul8_16@word_mpld+1
  6003     178B                     l3163:
  6004     178B  1C24               	btfss	__Umul8_16@multiplier,0
  6005     178C  2F8E               	goto	u4591
  6006     178D  2F8F               	goto	u4590
  6007     178E                     u4591:
  6008     178E  2F95               	goto	l727
  6009     178F                     u4590:
  6010     178F                     l3165:
  6011     178F  0822               	movf	__Umul8_16@word_mpld,w
  6012     1790  07A0               	addwf	__Umul8_16@product,f
  6013     1791  1803               	skipnc
  6014     1792  0AA1               	incf	__Umul8_16@product+1,f
  6015     1793  0823               	movf	__Umul8_16@word_mpld+1,w
  6016     1794  07A1               	addwf	__Umul8_16@product+1,f
  6017     1795                     l727:
  6018     1795  3001               	movlw	1
  6019     1796                     u4605:
  6020     1796  1003               	clrc
  6021     1797  0DA2               	rlf	__Umul8_16@word_mpld,f
  6022     1798  0DA3               	rlf	__Umul8_16@word_mpld+1,f
  6023     1799  3EFF               	addlw	-1
  6024     179A  1D03               	skipz
  6025     179B  2F96               	goto	u4605
  6026     179C  1003               	clrc
  6027     179D  0CA4               	rrf	__Umul8_16@multiplier,f
  6028     179E                     l3167:
  6029     179E  0824               	movf	__Umul8_16@multiplier,w
  6030     179F  1D03               	btfss	3,2
  6031     17A0  2FA2               	goto	u4611
  6032     17A1  2FA3               	goto	u4610
  6033     17A2                     u4611:
  6034     17A2  2F8B               	goto	l3163
  6035     17A3                     u4610:
  6036     17A3                     l3169:
  6037     17A3  0821               	movf	__Umul8_16@product+1,w
  6038     17A4  00F4               	movwf	?__Umul8_16+1
  6039     17A5  0820               	movf	__Umul8_16@product,w
  6040     17A6  00F3               	movwf	?__Umul8_16
  6041     17A7                     l729:
  6042     17A7  0008               	return
  6043     17A8                     __end_of__Umul8_16:
  6044                           
  6045                           	psect	text17
  6046     0A4E                     __ptext17:	
  6047 ;; *************** function ___flge *****************
  6048 ;; Defined at:
  6049 ;;		line 4 in file "C:\Program Files\Microchip\xc8\v2.46\pic\sources\c99\common\flge.c"
  6050 ;; Parameters:    Size  Location     Type
  6051 ;;  ff1             4    0[BANK0 ] unsigned int 
  6052 ;;  ff2             4    4[BANK0 ] unsigned int 
  6053 ;; Auto vars:     Size  Location     Type
  6054 ;;		None
  6055 ;; Return value:  Size  Location     Type
  6056 ;;		None               void
  6057 ;; Registers used:
  6058 ;;		wreg, status,2, status,0
  6059 ;; Tracked objects:
  6060 ;;		On entry : 0/0
  6061 ;;		On exit  : 0/0
  6062 ;;		Unchanged: 0/0
  6063 ;; Data sizes:     COMMON   BANK0   BANK1   BANK3   BANK2
  6064 ;;      Params:         0       8       0       0       0
  6065 ;;      Locals:         0       0       0       0       0
  6066 ;;      Temps:          4       0       0       0       0
  6067 ;;      Totals:         4       8       0       0       0
  6068 ;;Total ram usage:       12 bytes
  6069 ;; Hardware stack levels used: 1
  6070 ;; Hardware stack levels required when called: 1
  6071 ;; This function calls:
  6072 ;;		Nothing
  6073 ;; This function is called by:
  6074 ;;		_LCD_Float
  6075 ;; This function uses a non-reentrant model
  6076 ;;
  6077                           
  6078     0A4E                     ___flge:	
  6079                           ;psect for function ___flge
  6080                           
  6081     0A4E                     l3239:	
  6082                           ;incstack = 0
  6083                           ; Regs used in ___flge: [wreg+status,2+status,0]
  6084                           
  6085     0A4E  3000               	movlw	0
  6086     0A4F  1283               	bcf	3,5	;RP0=0, select bank0
  6087     0A50  1303               	bcf	3,6	;RP1=0, select bank0
  6088     0A51  0520               	andwf	___flge@ff1,w
  6089     0A52  00F3               	movwf	??___flge
  6090     0A53  3000               	movlw	0
  6091     0A54  0521               	andwf	___flge@ff1+1,w
  6092     0A55  00F4               	movwf	??___flge+1
  6093     0A56  3080               	movlw	128
  6094     0A57  0522               	andwf	___flge@ff1+2,w
  6095     0A58  00F5               	movwf	??___flge+2
  6096     0A59  307F               	movlw	127
  6097     0A5A  0523               	andwf	___flge@ff1+3,w
  6098     0A5B  00F6               	movwf	??___flge+3
  6099     0A5C  0876               	movf	??___flge+3,w
  6100     0A5D  0475               	iorwf	??___flge+2,w
  6101     0A5E  0474               	iorwf	??___flge+1,w
  6102     0A5F  0473               	iorwf	??___flge,w
  6103     0A60  1D03               	skipz
  6104     0A61  2A63               	goto	u4721
  6105     0A62  2A64               	goto	u4720
  6106     0A63                     u4721:
  6107     0A63  2A6C               	goto	l489
  6108     0A64                     u4720:
  6109     0A64                     l3241:
  6110     0A64  3000               	movlw	0
  6111     0A65  00A3               	movwf	___flge@ff1+3
  6112     0A66  3000               	movlw	0
  6113     0A67  00A2               	movwf	___flge@ff1+2
  6114     0A68  3000               	movlw	0
  6115     0A69  00A1               	movwf	___flge@ff1+1
  6116     0A6A  3000               	movlw	0
  6117     0A6B  00A0               	movwf	___flge@ff1
  6118     0A6C                     l489:
  6119     0A6C  3000               	movlw	0
  6120     0A6D  0524               	andwf	___flge@ff2,w
  6121     0A6E  00F3               	movwf	??___flge
  6122     0A6F  3000               	movlw	0
  6123     0A70  0525               	andwf	___flge@ff2+1,w
  6124     0A71  00F4               	movwf	??___flge+1
  6125     0A72  3080               	movlw	128
  6126     0A73  0526               	andwf	___flge@ff2+2,w
  6127     0A74  00F5               	movwf	??___flge+2
  6128     0A75  307F               	movlw	127
  6129     0A76  0527               	andwf	___flge@ff2+3,w
  6130     0A77  00F6               	movwf	??___flge+3
  6131     0A78  0876               	movf	??___flge+3,w
  6132     0A79  0475               	iorwf	??___flge+2,w
  6133     0A7A  0474               	iorwf	??___flge+1,w
  6134     0A7B  0473               	iorwf	??___flge,w
  6135     0A7C  1D03               	skipz
  6136     0A7D  2A7F               	goto	u4731
  6137     0A7E  2A80               	goto	u4730
  6138     0A7F                     u4731:
  6139     0A7F  2A88               	goto	l3245
  6140     0A80                     u4730:
  6141     0A80                     l3243:
  6142     0A80  3000               	movlw	0
  6143     0A81  00A7               	movwf	___flge@ff2+3
  6144     0A82  3000               	movlw	0
  6145     0A83  00A6               	movwf	___flge@ff2+2
  6146     0A84  3000               	movlw	0
  6147     0A85  00A5               	movwf	___flge@ff2+1
  6148     0A86  3000               	movlw	0
  6149     0A87  00A4               	movwf	___flge@ff2
  6150     0A88                     l3245:
  6151     0A88  1FA3               	btfss	___flge@ff1+3,7
  6152     0A89  2A8B               	goto	u4741
  6153     0A8A  2A8C               	goto	u4740
  6154     0A8B                     u4741:
  6155     0A8B  2AB0               	goto	l3249
  6156     0A8C                     u4740:
  6157     0A8C                     l3247:
  6158     0A8C  3000               	movlw	0
  6159     0A8D  00F3               	movwf	??___flge
  6160     0A8E  3000               	movlw	0
  6161     0A8F  00F4               	movwf	??___flge+1
  6162     0A90  3000               	movlw	0
  6163     0A91  00F5               	movwf	??___flge+2
  6164     0A92  3080               	movlw	128
  6165     0A93  00F6               	movwf	??___flge+3
  6166     0A94  0820               	movf	___flge@ff1,w
  6167     0A95  02F3               	subwf	??___flge,f
  6168     0A96  0821               	movf	___flge@ff1+1,w
  6169     0A97  1C03               	skipc
  6170     0A98  0F21               	incfsz	___flge@ff1+1,w
  6171     0A99  2A9B               	goto	u4751
  6172     0A9A  2A9C               	goto	u4752
  6173     0A9B                     u4751:
  6174     0A9B  02F4               	subwf	??___flge+1,f
  6175     0A9C                     u4752:
  6176     0A9C  0822               	movf	___flge@ff1+2,w
  6177     0A9D  1C03               	skipc
  6178     0A9E  0F22               	incfsz	___flge@ff1+2,w
  6179     0A9F  2AA1               	goto	u4753
  6180     0AA0  2AA2               	goto	u4754
  6181     0AA1                     u4753:
  6182     0AA1  02F5               	subwf	??___flge+2,f
  6183     0AA2                     u4754:
  6184     0AA2  0823               	movf	___flge@ff1+3,w
  6185     0AA3  1C03               	skipc
  6186     0AA4  0F23               	incfsz	___flge@ff1+3,w
  6187     0AA5  2AA7               	goto	u4755
  6188     0AA6  2AA8               	goto	u4756
  6189     0AA7                     u4755:
  6190     0AA7  02F6               	subwf	??___flge+3,f
  6191     0AA8                     u4756:
  6192     0AA8  0876               	movf	??___flge+3,w
  6193     0AA9  00A3               	movwf	___flge@ff1+3
  6194     0AAA  0875               	movf	??___flge+2,w
  6195     0AAB  00A2               	movwf	___flge@ff1+2
  6196     0AAC  0874               	movf	??___flge+1,w
  6197     0AAD  00A1               	movwf	___flge@ff1+1
  6198     0AAE  0873               	movf	??___flge,w
  6199     0AAF  00A0               	movwf	___flge@ff1
  6200     0AB0                     l3249:
  6201     0AB0  1FA7               	btfss	___flge@ff2+3,7
  6202     0AB1  2AB3               	goto	u4761
  6203     0AB2  2AB4               	goto	u4760
  6204     0AB3                     u4761:
  6205     0AB3  2AD8               	goto	l492
  6206     0AB4                     u4760:
  6207     0AB4                     l3251:
  6208     0AB4  3000               	movlw	0
  6209     0AB5  00F3               	movwf	??___flge
  6210     0AB6  3000               	movlw	0
  6211     0AB7  00F4               	movwf	??___flge+1
  6212     0AB8  3000               	movlw	0
  6213     0AB9  00F5               	movwf	??___flge+2
  6214     0ABA  3080               	movlw	128
  6215     0ABB  00F6               	movwf	??___flge+3
  6216     0ABC  0824               	movf	___flge@ff2,w
  6217     0ABD  02F3               	subwf	??___flge,f
  6218     0ABE  0825               	movf	___flge@ff2+1,w
  6219     0ABF  1C03               	skipc
  6220     0AC0  0F25               	incfsz	___flge@ff2+1,w
  6221     0AC1  2AC3               	goto	u4771
  6222     0AC2  2AC4               	goto	u4772
  6223     0AC3                     u4771:
  6224     0AC3  02F4               	subwf	??___flge+1,f
  6225     0AC4                     u4772:
  6226     0AC4  0826               	movf	___flge@ff2+2,w
  6227     0AC5  1C03               	skipc
  6228     0AC6  0F26               	incfsz	___flge@ff2+2,w
  6229     0AC7  2AC9               	goto	u4773
  6230     0AC8  2ACA               	goto	u4774
  6231     0AC9                     u4773:
  6232     0AC9  02F5               	subwf	??___flge+2,f
  6233     0ACA                     u4774:
  6234     0ACA  0827               	movf	___flge@ff2+3,w
  6235     0ACB  1C03               	skipc
  6236     0ACC  0F27               	incfsz	___flge@ff2+3,w
  6237     0ACD  2ACF               	goto	u4775
  6238     0ACE  2AD0               	goto	u4776
  6239     0ACF                     u4775:
  6240     0ACF  02F6               	subwf	??___flge+3,f
  6241     0AD0                     u4776:
  6242     0AD0  0876               	movf	??___flge+3,w
  6243     0AD1  00A7               	movwf	___flge@ff2+3
  6244     0AD2  0875               	movf	??___flge+2,w
  6245     0AD3  00A6               	movwf	___flge@ff2+2
  6246     0AD4  0874               	movf	??___flge+1,w
  6247     0AD5  00A5               	movwf	___flge@ff2+1
  6248     0AD6  0873               	movf	??___flge,w
  6249     0AD7  00A4               	movwf	___flge@ff2
  6250     0AD8                     l492:
  6251     0AD8  3080               	movlw	128
  6252     0AD9  06A3               	xorwf	___flge@ff1+3,f
  6253     0ADA  3080               	movlw	128
  6254     0ADB  06A7               	xorwf	___flge@ff2+3,f
  6255     0ADC  0827               	movf	___flge@ff2+3,w
  6256     0ADD  0223               	subwf	___flge@ff1+3,w
  6257     0ADE  1D03               	skipz
  6258     0ADF  2AEA               	goto	u4785
  6259     0AE0  0826               	movf	___flge@ff2+2,w
  6260     0AE1  0222               	subwf	___flge@ff1+2,w
  6261     0AE2  1D03               	skipz
  6262     0AE3  2AEA               	goto	u4785
  6263     0AE4  0825               	movf	___flge@ff2+1,w
  6264     0AE5  0221               	subwf	___flge@ff1+1,w
  6265     0AE6  1D03               	skipz
  6266     0AE7  2AEA               	goto	u4785
  6267     0AE8  0824               	movf	___flge@ff2,w
  6268     0AE9  0220               	subwf	___flge@ff1,w
  6269     0AEA                     u4785:
  6270     0AEA  1803               	skipnc
  6271     0AEB  2AED               	goto	u4781
  6272     0AEC  2AEE               	goto	u4780
  6273     0AED                     u4781:
  6274     0AED  2AF0               	goto	l3255
  6275     0AEE                     u4780:
  6276     0AEE                     l3253:
  6277     0AEE  1003               	clrc
  6278     0AEF  2AF1               	goto	l497
  6279     0AF0                     l3255:
  6280     0AF0  1403               	setc
  6281     0AF1                     l497:
  6282     0AF1  0008               	return
  6283     0AF2                     __end_of___flge:
  6284                           
  6285                           	psect	text18
  6286     0AF2                     __ptext18:	
  6287 ;; *************** function _LCD_Int *****************
  6288 ;; Defined at:
  6289 ;;		line 139 in file "lcd_msd.c"
  6290 ;; Parameters:    Size  Location     Type
  6291 ;;  value           4   34[BANK0 ] unsigned long 
  6292 ;;  positions       1   38[BANK0 ] unsigned char 
  6293 ;;  zeros           1   39[BANK0 ] unsigned char 
  6294 ;; Auto vars:     Size  Location     Type
  6295 ;;  buf             8   42[BANK0 ] unsigned char [8]
  6296 ;;  i               2   50[BANK0 ] unsigned short 
  6297 ;; Return value:  Size  Location     Type
  6298 ;;                  1    wreg      void 
  6299 ;; Registers used:
  6300 ;;		wreg, fsr0l, fsr0h, status,2, status,0, btemp+1, pclath, cstack
  6301 ;; Tracked objects:
  6302 ;;		On entry : 0/0
  6303 ;;		On exit  : 0/0
  6304 ;;		Unchanged: 0/0
  6305 ;; Data sizes:     COMMON   BANK0   BANK1   BANK3   BANK2
  6306 ;;      Params:         0       6       0       0       0
  6307 ;;      Locals:         0      10       0       0       0
  6308 ;;      Temps:          0       2       0       0       0
  6309 ;;      Totals:         0      18       0       0       0
  6310 ;;Total ram usage:       18 bytes
  6311 ;; Hardware stack levels used: 1
  6312 ;; Hardware stack levels required when called: 3
  6313 ;; This function calls:
  6314 ;;		_LCD_Write
  6315 ;;		___lldiv
  6316 ;;		___llmod
  6317 ;; This function is called by:
  6318 ;;		_LCD_Float
  6319 ;; This function uses a non-reentrant model
  6320 ;;
  6321                           
  6322     0AF2                     _LCD_Int:	
  6323                           ;psect for function _LCD_Int
  6324                           
  6325     0AF2                     l3177:	
  6326                           ;incstack = 0
  6327                           ; Regs used in _LCD_Int: [wreg-fsr0h+status,2+status,0+btemp+1+pclath+cstack]
  6328                           
  6329                           
  6330                           ;lcd_msd.c: 140:     uint16_t i;;lcd_msd.c: 141:     uint8_t buf[8];;lcd_msd.c: 143:    
      +                           for (i = 0; i < positions; i++)
  6331     0AF2  1283               	bcf	3,5	;RP0=0, select bank0
  6332     0AF3  1303               	bcf	3,6	;RP1=0, select bank0
  6333     0AF4  01D2               	clrf	LCD_Int@i
  6334     0AF5  01D3               	clrf	LCD_Int@i+1
  6335     0AF6  2B41               	goto	l3185
  6336     0AF7                     l3179:
  6337                           
  6338                           ;lcd_msd.c: 144:     {;lcd_msd.c: 145:         buf[positions - 1 - i] = (value % 10) + 0
      +                          x30;
  6339     0AF7  304A               	movlw	(low (LCD_Int@buf| 0))& (0+255)
  6340     0AF8  00C8               	movwf	??_LCD_Int
  6341     0AF9  0852               	movf	LCD_Int@i,w
  6342     0AFA  02C8               	subwf	??_LCD_Int,f
  6343     0AFB  0846               	movf	LCD_Int@positions,w
  6344     0AFC  0748               	addwf	??_LCD_Int,w
  6345     0AFD  00C9               	movwf	??_LCD_Int+1
  6346     0AFE  0849               	movf	??_LCD_Int+1,w
  6347     0AFF  3EFF               	addlw	255
  6348     0B00  0084               	movwf	4
  6349     0B01  3000               	movlw	0
  6350     0B02  00A3               	movwf	___llmod@divisor+3
  6351     0B03  3000               	movlw	0
  6352     0B04  00A2               	movwf	___llmod@divisor+2
  6353     0B05  3000               	movlw	0
  6354     0B06  00A1               	movwf	___llmod@divisor+1
  6355     0B07  300A               	movlw	10
  6356     0B08  00A0               	movwf	___llmod@divisor
  6357     0B09  0845               	movf	LCD_Int@value+3,w
  6358     0B0A  00A7               	movwf	___llmod@dividend+3
  6359     0B0B  0844               	movf	LCD_Int@value+2,w
  6360     0B0C  00A6               	movwf	___llmod@dividend+2
  6361     0B0D  0843               	movf	LCD_Int@value+1,w
  6362     0B0E  00A5               	movwf	___llmod@dividend+1
  6363     0B0F  0842               	movf	LCD_Int@value,w
  6364     0B10  00A4               	movwf	___llmod@dividend
  6365     0B11  120A  158A  2024  120A  158A  	fcall	___llmod
  6366     0B16  1283               	bcf	3,5	;RP0=0, select bank0
  6367     0B17  1303               	bcf	3,6	;RP1=0, select bank0
  6368     0B18  0820               	movf	?___llmod,w
  6369     0B19  3E30               	addlw	48
  6370     0B1A  1383               	bcf	3,7	;select IRP bank0
  6371     0B1B  0080               	movwf	0
  6372     0B1C                     l3181:
  6373                           
  6374                           ;lcd_msd.c: 146:         value = value / 10;
  6375     0B1C  3000               	movlw	0
  6376     0B1D  00A3               	movwf	___lldiv@divisor+3
  6377     0B1E  3000               	movlw	0
  6378     0B1F  00A2               	movwf	___lldiv@divisor+2
  6379     0B20  3000               	movlw	0
  6380     0B21  00A1               	movwf	___lldiv@divisor+1
  6381     0B22  300A               	movlw	10
  6382     0B23  00A0               	movwf	___lldiv@divisor
  6383     0B24  0845               	movf	LCD_Int@value+3,w
  6384     0B25  00A7               	movwf	___lldiv@dividend+3
  6385     0B26  0844               	movf	LCD_Int@value+2,w
  6386     0B27  00A6               	movwf	___lldiv@dividend+2
  6387     0B28  0843               	movf	LCD_Int@value+1,w
  6388     0B29  00A5               	movwf	___lldiv@dividend+1
  6389     0B2A  0842               	movf	LCD_Int@value,w
  6390     0B2B  00A4               	movwf	___lldiv@dividend
  6391     0B2C  120A  158A  207A  120A  158A  	fcall	___lldiv
  6392     0B31  1283               	bcf	3,5	;RP0=0, select bank0
  6393     0B32  1303               	bcf	3,6	;RP1=0, select bank0
  6394     0B33  0823               	movf	?___lldiv+3,w
  6395     0B34  00C5               	movwf	LCD_Int@value+3
  6396     0B35  0822               	movf	?___lldiv+2,w
  6397     0B36  00C4               	movwf	LCD_Int@value+2
  6398     0B37  0821               	movf	?___lldiv+1,w
  6399     0B38  00C3               	movwf	LCD_Int@value+1
  6400     0B39  0820               	movf	?___lldiv,w
  6401     0B3A  00C2               	movwf	LCD_Int@value
  6402     0B3B                     l3183:
  6403                           
  6404                           ;lcd_msd.c: 147:     }
  6405     0B3B  3001               	movlw	1
  6406     0B3C  07D2               	addwf	LCD_Int@i,f
  6407     0B3D  1803               	skipnc
  6408     0B3E  0AD3               	incf	LCD_Int@i+1,f
  6409     0B3F  3000               	movlw	0
  6410     0B40  07D3               	addwf	LCD_Int@i+1,f
  6411     0B41                     l3185:
  6412     0B41  0846               	movf	LCD_Int@positions,w
  6413     0B42  00C8               	movwf	??_LCD_Int
  6414     0B43  01C9               	clrf	??_LCD_Int+1
  6415     0B44  0849               	movf	??_LCD_Int+1,w
  6416     0B45  0253               	subwf	LCD_Int@i+1,w
  6417     0B46  1D03               	skipz
  6418     0B47  2B4A               	goto	u4625
  6419     0B48  0848               	movf	??_LCD_Int,w
  6420     0B49  0252               	subwf	LCD_Int@i,w
  6421     0B4A                     u4625:
  6422     0B4A  1C03               	skipc
  6423     0B4B  2B4D               	goto	u4621
  6424     0B4C  2B4E               	goto	u4620
  6425     0B4D                     u4621:
  6426     0B4D  2AF7               	goto	l3179
  6427     0B4E                     u4620:
  6428     0B4E                     l3187:
  6429                           
  6430                           ;lcd_msd.c: 149:     for (i = 0; i < positions - 1; i++)
  6431     0B4E  01D2               	clrf	LCD_Int@i
  6432     0B4F  01D3               	clrf	LCD_Int@i+1
  6433     0B50  2B6D               	goto	l3199
  6434     0B51                     l3189:
  6435                           
  6436                           ;lcd_msd.c: 150:     {;lcd_msd.c: 151:         if (zeros && (buf[i] == 0x30))
  6437     0B51  0847               	movf	LCD_Int@zeros,w
  6438     0B52  1903               	btfsc	3,2
  6439     0B53  2B55               	goto	u4631
  6440     0B54  2B56               	goto	u4630
  6441     0B55                     u4631:
  6442     0B55  2B66               	goto	l3195
  6443     0B56                     u4630:
  6444     0B56                     l3191:
  6445     0B56  0852               	movf	LCD_Int@i,w
  6446     0B57  3E4A               	addlw	(low (LCD_Int@buf| 0))& (0+255)
  6447     0B58  0084               	movwf	4
  6448     0B59  3030               	movlw	48
  6449     0B5A  1383               	bcf	3,7	;select IRP bank0
  6450     0B5B  0600               	xorwf	0,w
  6451     0B5C  1D03               	btfss	3,2
  6452     0B5D  2B5F               	goto	u4641
  6453     0B5E  2B60               	goto	u4640
  6454     0B5F                     u4641:
  6455     0B5F  2B66               	goto	l3195
  6456     0B60                     u4640:
  6457     0B60                     l3193:
  6458                           
  6459                           ;lcd_msd.c: 152:             buf[i] = 0x20;
  6460     0B60  0852               	movf	LCD_Int@i,w
  6461     0B61  3E4A               	addlw	(low (LCD_Int@buf| 0))& (0+255)
  6462     0B62  0084               	movwf	4
  6463     0B63  3020               	movlw	32
  6464     0B64  0080               	movwf	0
  6465     0B65  2B67               	goto	l3197
  6466     0B66                     l3195:
  6467                           
  6468                           ;lcd_msd.c: 154:             zeros = 0;
  6469     0B66  01C7               	clrf	LCD_Int@zeros
  6470     0B67                     l3197:
  6471                           
  6472                           ;lcd_msd.c: 155:     }
  6473     0B67  3001               	movlw	1
  6474     0B68  07D2               	addwf	LCD_Int@i,f
  6475     0B69  1803               	skipnc
  6476     0B6A  0AD3               	incf	LCD_Int@i+1,f
  6477     0B6B  3000               	movlw	0
  6478     0B6C  07D3               	addwf	LCD_Int@i+1,f
  6479     0B6D                     l3199:
  6480     0B6D  0846               	movf	LCD_Int@positions,w
  6481     0B6E  3EFF               	addlw	255
  6482     0B6F  00C8               	movwf	??_LCD_Int
  6483     0B70  30FF               	movlw	255
  6484     0B71  1803               	skipnc
  6485     0B72  3000               	movlw	0
  6486     0B73  00C9               	movwf	??_LCD_Int+1
  6487     0B74  0849               	movf	??_LCD_Int+1,w
  6488     0B75  0253               	subwf	LCD_Int@i+1,w
  6489     0B76  1D03               	skipz
  6490     0B77  2B7A               	goto	u4655
  6491     0B78  0848               	movf	??_LCD_Int,w
  6492     0B79  0252               	subwf	LCD_Int@i,w
  6493     0B7A                     u4655:
  6494     0B7A  1C03               	skipc
  6495     0B7B  2B7D               	goto	u4651
  6496     0B7C  2B7E               	goto	u4650
  6497     0B7D                     u4651:
  6498     0B7D  2B51               	goto	l3189
  6499     0B7E                     u4650:
  6500     0B7E                     l3201:
  6501                           
  6502                           ;lcd_msd.c: 157:     for (i = 0; i < positions; i++)
  6503     0B7E  01D2               	clrf	LCD_Int@i
  6504     0B7F  01D3               	clrf	LCD_Int@i+1
  6505     0B80  2B95               	goto	l3207
  6506     0B81                     l3203:
  6507                           
  6508                           ;lcd_msd.c: 158:         LCD_Write(buf[i], 1);
  6509     0B81  01F7               	clrf	LCD_Write@RS
  6510     0B82  0AF7               	incf	LCD_Write@RS,f
  6511     0B83  0852               	movf	LCD_Int@i,w
  6512     0B84  3E4A               	addlw	(low (LCD_Int@buf| 0))& (0+255)
  6513     0B85  0084               	movwf	4
  6514     0B86  1383               	bcf	3,7	;select IRP bank0
  6515     0B87  0800               	movf	0,w
  6516     0B88  120A  158A  20E2  120A  158A  	fcall	_LCD_Write
  6517     0B8D                     l3205:
  6518     0B8D  3001               	movlw	1
  6519     0B8E  1283               	bcf	3,5	;RP0=0, select bank0
  6520     0B8F  1303               	bcf	3,6	;RP1=0, select bank0
  6521     0B90  07D2               	addwf	LCD_Int@i,f
  6522     0B91  1803               	skipnc
  6523     0B92  0AD3               	incf	LCD_Int@i+1,f
  6524     0B93  3000               	movlw	0
  6525     0B94  07D3               	addwf	LCD_Int@i+1,f
  6526     0B95                     l3207:
  6527     0B95  0846               	movf	LCD_Int@positions,w
  6528     0B96  00C8               	movwf	??_LCD_Int
  6529     0B97  01C9               	clrf	??_LCD_Int+1
  6530     0B98  0849               	movf	??_LCD_Int+1,w
  6531     0B99  0253               	subwf	LCD_Int@i+1,w
  6532     0B9A  1D03               	skipz
  6533     0B9B  2B9E               	goto	u4665
  6534     0B9C  0848               	movf	??_LCD_Int,w
  6535     0B9D  0252               	subwf	LCD_Int@i,w
  6536     0B9E                     u4665:
  6537     0B9E  1C03               	skipc
  6538     0B9F  2BA1               	goto	u4661
  6539     0BA0  2BA2               	goto	u4660
  6540     0BA1                     u4661:
  6541     0BA1  2B81               	goto	l3203
  6542     0BA2                     u4660:
  6543     0BA2                     l153:
  6544     0BA2  0008               	return
  6545     0BA3                     __end_of_LCD_Int:
  6546                           
  6547                           	psect	text19
  6548     0824                     __ptext19:	
  6549 ;; *************** function ___llmod *****************
  6550 ;; Defined at:
  6551 ;;		line 5 in file "C:\Program Files\Microchip\xc8\v2.46\pic\sources\c99\common\llmod.c"
  6552 ;; Parameters:    Size  Location     Type
  6553 ;;  divisor         4    0[BANK0 ] unsigned long 
  6554 ;;  dividend        4    4[BANK0 ] unsigned long 
  6555 ;; Auto vars:     Size  Location     Type
  6556 ;;  counter         1    3[COMMON] unsigned char 
  6557 ;; Return value:  Size  Location     Type
  6558 ;;                  4    0[BANK0 ] unsigned long 
  6559 ;; Registers used:
  6560 ;;		wreg, status,2, status,0, btemp+1
  6561 ;; Tracked objects:
  6562 ;;		On entry : 0/0
  6563 ;;		On exit  : 0/0
  6564 ;;		Unchanged: 0/0
  6565 ;; Data sizes:     COMMON   BANK0   BANK1   BANK3   BANK2
  6566 ;;      Params:         0       8       0       0       0
  6567 ;;      Locals:         1       0       0       0       0
  6568 ;;      Temps:          1       0       0       0       0
  6569 ;;      Totals:         2       8       0       0       0
  6570 ;;Total ram usage:       10 bytes
  6571 ;; Hardware stack levels used: 1
  6572 ;; Hardware stack levels required when called: 1
  6573 ;; This function calls:
  6574 ;;		Nothing
  6575 ;; This function is called by:
  6576 ;;		_main
  6577 ;;		_LCD_Int
  6578 ;; This function uses a non-reentrant model
  6579 ;;
  6580                           
  6581     0824                     ___llmod:	
  6582                           ;psect for function ___llmod
  6583                           
  6584     0824                     l2937:	
  6585                           ;incstack = 0
  6586                           ; Regs used in ___llmod: [wreg+status,2+status,0+btemp+1]
  6587                           
  6588     0824  1283               	bcf	3,5	;RP0=0, select bank0
  6589     0825  1303               	bcf	3,6	;RP1=0, select bank0
  6590     0826  0823               	movf	___llmod@divisor+3,w
  6591     0827  0422               	iorwf	___llmod@divisor+2,w
  6592     0828  0421               	iorwf	___llmod@divisor+1,w
  6593     0829  0420               	iorwf	___llmod@divisor,w
  6594     082A  1903               	skipnz
  6595     082B  282D               	goto	u4071
  6596     082C  282E               	goto	u4070
  6597     082D                     u4071:
  6598     082D  2871               	goto	l2955
  6599     082E                     u4070:
  6600     082E                     l2939:
  6601     082E  01F4               	clrf	___llmod@counter
  6602     082F  0AF4               	incf	___llmod@counter,f
  6603     0830  283E               	goto	l2945
  6604     0831                     l2941:
  6605     0831  3001               	movlw	1
  6606     0832  00F3               	movwf	??___llmod
  6607     0833                     u4085:
  6608     0833  1003               	clrc
  6609     0834  0DA0               	rlf	___llmod@divisor,f
  6610     0835  0DA1               	rlf	___llmod@divisor+1,f
  6611     0836  0DA2               	rlf	___llmod@divisor+2,f
  6612     0837  0DA3               	rlf	___llmod@divisor+3,f
  6613     0838  0BF3               	decfsz	??___llmod,f
  6614     0839  2833               	goto	u4085
  6615     083A                     l2943:
  6616     083A  3001               	movlw	1
  6617     083B  00FF               	movwf	btemp+1
  6618     083C  087F               	movf	btemp+1,w
  6619     083D  07F4               	addwf	___llmod@counter,f
  6620     083E                     l2945:
  6621     083E  1FA3               	btfss	___llmod@divisor+3,7
  6622     083F  2841               	goto	u4091
  6623     0840  2842               	goto	u4090
  6624     0841                     u4091:
  6625     0841  2831               	goto	l2941
  6626     0842                     u4090:
  6627     0842                     l2947:
  6628     0842  0823               	movf	___llmod@divisor+3,w
  6629     0843  0227               	subwf	___llmod@dividend+3,w
  6630     0844  1D03               	skipz
  6631     0845  2850               	goto	u4105
  6632     0846  0822               	movf	___llmod@divisor+2,w
  6633     0847  0226               	subwf	___llmod@dividend+2,w
  6634     0848  1D03               	skipz
  6635     0849  2850               	goto	u4105
  6636     084A  0821               	movf	___llmod@divisor+1,w
  6637     084B  0225               	subwf	___llmod@dividend+1,w
  6638     084C  1D03               	skipz
  6639     084D  2850               	goto	u4105
  6640     084E  0820               	movf	___llmod@divisor,w
  6641     084F  0224               	subwf	___llmod@dividend,w
  6642     0850                     u4105:
  6643     0850  1C03               	skipc
  6644     0851  2853               	goto	u4101
  6645     0852  2854               	goto	u4100
  6646     0853                     u4101:
  6647     0853  2862               	goto	l2951
  6648     0854                     u4100:
  6649     0854                     l2949:
  6650     0854  0820               	movf	___llmod@divisor,w
  6651     0855  02A4               	subwf	___llmod@dividend,f
  6652     0856  0821               	movf	___llmod@divisor+1,w
  6653     0857  1C03               	skipc
  6654     0858  0F21               	incfsz	___llmod@divisor+1,w
  6655     0859  02A5               	subwf	___llmod@dividend+1,f
  6656     085A  0822               	movf	___llmod@divisor+2,w
  6657     085B  1C03               	skipc
  6658     085C  0F22               	incfsz	___llmod@divisor+2,w
  6659     085D  02A6               	subwf	___llmod@dividend+2,f
  6660     085E  0823               	movf	___llmod@divisor+3,w
  6661     085F  1C03               	skipc
  6662     0860  0F23               	incfsz	___llmod@divisor+3,w
  6663     0861  02A7               	subwf	___llmod@dividend+3,f
  6664     0862                     l2951:
  6665     0862  3001               	movlw	1
  6666     0863                     u4115:
  6667     0863  1003               	clrc
  6668     0864  0CA3               	rrf	___llmod@divisor+3,f
  6669     0865  0CA2               	rrf	___llmod@divisor+2,f
  6670     0866  0CA1               	rrf	___llmod@divisor+1,f
  6671     0867  0CA0               	rrf	___llmod@divisor,f
  6672     0868  3EFF               	addlw	-1
  6673     0869  1D03               	skipz
  6674     086A  2863               	goto	u4115
  6675     086B                     l2953:
  6676     086B  3001               	movlw	1
  6677     086C  02F4               	subwf	___llmod@counter,f
  6678     086D  1D03               	btfss	3,2
  6679     086E  2870               	goto	u4121
  6680     086F  2871               	goto	u4120
  6681     0870                     u4121:
  6682     0870  2842               	goto	l2947
  6683     0871                     u4120:
  6684     0871                     l2955:
  6685     0871  0827               	movf	___llmod@dividend+3,w
  6686     0872  00A3               	movwf	?___llmod+3
  6687     0873  0826               	movf	___llmod@dividend+2,w
  6688     0874  00A2               	movwf	?___llmod+2
  6689     0875  0825               	movf	___llmod@dividend+1,w
  6690     0876  00A1               	movwf	?___llmod+1
  6691     0877  0824               	movf	___llmod@dividend,w
  6692     0878  00A0               	movwf	?___llmod
  6693     0879                     l541:
  6694     0879  0008               	return
  6695     087A                     __end_of___llmod:
  6696                           
  6697                           	psect	text20
  6698     087A                     __ptext20:	
  6699 ;; *************** function ___lldiv *****************
  6700 ;; Defined at:
  6701 ;;		line 5 in file "C:\Program Files\Microchip\xc8\v2.46\pic\sources\c99\common\__lldiv.c"
  6702 ;; Parameters:    Size  Location     Type
  6703 ;;  divisor         4    0[BANK0 ] unsigned long 
  6704 ;;  dividend        4    4[BANK0 ] unsigned long 
  6705 ;; Auto vars:     Size  Location     Type
  6706 ;;  quotient        4    3[COMMON] unsigned long 
  6707 ;;  counter         1    7[COMMON] unsigned char 
  6708 ;; Return value:  Size  Location     Type
  6709 ;;                  4    0[BANK0 ] unsigned long 
  6710 ;; Registers used:
  6711 ;;		wreg, status,2, status,0, btemp+1
  6712 ;; Tracked objects:
  6713 ;;		On entry : 0/0
  6714 ;;		On exit  : 0/0
  6715 ;;		Unchanged: 0/0
  6716 ;; Data sizes:     COMMON   BANK0   BANK1   BANK3   BANK2
  6717 ;;      Params:         0       8       0       0       0
  6718 ;;      Locals:         5       0       0       0       0
  6719 ;;      Temps:          1       0       0       0       0
  6720 ;;      Totals:         6       8       0       0       0
  6721 ;;Total ram usage:       14 bytes
  6722 ;; Hardware stack levels used: 1
  6723 ;; Hardware stack levels required when called: 1
  6724 ;; This function calls:
  6725 ;;		Nothing
  6726 ;; This function is called by:
  6727 ;;		_LCD_Int
  6728 ;; This function uses a non-reentrant model
  6729 ;;
  6730                           
  6731     087A                     ___lldiv:	
  6732                           ;psect for function ___lldiv
  6733                           
  6734     087A                     l2911:	
  6735                           ;incstack = 0
  6736                           ; Regs used in ___lldiv: [wreg+status,2+status,0+btemp+1]
  6737                           
  6738     087A  3000               	movlw	0
  6739     087B  00F7               	movwf	___lldiv@quotient+3
  6740     087C  3000               	movlw	0
  6741     087D  00F6               	movwf	___lldiv@quotient+2
  6742     087E  3000               	movlw	0
  6743     087F  00F5               	movwf	___lldiv@quotient+1
  6744     0880  3000               	movlw	0
  6745     0881  00F4               	movwf	___lldiv@quotient
  6746     0882  1283               	bcf	3,5	;RP0=0, select bank0
  6747     0883  1303               	bcf	3,6	;RP1=0, select bank0
  6748     0884  0823               	movf	___lldiv@divisor+3,w
  6749     0885  0422               	iorwf	___lldiv@divisor+2,w
  6750     0886  0421               	iorwf	___lldiv@divisor+1,w
  6751     0887  0420               	iorwf	___lldiv@divisor,w
  6752     0888  1903               	skipnz
  6753     0889  288B               	goto	u4001
  6754     088A  288C               	goto	u4000
  6755     088B                     u4001:
  6756     088B  28D9               	goto	l2933
  6757     088C                     u4000:
  6758     088C                     l2913:
  6759     088C  01F8               	clrf	___lldiv@counter
  6760     088D  0AF8               	incf	___lldiv@counter,f
  6761     088E  289C               	goto	l2919
  6762     088F                     l2915:
  6763     088F  3001               	movlw	1
  6764     0890  00F3               	movwf	??___lldiv
  6765     0891                     u4015:
  6766     0891  1003               	clrc
  6767     0892  0DA0               	rlf	___lldiv@divisor,f
  6768     0893  0DA1               	rlf	___lldiv@divisor+1,f
  6769     0894  0DA2               	rlf	___lldiv@divisor+2,f
  6770     0895  0DA3               	rlf	___lldiv@divisor+3,f
  6771     0896  0BF3               	decfsz	??___lldiv,f
  6772     0897  2891               	goto	u4015
  6773     0898                     l2917:
  6774     0898  3001               	movlw	1
  6775     0899  00FF               	movwf	btemp+1
  6776     089A  087F               	movf	btemp+1,w
  6777     089B  07F8               	addwf	___lldiv@counter,f
  6778     089C                     l2919:
  6779     089C  1FA3               	btfss	___lldiv@divisor+3,7
  6780     089D  289F               	goto	u4021
  6781     089E  28A0               	goto	u4020
  6782     089F                     u4021:
  6783     089F  288F               	goto	l2915
  6784     08A0                     u4020:
  6785     08A0                     l2921:
  6786     08A0  3001               	movlw	1
  6787     08A1  00F3               	movwf	??___lldiv
  6788     08A2                     u4035:
  6789     08A2  1003               	clrc
  6790     08A3  0DF4               	rlf	___lldiv@quotient,f
  6791     08A4  0DF5               	rlf	___lldiv@quotient+1,f
  6792     08A5  0DF6               	rlf	___lldiv@quotient+2,f
  6793     08A6  0DF7               	rlf	___lldiv@quotient+3,f
  6794     08A7  0BF3               	decfsz	??___lldiv,f
  6795     08A8  28A2               	goto	u4035
  6796     08A9                     l2923:
  6797     08A9  0823               	movf	___lldiv@divisor+3,w
  6798     08AA  0227               	subwf	___lldiv@dividend+3,w
  6799     08AB  1D03               	skipz
  6800     08AC  28B7               	goto	u4045
  6801     08AD  0822               	movf	___lldiv@divisor+2,w
  6802     08AE  0226               	subwf	___lldiv@dividend+2,w
  6803     08AF  1D03               	skipz
  6804     08B0  28B7               	goto	u4045
  6805     08B1  0821               	movf	___lldiv@divisor+1,w
  6806     08B2  0225               	subwf	___lldiv@dividend+1,w
  6807     08B3  1D03               	skipz
  6808     08B4  28B7               	goto	u4045
  6809     08B5  0820               	movf	___lldiv@divisor,w
  6810     08B6  0224               	subwf	___lldiv@dividend,w
  6811     08B7                     u4045:
  6812     08B7  1C03               	skipc
  6813     08B8  28BA               	goto	u4041
  6814     08B9  28BB               	goto	u4040
  6815     08BA                     u4041:
  6816     08BA  28CA               	goto	l2929
  6817     08BB                     u4040:
  6818     08BB                     l2925:
  6819     08BB  0820               	movf	___lldiv@divisor,w
  6820     08BC  02A4               	subwf	___lldiv@dividend,f
  6821     08BD  0821               	movf	___lldiv@divisor+1,w
  6822     08BE  1C03               	skipc
  6823     08BF  0F21               	incfsz	___lldiv@divisor+1,w
  6824     08C0  02A5               	subwf	___lldiv@dividend+1,f
  6825     08C1  0822               	movf	___lldiv@divisor+2,w
  6826     08C2  1C03               	skipc
  6827     08C3  0F22               	incfsz	___lldiv@divisor+2,w
  6828     08C4  02A6               	subwf	___lldiv@dividend+2,f
  6829     08C5  0823               	movf	___lldiv@divisor+3,w
  6830     08C6  1C03               	skipc
  6831     08C7  0F23               	incfsz	___lldiv@divisor+3,w
  6832     08C8  02A7               	subwf	___lldiv@dividend+3,f
  6833     08C9                     l2927:
  6834     08C9  1474               	bsf	___lldiv@quotient,0
  6835     08CA                     l2929:
  6836     08CA  3001               	movlw	1
  6837     08CB                     u4055:
  6838     08CB  1003               	clrc
  6839     08CC  0CA3               	rrf	___lldiv@divisor+3,f
  6840     08CD  0CA2               	rrf	___lldiv@divisor+2,f
  6841     08CE  0CA1               	rrf	___lldiv@divisor+1,f
  6842     08CF  0CA0               	rrf	___lldiv@divisor,f
  6843     08D0  3EFF               	addlw	-1
  6844     08D1  1D03               	skipz
  6845     08D2  28CB               	goto	u4055
  6846     08D3                     l2931:
  6847     08D3  3001               	movlw	1
  6848     08D4  02F8               	subwf	___lldiv@counter,f
  6849     08D5  1D03               	btfss	3,2
  6850     08D6  28D8               	goto	u4061
  6851     08D7  28D9               	goto	u4060
  6852     08D8                     u4061:
  6853     08D8  28A0               	goto	l2921
  6854     08D9                     u4060:
  6855     08D9                     l2933:
  6856     08D9  0877               	movf	___lldiv@quotient+3,w
  6857     08DA  00A3               	movwf	?___lldiv+3
  6858     08DB  0876               	movf	___lldiv@quotient+2,w
  6859     08DC  00A2               	movwf	?___lldiv+2
  6860     08DD  0875               	movf	___lldiv@quotient+1,w
  6861     08DE  00A1               	movwf	?___lldiv+1
  6862     08DF  0874               	movf	___lldiv@quotient,w
  6863     08E0  00A0               	movwf	?___lldiv
  6864     08E1                     l347:
  6865     08E1  0008               	return
  6866     08E2                     __end_of___lldiv:
  6867                           
  6868                           	psect	text21
  6869     08E2                     __ptext21:	
  6870 ;; *************** function _LCD_Write *****************
  6871 ;; Defined at:
  6872 ;;		line 38 in file "lcd_msd.c"
  6873 ;; Parameters:    Size  Location     Type
  6874 ;;  character       1    wreg     unsigned char 
  6875 ;;  RS              1    6[COMMON] unsigned char 
  6876 ;; Auto vars:     Size  Location     Type
  6877 ;;  character       1    7[COMMON] unsigned char 
  6878 ;;  data            1    8[COMMON] unsigned char 
  6879 ;; Return value:  Size  Location     Type
  6880 ;;                  1    wreg      void 
  6881 ;; Registers used:
  6882 ;;		wreg, status,2, status,0, btemp+1, pclath, cstack
  6883 ;; Tracked objects:
  6884 ;;		On entry : 0/0
  6885 ;;		On exit  : 0/0
  6886 ;;		Unchanged: 0/0
  6887 ;; Data sizes:     COMMON   BANK0   BANK1   BANK3   BANK2
  6888 ;;      Params:         1       0       0       0       0
  6889 ;;      Locals:         2       0       0       0       0
  6890 ;;      Temps:          0       8       0       0       0
  6891 ;;      Totals:         3       8       0       0       0
  6892 ;;Total ram usage:       11 bytes
  6893 ;; Hardware stack levels used: 1
  6894 ;; Hardware stack levels required when called: 2
  6895 ;; This function calls:
  6896 ;;		_bit_config
  6897 ;; This function is called by:
  6898 ;;		_LCD_Clear
  6899 ;;		_LCD_Goto
  6900 ;;		_LCD_Init
  6901 ;;		_LCD_Int
  6902 ;;		_LCD_Float
  6903 ;;		_LCD_Text
  6904 ;;		_LCD_Char
  6905 ;;		_LCD_Hex
  6906 ;;		_LCD_Bin
  6907 ;; This function uses a non-reentrant model
  6908 ;;
  6909                           
  6910     08E2                     _LCD_Write:	
  6911                           ;psect for function _LCD_Write
  6912                           
  6913                           
  6914                           ;incstack = 0
  6915                           ; Regs used in _LCD_Write: [wreg+status,2+status,0+btemp+1+pclath+cstack]
  6916                           ;LCD_Write@character stored from wreg
  6917     08E2  00F8               	movwf	LCD_Write@character
  6918     08E3                     l2893:
  6919     08E3  1283               	bcf	3,5	;RP0=0, select bank0
  6920     08E4  1303               	bcf	3,6	;RP1=0, select bank0
  6921     08E5  0806               	movf	6,w	;volatile
  6922     08E6                     l2895:
  6923                           
  6924                           ;lcd_msd.c: 41:     data = ((character >> 4) & 0x0F);
  6925     08E6  0878               	movf	LCD_Write@character,w
  6926     08E7  00BA               	movwf	??_LCD_Write
  6927     08E8  3004               	movlw	4
  6928     08E9                     u3995:
  6929     08E9  1003               	clrc
  6930     08EA  0CBA               	rrf	??_LCD_Write,f
  6931     08EB  3EFF               	addlw	-1
  6932     08EC  1D03               	skipz
  6933     08ED  28E9               	goto	u3995
  6934     08EE  083A               	movf	??_LCD_Write,w
  6935     08EF  390F               	andlw	15
  6936     08F0  00F9               	movwf	LCD_Write@data
  6937     08F1                     l2897:
  6938                           
  6939                           ;lcd_msd.c: 42:     PORTB = bit_config(data, 5, RS);
  6940     08F1  0879               	movf	LCD_Write@data,w
  6941     08F2  00BA               	movwf	??_LCD_Write
  6942     08F3  01BB               	clrf	??_LCD_Write+1
  6943     08F4  01BC               	clrf	??_LCD_Write+2
  6944     08F5  01BD               	clrf	??_LCD_Write+3
  6945     08F6  083D               	movf	??_LCD_Write+3,w
  6946     08F7  00A3               	movwf	bit_config@word+3
  6947     08F8  083C               	movf	??_LCD_Write+2,w
  6948     08F9  00A2               	movwf	bit_config@word+2
  6949     08FA  083B               	movf	??_LCD_Write+1,w
  6950     08FB  00A1               	movwf	bit_config@word+1
  6951     08FC  083A               	movf	??_LCD_Write,w
  6952     08FD  00A0               	movwf	bit_config@word
  6953     08FE  3000               	movlw	0
  6954     08FF  00A7               	movwf	bit_config@bit_number+3
  6955     0900  3000               	movlw	0
  6956     0901  00A6               	movwf	bit_config@bit_number+2
  6957     0902  3000               	movlw	0
  6958     0903  00A5               	movwf	bit_config@bit_number+1
  6959     0904  3005               	movlw	5
  6960     0905  00A4               	movwf	bit_config@bit_number
  6961     0906  0877               	movf	LCD_Write@RS,w
  6962     0907  00BE               	movwf	??_LCD_Write+4
  6963     0908  01BF               	clrf	??_LCD_Write+5
  6964     0909  01C0               	clrf	??_LCD_Write+6
  6965     090A  01C1               	clrf	??_LCD_Write+7
  6966     090B  0841               	movf	??_LCD_Write+7,w
  6967     090C  00AB               	movwf	bit_config@bit_value+3
  6968     090D  0840               	movf	??_LCD_Write+6,w
  6969     090E  00AA               	movwf	bit_config@bit_value+2
  6970     090F  083F               	movf	??_LCD_Write+5,w
  6971     0910  00A9               	movwf	bit_config@bit_value+1
  6972     0911  083E               	movf	??_LCD_Write+4,w
  6973     0912  00A8               	movwf	bit_config@bit_value
  6974     0913  120A  118A  201D  120A  158A  	fcall	_bit_config
  6975     0918  1283               	bcf	3,5	;RP0=0, select bank0
  6976     0919  1303               	bcf	3,6	;RP1=0, select bank0
  6977     091A  0820               	movf	?_bit_config,w
  6978     091B  0086               	movwf	6	;volatile
  6979     091C                     l2899:
  6980                           
  6981                           ;lcd_msd.c: 44:     ((PORTCbits.RC1=1),(PORTCbits.RC1=0));
  6982     091C  1487               	bsf	7,1	;volatile
  6983     091D                     l2901:
  6984     091D  1087               	bcf	7,1	;volatile
  6985     091E                     l2903:
  6986                           
  6987                           ;lcd_msd.c: 46:     data = (character & 0x0F);
  6988     091E  0878               	movf	LCD_Write@character,w
  6989     091F  390F               	andlw	15
  6990     0920  00F9               	movwf	LCD_Write@data
  6991     0921                     l2905:
  6992                           
  6993                           ;lcd_msd.c: 47:     PORTB = bit_config(data, 5, RS);
  6994     0921  0879               	movf	LCD_Write@data,w
  6995     0922  00BA               	movwf	??_LCD_Write
  6996     0923  01BB               	clrf	??_LCD_Write+1
  6997     0924  01BC               	clrf	??_LCD_Write+2
  6998     0925  01BD               	clrf	??_LCD_Write+3
  6999     0926  083D               	movf	??_LCD_Write+3,w
  7000     0927  00A3               	movwf	bit_config@word+3
  7001     0928  083C               	movf	??_LCD_Write+2,w
  7002     0929  00A2               	movwf	bit_config@word+2
  7003     092A  083B               	movf	??_LCD_Write+1,w
  7004     092B  00A1               	movwf	bit_config@word+1
  7005     092C  083A               	movf	??_LCD_Write,w
  7006     092D  00A0               	movwf	bit_config@word
  7007     092E  3000               	movlw	0
  7008     092F  00A7               	movwf	bit_config@bit_number+3
  7009     0930  3000               	movlw	0
  7010     0931  00A6               	movwf	bit_config@bit_number+2
  7011     0932  3000               	movlw	0
  7012     0933  00A5               	movwf	bit_config@bit_number+1
  7013     0934  3005               	movlw	5
  7014     0935  00A4               	movwf	bit_config@bit_number
  7015     0936  0877               	movf	LCD_Write@RS,w
  7016     0937  00BE               	movwf	??_LCD_Write+4
  7017     0938  01BF               	clrf	??_LCD_Write+5
  7018     0939  01C0               	clrf	??_LCD_Write+6
  7019     093A  01C1               	clrf	??_LCD_Write+7
  7020     093B  0841               	movf	??_LCD_Write+7,w
  7021     093C  00AB               	movwf	bit_config@bit_value+3
  7022     093D  0840               	movf	??_LCD_Write+6,w
  7023     093E  00AA               	movwf	bit_config@bit_value+2
  7024     093F  083F               	movf	??_LCD_Write+5,w
  7025     0940  00A9               	movwf	bit_config@bit_value+1
  7026     0941  083E               	movf	??_LCD_Write+4,w
  7027     0942  00A8               	movwf	bit_config@bit_value
  7028     0943  120A  118A  201D  120A  158A  	fcall	_bit_config
  7029     0948  1283               	bcf	3,5	;RP0=0, select bank0
  7030     0949  1303               	bcf	3,6	;RP1=0, select bank0
  7031     094A  0820               	movf	?_bit_config,w
  7032     094B  0086               	movwf	6	;volatile
  7033     094C                     l2907:
  7034                           
  7035                           ;lcd_msd.c: 49:     ((PORTCbits.RC1=1),(PORTCbits.RC1=0));
  7036     094C  1487               	bsf	7,1	;volatile
  7037     094D                     l2909:
  7038     094D  1087               	bcf	7,1	;volatile
  7039     094E                     l115:
  7040     094E  0008               	return
  7041     094F                     __end_of_LCD_Write:
  7042                           
  7043                           	psect	text22
  7044     001D                     __ptext22:	
  7045 ;; *************** function _bit_config *****************
  7046 ;; Defined at:
  7047 ;;		line 30 in file "lcd_msd.c"
  7048 ;; Parameters:    Size  Location     Type
  7049 ;;  word            4    0[BANK0 ] unsigned long 
  7050 ;;  bit_number      4    4[BANK0 ] unsigned long 
  7051 ;;  bit_value       4    8[BANK0 ] unsigned long 
  7052 ;; Auto vars:     Size  Location     Type
  7053 ;;  word_temp       4    2[COMMON] unsigned long 
  7054 ;; Return value:  Size  Location     Type
  7055 ;;                  4    0[BANK0 ] unsigned long 
  7056 ;; Registers used:
  7057 ;;		wreg, status,2, status,0, btemp+1
  7058 ;; Tracked objects:
  7059 ;;		On entry : 0/0
  7060 ;;		On exit  : 0/0
  7061 ;;		Unchanged: 0/0
  7062 ;; Data sizes:     COMMON   BANK0   BANK1   BANK3   BANK2
  7063 ;;      Params:         0      12       0       0       0
  7064 ;;      Locals:         4       0       0       0       0
  7065 ;;      Temps:          0      14       0       0       0
  7066 ;;      Totals:         4      26       0       0       0
  7067 ;;Total ram usage:       30 bytes
  7068 ;; Hardware stack levels used: 1
  7069 ;; Hardware stack levels required when called: 1
  7070 ;; This function calls:
  7071 ;;		Nothing
  7072 ;; This function is called by:
  7073 ;;		_LCD_Write
  7074 ;; This function uses a non-reentrant model
  7075 ;;
  7076                           
  7077     001D                     _bit_config:	
  7078                           ;psect for function _bit_config
  7079                           
  7080     001D                     l2885:	
  7081                           ;incstack = 0
  7082                           ; Regs used in _bit_config: [wreg+status,2+status,0+btemp+1]
  7083                           
  7084                           
  7085                           ;lcd_msd.c: 31:     uint32_t word_temp = word;
  7086     001D  1283               	bcf	3,5	;RP0=0, select bank0
  7087     001E  1303               	bcf	3,6	;RP1=0, select bank0
  7088     001F  0823               	movf	bit_config@word+3,w
  7089     0020  00F6               	movwf	bit_config@word_temp+3
  7090     0021  0822               	movf	bit_config@word+2,w
  7091     0022  00F5               	movwf	bit_config@word_temp+2
  7092     0023  0821               	movf	bit_config@word+1,w
  7093     0024  00F4               	movwf	bit_config@word_temp+1
  7094     0025  0820               	movf	bit_config@word,w
  7095     0026  00F3               	movwf	bit_config@word_temp
  7096     0027                     l2887:
  7097                           
  7098                           ;lcd_msd.c: 32:     word_temp ^= (-bit_value ^ word_temp) & (1 << bit_number);
  7099     0027  0A24               	incf	bit_config@bit_number,w
  7100     0028  00FF               	movwf	btemp+1
  7101     0029  3001               	movlw	1
  7102     002A  00AC               	movwf	??_bit_config
  7103     002B  3000               	movlw	0
  7104     002C  00AD               	movwf	??_bit_config+1
  7105     002D  2831               	goto	u3984
  7106     002E                     u3985:
  7107     002E  1003               	clrc
  7108     002F  0DAC               	rlf	??_bit_config,f
  7109     0030  0DAD               	rlf	??_bit_config+1,f
  7110     0031                     u3984:
  7111     0031  0BFF               	decfsz	btemp+1,f
  7112     0032  282E               	goto	u3985
  7113     0033  082C               	movf	??_bit_config,w
  7114     0034  00AE               	movwf	??_bit_config+2
  7115     0035  082D               	movf	??_bit_config+1,w
  7116     0036  00AF               	movwf	??_bit_config+3
  7117     0037  3000               	movlw	0
  7118     0038  1BAF               	btfsc	??_bit_config+3,7
  7119     0039  30FF               	movlw	255
  7120     003A  00B0               	movwf	??_bit_config+4
  7121     003B  00B1               	movwf	??_bit_config+5
  7122     003C  0873               	movf	bit_config@word_temp,w
  7123     003D  00B2               	movwf	??_bit_config+6
  7124     003E  0874               	movf	bit_config@word_temp+1,w
  7125     003F  00B3               	movwf	??_bit_config+7
  7126     0040  0875               	movf	bit_config@word_temp+2,w
  7127     0041  00B4               	movwf	??_bit_config+8
  7128     0042  0876               	movf	bit_config@word_temp+3,w
  7129     0043  00B5               	movwf	??_bit_config+9
  7130     0044  0928               	comf	bit_config@bit_value,w
  7131     0045  00B6               	movwf	??_bit_config+10
  7132     0046  0929               	comf	bit_config@bit_value+1,w
  7133     0047  00B7               	movwf	??_bit_config+11
  7134     0048  092A               	comf	bit_config@bit_value+2,w
  7135     0049  00B8               	movwf	??_bit_config+12
  7136     004A  092B               	comf	bit_config@bit_value+3,w
  7137     004B  00B9               	movwf	??_bit_config+13
  7138     004C  0AB6               	incf	??_bit_config+10,f
  7139     004D  1903               	skipnz
  7140     004E  0AB7               	incf	??_bit_config+11,f
  7141     004F  1903               	skipnz
  7142     0050  0AB8               	incf	??_bit_config+12,f
  7143     0051  1903               	skipnz
  7144     0052  0AB9               	incf	??_bit_config+13,f
  7145     0053  0836               	movf	??_bit_config+10,w
  7146     0054  06B2               	xorwf	??_bit_config+6,f
  7147     0055  0837               	movf	??_bit_config+11,w
  7148     0056  06B3               	xorwf	??_bit_config+7,f
  7149     0057  0838               	movf	??_bit_config+12,w
  7150     0058  06B4               	xorwf	??_bit_config+8,f
  7151     0059  0839               	movf	??_bit_config+13,w
  7152     005A  06B5               	xorwf	??_bit_config+9,f
  7153     005B  0832               	movf	??_bit_config+6,w
  7154     005C  05AE               	andwf	??_bit_config+2,f
  7155     005D  0833               	movf	??_bit_config+7,w
  7156     005E  05AF               	andwf	??_bit_config+3,f
  7157     005F  0834               	movf	??_bit_config+8,w
  7158     0060  05B0               	andwf	??_bit_config+4,f
  7159     0061  0835               	movf	??_bit_config+9,w
  7160     0062  05B1               	andwf	??_bit_config+5,f
  7161     0063  082E               	movf	??_bit_config+2,w
  7162     0064  06F3               	xorwf	bit_config@word_temp,f
  7163     0065  082F               	movf	??_bit_config+3,w
  7164     0066  06F4               	xorwf	bit_config@word_temp+1,f
  7165     0067  0830               	movf	??_bit_config+4,w
  7166     0068  06F5               	xorwf	bit_config@word_temp+2,f
  7167     0069  0831               	movf	??_bit_config+5,w
  7168     006A  06F6               	xorwf	bit_config@word_temp+3,f
  7169     006B                     l2889:
  7170                           
  7171                           ;lcd_msd.c: 33:     return word_temp;
  7172     006B  0876               	movf	bit_config@word_temp+3,w
  7173     006C  00A3               	movwf	?_bit_config+3
  7174     006D  0875               	movf	bit_config@word_temp+2,w
  7175     006E  00A2               	movwf	?_bit_config+2
  7176     006F  0874               	movf	bit_config@word_temp+1,w
  7177     0070  00A1               	movwf	?_bit_config+1
  7178     0071  0873               	movf	bit_config@word_temp,w
  7179     0072  00A0               	movwf	?_bit_config
  7180     0073                     l112:
  7181     0073  0008               	return
  7182     0074                     __end_of_bit_config:
  7183                           
  7184                           	psect	text23
  7185     000F                     __ptext23:	
  7186 ;; *************** function _ADC_Read *****************
  7187 ;; Defined at:
  7188 ;;		line 63 in file "main.c"
  7189 ;; Parameters:    Size  Location     Type
  7190 ;;		None
  7191 ;; Auto vars:     Size  Location     Type
  7192 ;;		None
  7193 ;; Return value:  Size  Location     Type
  7194 ;;                  2    2[COMMON] unsigned int 
  7195 ;; Registers used:
  7196 ;;		wreg
  7197 ;; Tracked objects:
  7198 ;;		On entry : 0/0
  7199 ;;		On exit  : 0/0
  7200 ;;		Unchanged: 0/0
  7201 ;; Data sizes:     COMMON   BANK0   BANK1   BANK3   BANK2
  7202 ;;      Params:         2       0       0       0       0
  7203 ;;      Locals:         0       0       0       0       0
  7204 ;;      Temps:          0       0       0       0       0
  7205 ;;      Totals:         2       0       0       0       0
  7206 ;;Total ram usage:        2 bytes
  7207 ;; Hardware stack levels used: 1
  7208 ;; Hardware stack levels required when called: 1
  7209 ;; This function calls:
  7210 ;;		Nothing
  7211 ;; This function is called by:
  7212 ;;		_main
  7213 ;; This function uses a non-reentrant model
  7214 ;;
  7215                           
  7216     000F                     _ADC_Read:	
  7217                           ;psect for function _ADC_Read
  7218                           
  7219     000F                     l2597:	
  7220                           ;incstack = 0
  7221                           ; Regs used in _ADC_Read: [wreg]
  7222                           
  7223                           
  7224                           ;main.c: 64:     GO_nDONE = 1;
  7225     000F  1283               	bcf	3,5	;RP0=0, select bank0
  7226     0010  1303               	bcf	3,6	;RP1=0, select bank0
  7227     0011  149F               	bsf	31,1	;volatile
  7228     0012                     l78:	
  7229                           ;main.c: 65:     while (GO_nDONE);
  7230                           
  7231     0012  189F               	btfsc	31,1	;volatile
  7232     0013  2815               	goto	u3721
  7233     0014  2816               	goto	u3720
  7234     0015                     u3721:
  7235     0015  2812               	goto	l78
  7236     0016                     u3720:
  7237     0016                     l2599:
  7238                           
  7239                           ;main.c: 66:     return ((ADRESH << 8) + ADRESL);
  7240     0016  081E               	movf	30,w	;volatile
  7241     0017  00F4               	movwf	?_ADC_Read+1
  7242     0018  1683               	bsf	3,5	;RP0=1, select bank1
  7243     0019  1303               	bcf	3,6	;RP1=0, select bank1
  7244     001A  081E               	movf	30,w	;volatile
  7245     001B  00F3               	movwf	?_ADC_Read
  7246     001C                     l81:
  7247     001C  0008               	return
  7248     001D                     __end_of_ADC_Read:
  7249                           
  7250                           	psect	text24
  7251     171D                     __ptext24:	
  7252 ;; *************** function _ADC_Init *****************
  7253 ;; Defined at:
  7254 ;;		line 55 in file "main.c"
  7255 ;; Parameters:    Size  Location     Type
  7256 ;;		None
  7257 ;; Auto vars:     Size  Location     Type
  7258 ;;		None
  7259 ;; Return value:  Size  Location     Type
  7260 ;;                  1    wreg      void 
  7261 ;; Registers used:
  7262 ;;		wreg, status,2
  7263 ;; Tracked objects:
  7264 ;;		On entry : 0/0
  7265 ;;		On exit  : 0/0
  7266 ;;		Unchanged: 0/0
  7267 ;; Data sizes:     COMMON   BANK0   BANK1   BANK3   BANK2
  7268 ;;      Params:         0       0       0       0       0
  7269 ;;      Locals:         0       0       0       0       0
  7270 ;;      Temps:          0       0       0       0       0
  7271 ;;      Totals:         0       0       0       0       0
  7272 ;;Total ram usage:        0 bytes
  7273 ;; Hardware stack levels used: 1
  7274 ;; Hardware stack levels required when called: 1
  7275 ;; This function calls:
  7276 ;;		Nothing
  7277 ;; This function is called by:
  7278 ;;		_main
  7279 ;; This function uses a non-reentrant model
  7280 ;;
  7281                           
  7282     171D                     _ADC_Init:	
  7283                           ;psect for function _ADC_Init
  7284                           
  7285     171D                     l2593:	
  7286                           ;incstack = 0
  7287                           ; Regs used in _ADC_Init: [wreg+status,2]
  7288                           
  7289                           
  7290                           ;main.c: 56:     ANSEL = 0b00010000;
  7291     171D  3010               	movlw	16
  7292     171E  1683               	bsf	3,5	;RP0=1, select bank3
  7293     171F  1703               	bsf	3,6	;RP1=1, select bank3
  7294     1720  0088               	movwf	8	;volatile
  7295                           
  7296                           ;main.c: 57:     ADCON0 = 0b10010001;
  7297     1721  3091               	movlw	145
  7298     1722  1283               	bcf	3,5	;RP0=0, select bank0
  7299     1723  1303               	bcf	3,6	;RP1=0, select bank0
  7300     1724  009F               	movwf	31	;volatile
  7301     1725                     l2595:
  7302                           
  7303                           ;main.c: 58:     ADCON1 = 0b00000000;
  7304     1725  1683               	bsf	3,5	;RP0=1, select bank1
  7305     1726  1303               	bcf	3,6	;RP1=0, select bank1
  7306     1727  019F               	clrf	31	;volatile
  7307     1728                     l75:
  7308     1728  0008               	return
  7309     1729                     __end_of_ADC_Init:
  7310                           
  7311                           	psect	text25
  7312     173B                     __ptext25:	
  7313 ;; *************** function _isr *****************
  7314 ;; Defined at:
  7315 ;;		line 43 in file "main.c"
  7316 ;; Parameters:    Size  Location     Type
  7317 ;;		None
  7318 ;; Auto vars:     Size  Location     Type
  7319 ;;		None
  7320 ;; Return value:  Size  Location     Type
  7321 ;;                  1    wreg      void 
  7322 ;; Registers used:
  7323 ;;		wreg, status,2
  7324 ;; Tracked objects:
  7325 ;;		On entry : 0/0
  7326 ;;		On exit  : 0/0
  7327 ;;		Unchanged: 0/0
  7328 ;; Data sizes:     COMMON   BANK0   BANK1   BANK3   BANK2
  7329 ;;      Params:         0       0       0       0       0
  7330 ;;      Locals:         0       0       0       0       0
  7331 ;;      Temps:          2       0       0       0       0
  7332 ;;      Totals:         2       0       0       0       0
  7333 ;;Total ram usage:        2 bytes
  7334 ;; Hardware stack levels used: 1
  7335 ;; This function calls:
  7336 ;;		Nothing
  7337 ;; This function is called by:
  7338 ;;		Interrupt level 1
  7339 ;; This function uses a non-reentrant model
  7340 ;;
  7341                           
  7342     173B                     _isr:	
  7343                           ;psect for function _isr
  7344                           
  7345     173B                     i1l1689:
  7346                           
  7347                           ;main.c: 44:     if (TMR1IF) {
  7348     173B  1283               	bcf	3,5	;RP0=0, select bank0
  7349     173C  1303               	bcf	3,6	;RP1=0, select bank0
  7350     173D  1C0C               	btfss	12,0	;volatile
  7351     173E  2F40               	goto	u184_21
  7352     173F  2F41               	goto	u184_20
  7353     1740                     u184_21:
  7354     1740  2F47               	goto	i1l72
  7355     1741                     u184_20:
  7356     1741                     i1l1691:
  7357                           
  7358                           ;main.c: 45:         TMR1H = 0xF6;
  7359     1741  30F6               	movlw	246
  7360     1742  008F               	movwf	15	;volatile
  7361                           
  7362                           ;main.c: 46:         TMR1L = 0x3B;
  7363     1743  303B               	movlw	59
  7364     1744  008E               	movwf	14	;volatile
  7365     1745                     i1l1693:
  7366                           
  7367                           ;main.c: 47:         tick = 0;
  7368     1745  01FB               	clrf	_tick	;volatile
  7369     1746                     i1l1695:
  7370                           
  7371                           ;main.c: 48:         TMR1IF = 0;
  7372     1746  100C               	bcf	12,0	;volatile
  7373     1747                     i1l72:
  7374     1747  0872               	movf	??_isr+1,w
  7375     1748  008A               	movwf	10
  7376     1749  0E71               	swapf	??_isr,w
  7377     174A  0083               	movwf	3
  7378     174B  0EFE               	swapf	btemp,f
  7379     174C  0E7E               	swapf	btemp,w
  7380     174D  0009               	retfie
  7381     174E                     __end_of_isr:
  7382     007E                     btemp	set	126	;btemp
  7383     007E                     wtemp0	set	126
  7384                           
  7385                           	psect	intentry
  7386     0004                     __pintentry:	
  7387                           ;incstack = 0
  7388                           ; Regs used in _isr: [wreg+status,2]
  7389                           
  7390     0004                     interrupt_function:
  7391     007E                     saved_w	set	btemp
  7392     0004  00FE               	movwf	btemp
  7393     0005  0E03               	swapf	3,w
  7394     0006  00F1               	movwf	??_isr
  7395     0007  080A               	movf	10,w
  7396     0008  00F2               	movwf	??_isr+1
  7397     0009  160A  118A  2F3B   	ljmp	_isr
  7398                           
  7399                           	psect	config
  7400                           
  7401                           ;Config register CONFIG1 @ 0x2007
  7402                           ;	Oscillator Selection bits
  7403                           ;	FOSC = INTRC_NOCLKOUT, INTOSCIO oscillator: I/O function on RA6/OSC2/CLKOUT pin, I/O f
      +                          unction on RA7/OSC1/CLKIN
  7404                           ;	Watchdog Timer Enable bit
  7405                           ;	WDTE = OFF, WDT disabled and can be enabled by SWDTEN bit of the WDTCON register
  7406                           ;	Power-up Timer Enable bit
  7407                           ;	PWRTE = ON, PWRT enabled
  7408                           ;	RE3/MCLR pin function select bit
  7409                           ;	MCLRE = 0x1, unprogrammed default
  7410                           ;	Code Protection bit
  7411                           ;	CP = OFF, Program memory code protection is disabled
  7412                           ;	Data Code Protection bit
  7413                           ;	CPD = OFF, Data memory code protection is disabled
  7414                           ;	Brown Out Reset Selection bits
  7415                           ;	BOREN = ON, BOR enabled
  7416                           ;	Internal External Switchover bit
  7417                           ;	IESO = 0x1, unprogrammed default
  7418                           ;	Fail-Safe Clock Monitor Enabled bit
  7419                           ;	FCMEN = 0x1, unprogrammed default
  7420                           ;	Low Voltage Programming Enable bit
  7421                           ;	LVP = OFF, RB3 pin has digital I/O, HV on MCLR must be used for programming
  7422                           ;	In-Circuit Debugger Mode bit
  7423                           ;	DEBUG = 0x1, unprogrammed default
  7424     2007                     	org	8199
  7425     2007  2FE4               	dw	12260
  7426                           
  7427                           ;Config register CONFIG2 @ 0x2008
  7428                           ;	Brown-out Reset Selection bit
  7429                           ;	BOR4V = 0x1, unprogrammed default
  7430                           ;	Flash Program Memory Self Write Enable bits
  7431                           ;	WRT = OFF, Write protection off
  7432     2008                     	org	8200
  7433     2008  3FFF               	dw	16383

Data Sizes:
    Strings     0
    Constant    0
    Data        3
    BSS         22
    Persistent  0
    Stack       0

Auto Spaces:
    Space          Size  Autos    Used
    COMMON           13      9      11
    BANK0            80     72      74
    BANK1            80      9      30
    BANK3            85      0       0
    BANK2            96      0       0

Pointer List with Targets:

    dht11_read@phum	PTR float  size(1) Largest target is 4
		 -> hum(BANK1[4]), 

    dht11_read@ptemp	PTR float  size(1) Largest target is 4
		 -> temp(BANK1[4]), 


Critical Paths under _main in COMMON

    _main->_dht11_read
    _dht11_read->___xxtofl
    ___fldiv->___xxtofl
    _LCD_Init->_LCD_Write
    _LCD_Clear->_LCD_Write
    _LCD_Goto->_LCD_Write
    _LCD_Float->_LCD_Write
    ___flsub->___xxtofl
    ___fladd->___xxtofl
    ___flmul->__Umul8_16
    _LCD_Int->_LCD_Write
    _LCD_Write->_bit_config

Critical Paths under _isr in COMMON

    None.

Critical Paths under _main in BANK0

    _main->_LCD_Float
    _dht11_read->___fladd
    ___fldiv->___xxtofl
    _LCD_Init->_LCD_Clear
    _LCD_Clear->_LCD_Write
    _LCD_Goto->_LCD_Write
    _LCD_Float->___flsub
    ___flsub->___fladd
    ___fladd->___fldiv
    ___flmul->__Umul8_16
    _LCD_Int->_LCD_Write
    _LCD_Write->_bit_config

Critical Paths under _isr in BANK0

    None.

Critical Paths under _main in BANK1

    _main->_LCD_Float

Critical Paths under _isr in BANK1

    None.

Critical Paths under _main in BANK3

    None.

Critical Paths under _isr in BANK3

    None.

Critical Paths under _main in BANK2

    None.

Critical Paths under _isr in BANK2

    None.

Call Graph Tables:

 ---------------------------------------------------------------------------------
 (Depth) Function   	        Calls       Base Space   Used Autos Params    Refs
 ---------------------------------------------------------------------------------
 (0) _main                                                 2     2      0   30344
                                             70 BANK0      2     2      0
                           _ADC_Init
                           _ADC_Read
                          _LCD_Float
                           _LCD_Goto
                           _LCD_Init
                           _PWM_Init
                            ___llmod
                       _dht11_config
                         _dht11_read
 ---------------------------------------------------------------------------------
 (1) _dht11_read                                          11    10      1    6806
                                              6 COMMON     3     2      1
                                             56 BANK0      8     8      0
                            ___fladd
                            ___fldiv
                           ___xxtofl
                    _dht11_read_byte
 ---------------------------------------------------------------------------------
 (2) _dht11_read_byte                                      1     1      0      68
                                              2 COMMON     1     1      0
 ---------------------------------------------------------------------------------
 (2) ___fldiv                                             26    18      8    2043
                                             10 BANK0     26    18      8
                           ___xxtofl (ARG)
 ---------------------------------------------------------------------------------
 (1) _dht11_config                                         2     2      0       0
                                              2 COMMON     2     2      0
 ---------------------------------------------------------------------------------
 (1) _PWM_Init                                             0     0      0       0
 ---------------------------------------------------------------------------------
 (1) _LCD_Init                                             2     2      0    4132
                                             36 BANK0      2     2      0
                          _LCD_Clear
                          _LCD_Write
 ---------------------------------------------------------------------------------
 (2) _LCD_Clear                                            2     2      0    2066
                                             34 BANK0      2     2      0
                          _LCD_Write
 ---------------------------------------------------------------------------------
 (1) _LCD_Goto                                             3     2      1    2444
                                             34 BANK0      3     2      1
                          _LCD_Write
 ---------------------------------------------------------------------------------
 (1) _LCD_Float                                           15     9      6   16370
                                             64 BANK0      6     0      6
                                              0 BANK1      9     9      0
                            _LCD_Int
                          _LCD_Write
                             ___flge
                            ___flmul
                            ___flneg
                            ___flsub
                            ___fltol
                           ___xxtofl
 ---------------------------------------------------------------------------------
 (2) ___xxtofl                                            14    10      4     926
                                              2 COMMON     4     0      4
                                              0 BANK0     10    10      0
 ---------------------------------------------------------------------------------
 (2) ___fltol                                             10     6      4     517
                                              2 COMMON     6     2      4
                                              0 BANK0      4     4      0
 ---------------------------------------------------------------------------------
 (2) ___flsub                                              8     0      8    3727
                                             56 BANK0      8     0      8
                            ___fladd
                           ___xxtofl (ARG)
 ---------------------------------------------------------------------------------
 (2) ___fladd                                             20    12      8    3482
                                             36 BANK0     20    12      8
                            ___fldiv (ARG)
                           ___xxtofl (ARG)
 ---------------------------------------------------------------------------------
 (2) ___flneg                                              4     0      4     155
                                              2 COMMON     4     0      4
 ---------------------------------------------------------------------------------
 (2) ___flmul                                             26    18      8    3353
                                              5 BANK0     26    18      8
                          __Umul8_16
 ---------------------------------------------------------------------------------
 (3) __Umul8_16                                            9     7      2     980
                                              2 COMMON     4     2      2
                                              0 BANK0      5     5      0
 ---------------------------------------------------------------------------------
 (2) ___flge                                              12     4      8     446
                                              2 COMMON     4     4      0
                                              0 BANK0      8     0      8
 ---------------------------------------------------------------------------------
 (2) _LCD_Int                                             18    12      6    4219
                                             34 BANK0     18    12      6
                          _LCD_Write
                            ___fltol (ARG)
                            ___lldiv
                            ___llmod
 ---------------------------------------------------------------------------------
 (1) ___llmod                                             10     2      8     592
                                              2 COMMON     2     2      0
                                              0 BANK0      8     0      8
 ---------------------------------------------------------------------------------
 (3) ___lldiv                                             14     6      8     421
                                              2 COMMON     6     6      0
                                              0 BANK0      8     0      8
 ---------------------------------------------------------------------------------
 (2) _LCD_Write                                           11    10      1    2066
                                              6 COMMON     3     2      1
                                             26 BANK0      8     8      0
                         _bit_config
 ---------------------------------------------------------------------------------
 (3) _bit_config                                          30    18     12     701
                                              2 COMMON     4     4      0
                                              0 BANK0     26    14     12
 ---------------------------------------------------------------------------------
 (1) _ADC_Read                                             2     0      2       0
                                              2 COMMON     2     0      2
 ---------------------------------------------------------------------------------
 (1) _ADC_Init                                             0     0      0       0
 ---------------------------------------------------------------------------------
 Estimated maximum stack depth 3
 ---------------------------------------------------------------------------------
 (Depth) Function   	        Calls       Base Space   Used Autos Params    Refs
 ---------------------------------------------------------------------------------
 (5) _isr                                                  2     2      0       0
                                              0 COMMON     2     2      0
 ---------------------------------------------------------------------------------
 Estimated maximum stack depth 5
 ---------------------------------------------------------------------------------

 Call Graph Graphs:

 _main (ROOT)
   _ADC_Init
   _ADC_Read
   _LCD_Float
     _LCD_Int
       _LCD_Write
         _bit_config
       ___fltol (ARG)
       ___lldiv (ARG)
       ___llmod (ARG)
     _LCD_Write
     ___flge
     ___flmul
       __Umul8_16
     ___flneg
     ___flsub
       ___fladd
         ___fldiv (ARG)
           ___xxtofl (ARG)
         ___xxtofl (ARG)
       ___xxtofl (ARG)
     ___fltol
     ___xxtofl
   _LCD_Goto
     _LCD_Write
   _LCD_Init
     _LCD_Clear
       _LCD_Write
     _LCD_Write
   _PWM_Init
   ___llmod
   _dht11_config
   _dht11_read
     ___fladd
     ___fldiv
     ___xxtofl
     _dht11_read_byte

 _isr (ROOT)

 Address spaces:
Name               Size   Autos  Total    Cost      Usage
BANK3               55      0       0       9        0.0%
BITBANK3            55      0       0       8        0.0%
SFR3                 0      0       0       4        0.0%
BITSFR3              0      0       0       4        0.0%
BANK2               60      0       0      11        0.0%
BITBANK2            60      0       0      10        0.0%
SFR2                 0      0       0       5        0.0%
BITSFR2              0      0       0       5        0.0%
BANK1               50      9      1E       7       37.5%
BITBANK1            50      0       0       6        0.0%
SFR1                 0      0       0       2        0.0%
BITSFR1              0      0       0       2        0.0%
BANK0               50     48      4A       5       92.5%
BITBANK0            50      0       0       4        0.0%
SFR0                 0      0       0       1        0.0%
BITSFR0              0      0       0       1        0.0%
COMMON               D      9       B       1       84.6%
BITCOMMON            D      0       0       0        0.0%
CODE                 0      0       0       0        0.0%
DATA                 0      0      73      12        0.0%
ABS                  0      0      73       3        0.0%
NULL                 0      0       0       0        0.0%
STACK                0      0       0       2        0.0%
EEDATA             100      0       0       0        0.0%


Microchip Technology PIC Macro Assembler V2.46 build 20240104201356 
Symbol Table                                                                                   Thu Aug 29 23:59:59 2024

           ___fldiv@aexp 0043             ___fldiv@bexp 0042             ___fldiv@sign 003B  
                     l81 001C                       l75 1728                       l84 1763  
                     l78 0012                       fsr 0004      __Umul8_16@word_mpld 0022  
                    TMR0 0001                      l112 0073                      l201 17ED  
                    l210 0EE7                      l115 094E                      l204 17F1  
                    l213 0FFF                      l118 173A                      l207 177E  
                    l215 0EF4                      l136 17D1                      l153 0BA2  
                    l139 0A4D                      l219 0F01                      l501 171C  
                    l512 09B1                      l505 09C6                      l177 0D91  
                    l347 08E1                      l515 09C6                      l612 029E  
                    l196 17E0                      l541 0879                      l199 17FF  
                    l616 0321                      l633 03EA                      l625 049A  
                    l714 074F                      l618 02FA                      l643 0430  
                    l492 0AD8                      l708 07DF                      l637 040E  
                    l670 0242                      l727 1795                      l655 049A  
                    l752 0BC7                      l497 0AF1                      l489 0A6C  
                    l729 17A7                      l658 0823                      l754 0C5C  
                    l690 022E                      l684 01BC                      l668 00CA  
                    l765 0C26                      l766 0C32                      _PR2 0092  
                    _hum 00B1                      _isr 173B                      fsr0 0004  
                    indf 0000         LCD_Int@positions 0046             ___flmul@aexp 0033  
           ___flmul@bexp 0038             ___flmul@sign 0032             ___flmul@temp 003D  
           ___flmul@prod 0039          __end_of_LCD_Int 0BA3             ___fltol@exp1 0078  
                   l3001 0296                     l3011 02B0                     l3003 02A4  
                   l3101 0400                     l3021 02BA                     l3013 02B2  
                   l3005 02A8                     l3111 0417                     l3103 0409  
                   l3031 02C4                     l3023 02BC                     l3015 02B4  
                   l3007 02AC                     l3201 0B7E                     l3121 0427  
                   l3113 041C                     l3105 040D                     l3041 02E2  
                   l3033 02C6                     l3025 02BE                     l3017 02B6  
                   l3009 02AE                     l3203 0B81                     l3131 0448  
                   l3123 042D                     l3107 0412                     l3115 041E  
                   l3051 030C                     l3043 02FE                     l3035 02C8  
                   l3027 02C0                     l3019 02B8                     l3205 0B8D  
                   l3141 0478                     l3133 044C                     l3109 0415  
                   l3117 0422                     l3053 0315                     l3045 0305  
                   l3029 02C2                     l3037 02CA                     l3301 09B6  
                   l3207 0B95                     l3151 048C                     l3143 0480  
                   l3135 046A                     l3127 0435                     l3119 0423  
                   l3071 0359                     l3063 0333                     l3047 0307  
                   l3055 0319                     l3039 02CB                     l3303 09BB  
                   l3311 0074                     l3231 17F4                     l3223 17E4  
                   l3215 17D4                     l3241 0A64                     l3161 1784  
                   l3153 0490                     l3145 0485                     l3129 043A  
                   l3137 046E                     l3073 035B                     l3065 034A  
                   l3057 0325                     l3081 036E                     l3049 030B  
                   l3305 0800                     l3401 0188                     l3321 0087  
                   l3313 0079                     l3233 17F8                     l3225 17E6  
                   l3217 17D8                     l3209 17D2                     l3251 0AB4  
                   l3243 0A80                     l3163 178B                     l3155 0495  
                   l3147 0486                     l3139 0473                     l3091 03CD  
                   l3083 0384                     l3075 035F                     l3067 034E  
                   l3059 032A                     l3307 0804                     l2611 1761  
                   l2603 174E                     l3411 01A0                     l3403 018C  
                   l3331 009F                     l3323 008C                     l3315 007D  
                   l3235 17FE                     l3219 17DE                     l3181 0B1C  
                   l3253 0AEE                     l3245 0A88                     l3165 178F  
                   l3501 0502                     l3261 171A                     l3157 0499  
                   l3149 048A                     l3085 03C2                     l3093 03DC  
                   l3077 0360                     l3069 0352                     l3173 1729  
                   l2613 1762                     l2605 1751                     l3421 01C1  
                   l3413 01A1                     l3405 018D                     l3341 00B2  
                   l3333 00A4                     l3325 0094                     l3317 0081  
                   l3191 0B56                     l3183 0B3B                     l3255 0AF0  
                   l3247 0A8C                     l3239 0A4E                     l3167 179E  
                   l3159 1782                     l3511 057E                     l3503 0510  
                   l3263 171C                     l3095 03F2                     l3087 03C6  
                   l3079 0369                     l3175 1730                     l2607 1757  
                   l3423 01C6                     l3431 01F7                     l3415 01A5  
                   l3407 0196                     l3351 00D2                     l3343 00B7  
                   l3335 00A8                     l3327 0095                     l3319 0082  
                   l3193 0B60                     l3185 0B41                     l3177 0AF2  
                   l3249 0AB0                     l3169 17A3                     l3521 05EA  
                   l3513 059A                     l3505 051D                     l3097 03F7  
                   l3089 03C8                     l3281 0981                     l3273 0961  
                   l3601 0BAB                     l2609 175B                     l3441 022D  
                   l3433 0204                     l3425 01D4                     l3417 01B9  
                   l3409 019C                     l3361 00F0                     l3353 00DE  
                   l3345 00BF                     l3337 00AC                     l3329 0097  
                   l3195 0B66                     l3187 0B4E                     l3179 0AF7  
                   l3531 0674                     l3523 05F8                     l3515 05B6  
                   l3507 0538                     l3259 1712                     l3291 0996  
                   l3283 0985                     l3275 0976                     l3267 094F  
                   l3611 0BD8                     l3603 0BAF                     l3443 0232  
                   l3435 0212                     l3427 01D8                     l3371 011B  
                   l3355 00E2                     l3347 00C0                     l3339 00AD  
                   l2901 091D                     l3197 0B67                     l3189 0B51  
                   l3541 0704                     l3533 0682                     l3525 0615  
                   l3517 05BF                     l3509 0554                     l3461 04A4  
                   l3293 099F                     l3277 0977                     l3269 0958  
                   l3621 0BF3                     l3613 0BDB                     l3605 0BBF  
                   l2661 177A                     l3445 0236                     l3437 0221  
                   l3429 01F1                     l3381 0140                     l3373 0123  
                   l3365 00F9                     l3349 00C2                     l3701 0EED  
                   l2903 091E                     l2911 087A                     l3199 0B6D  
                   l3551 0729                     l3543 0712                     l3535 06AD  
                   l3527 062C                     l3519 05CD                     l3471 04BB  
                   l3463 04A8                     l3279 097F                     l3631 0C20  
                   l3623 0C01                     l3615 0BDF                     l3607 0BCF  
                   l2663 177D                     l2655 1764                     l3447 0238  
                   l3439 0225                     l3391 016B                     l3383 0141  
                   l3375 0125                     l3367 010B                     l3359 00EB  
                   l3711 0F05                     l2593 171D                     l2905 0921  
                   l2921 08A0                     l2913 088C                     l3561 074C  
                   l3545 071B                     l3553 072F                     l3537 06D3  
                   l3529 0649                     l3481 04D2                     l3473 04BD  
                   l3465 04A9                     l3457 049B                     l3289 098D  
                   l3641 0C53                     l3633 0C2A                     l3625 0C0A  
                   l3617 0BE8                     l2657 176A                     l3449 023C  
                   l3377 012A                     l3385 014A                     l3393 016F  
                   l3369 0113                     l3721 0F11                     l3705 0EF8  
                   l3801 0DC7                     l2595 1725                     l2907 094C  
                   l2931 08D3                     l2923 08A9                     l2915 088F  
                   l3571 076B                     l3555 0733                     l3547 071F  
                   l3539 06FB                     l3491 04E7                     l3483 04D3  
                   l3475 04C5                     l3467 04AE                     l3459 04A0  
                   l3299 09A6                     l3643 0C54                     l3635 0C34  
                   l3627 0C11                     l3619 0BEF                     l3731 17AB  
                   l3651 09CD                     l2659 1772                     l3395 0175  
                   l3387 015C                     l3379 013C                     l3723 0F17  
                   l3707 0EFA                     l3811 0E11                     l3803 0DC8  
                   l2597 000F                     l2909 094D                     l2925 08BB  
                   l2917 0898                     l2933 08D9                     l2941 0831  
                   l3581 07B1                     l3573 0784                     l3565 0754  
                   l3557 0734                     l3549 0720                     l3493 04EF  
                   l3485 04D8                     l3477 04CA                     l3469 04B3  
                   l3637 0C4A                     l3629 0C1C                     l3733 17AC  
                   l3661 09E2                     l3653 09CE                     l3397 017D  
                   l3389 015D                     l3725 0F1B                     l3717 0F06  
                   l3821 0E59                     l3813 0E1E                     l3805 0DC9  
                   l2599 0016                     l2927 08C9                     l2919 089C  
                   l2951 0862                     l2943 083A                     l3591 07CE  
                   l3583 07BB                     l3567 0759                     l3575 078A  
                   l3559 0738                     l3495 04F4                     l3487 04DD  
                   l3479 04CE                     l3639 0C4F                     l3751 0C81  
                   l3735 17B0                     l3743 17BC                     l3671 0A0A  
                   l3663 09EE                     l3655 09D1                     l3647 09C7  
                   l3399 017F                     l3727 0F21                     l3831 0EA8  
                   l3815 0E26                     l3823 0E7A                     l3807 0DCE  
                   l2929 08CA                     l2953 086B                     l2945 083E  
                   l2937 0824                     l3585 07BD                     l3593 07D3  
                   l3577 0797                     l3569 0767                     l3497 04F9  
                   l3489 04E5                     l2961 0248                     l3761 0D19  
                   l3753 0C89                     l3737 17B4                     l3745 17CA  
                   l3681 0A31                     l3673 0A0B                     l3665 09F1  
                   l3657 09D2                     l3649 09CC                     l3833 0EAC  
                   l3825 0E82                     l3817 0E2F                     l3809 0DE0  
                   l2947 0842                     l2939 082E                     l2955 0871  
                   l3595 07D7                     l3587 07C9                     l3579 07A2  
                   l2971 025B                     l2963 024C                     l3771 0D6F  
                   l3763 0D21                     l3755 0CA2                     l3747 0C5D  
                   l3739 17B8                     l3683 0A3F                     l3675 0A13  
                   l3667 09FA                     l3659 09E1                     l3691 0ED9  
                   l3835 0EB9                     l3827 0E8D                     l3819 0E50  
                   l2885 001D                     l2893 08E3                     l2949 0854  
                   l3589 07CD                     l2981 0271                     l2973 0263  
                   l2965 0250                     l3765 0D26                     l3757 0CBC  
                   l3749 0C78                     l3685 0A46                     l3677 0A1A  
                   l3669 09FD                     l3693 0EDC                     l3837 0EBD  
                   l3829 0EA4                     l3781 0DB0                     l3773 0D92  
                   l2887 0027                     l2895 08E6                     l2991 0281  
                   l2983 0277                     l2975 0264                     l2967 0251  
                   l2959 0243                     l3599 0BA6                     l3767 0D63  
                   l3759 0CF9                     l3679 0A26                     l3695 0EE0  
                   l3687 0EC8                     l3839 0EC2                     l3791 0DBA  
                   l3783 0DB3                     l3775 0D9C                     l2889 006B  
                   l2897 08F1                     l2993 0286                     l2985 0278  
                   l2969 0256                     l2977 0266                     l3769 0D67  
                   l3689 0ECE                     l3793 0DBC                     l3785 0DB4  
                   l3777 0DA6                     l2899 091C                     l2995 028B  
                   l2987 027C                     l2979 026E                     l3699 0EEB  
                   l3795 0DBE                     l3787 0DB5                     l3779 0DAB  
                   l2997 0293                     l2989 0280                     l3797 0DC2  
                   l3789 0DB8                     l2999 0294                     l3799 0DC4  
                   ?_isr 0071                     u4000 088C                     u4001 088B  
                   u4020 08A0                     u4100 0854                     u4021 089F  
                   u4101 0853                     u4015 0891                     u4040 08BB  
                   u4120 0871                     u4200 02A4                     u4041 08BA  
                   u4121 0870                     u4105 0850                     u4201 02A3  
                   u4210 02A8                     u4130 0250                     u5010 0140  
                   u4035 08A2                     u4115 0863                     u4211 02A7  
                   u4131 024F                     u5011 013F                     u4060 08D9  
                   u4300 032A                     u4220 02E2                     u4140 0256  
                   u5100 01A5                     u4061 08D8                     u4045 08B7  
                   u4301 0329                     u4221 02E1                     u4141 0255  
                   u5101 01A4                     u5005 0135                     u4070 082E  
                   u4230 02ED                     u4150 025B                     u5110 01B9  
                   u5030 015C                     u4055 08CB                     u4071 082D  
                   u4311 033C                     u4231 02EB                     u4151 025A  
                   u5111 01B8                     u5031 015B                     _PIE1 008C  
                   u5200 04AE                     u4400 03F2                     u4320 034E  
                   u4312 0343                     u4240 02EE                     u4160 0277  
                   u5120 01C0                     u5040 0175                     u5201 04AD  
                   u4401 03F1                     u4321 034D                     u4313 034A  
                   u4225 02DE                     u4161 0276                     u5121 01BF  
                   u5041 0174                     u5025 0143                     u4090 0842  
                   u5210 04B3                     u4410 03F7                     u4330 0352  
                   u4250 02FE                     u4170 0280                     u5130 01C6  
                   u5050 017D                     u4091 0841                     u5211 04B2  
                   u4411 03F6                     u4331 0351                     u4251 02FD  
                   u4171 027F                     u5131 01C5                     u5051 017C  
                   u5035 0158                     u5220 04D2                     u4500 043A  
                   u4340 035F                     u4260 030B                     u4180 0286  
                   u5140 01D8                     u4085 0833                     u5301 05A8  
                   u5221 04D1                     u4501 0439                     u4341 035E  
                   u4261 030A                     u4181 0285                     u5141 01D7  
                   u5302 05AF                     u5230 04D8                     u4510 044C  
                   u4430 040D                     u4190 028B                     u5150 01E7  
                   u5070 018C                     u5303 05B6                     u5231 04D7  
                   u4511 044B                     u4431 040C                     u4191 028A  
                   u6007 09F6                     u5071 018B                     u3720 0016  
                   u5400 06E1                     u5240 04DD                     u4520 045B  
                   u4440 0412                     u4360 0384                     u4280 0321  
                   u5160 0204                     u3721 0015                     u5321 05DC  
                   u5241 04DC                     u4441 0411                     u4425 0402  
                   u4361 0383                     u4281 0320                     u6017 0A02  
                   u5161 0203                     u5065 0181                     u4610 17A3  
                   u5322 05E3                     u5250 04F4                     u4530 046A  
                   u4450 041C                     u4290 0325                     u5170 0221  
                   u5090 01A0                     u4611 17A2                     u5411 06ED  
                   u5331 0607                     u5323 05EA                     u5315 05B8  
                   u5251 04F3                     u4531 0469                     u4451 041B  
                   u4371 039B                     u4363 0380                     u4355 0362  
                   u4291 0324                     u4275 030E                     u6027 0A10  
                   u5171 0220                     u5155 01E2                     u5091 019F  
                   u4620 0B4E                     u5500 0759                     u5412 06F4  
                   u5332 060E                     u5260 04F9                     u4540 0473  
                   u4460 0422                     u4380 03AF                     u4372 039C  
                   u5180 0236                     u4700 17F1                     u4621 0B4D  
                   u4605 1796                     u5501 0758                     u5413 06FB  
                   u5405 06DC                     u5333 0615                     u5261 04F8  
                   u4541 0472                     u4525 0456                     u4461 0421  
                   u4381 03B0                     u4373 03A1                     u6037 0A1E  
                   u5181 0235                     u5165 0200                     u5085 018F  
                   u4701 17F0                     u4630 0B56                     u5510 076B  
                   u5190 04A8                     u4550 0478                     u4470 0427  
                   u4390 03CD                     u4382 03B5                     u4374 03A2  
                   u4710 17FE                     u4631 0B55                     u5511 076A  
                   u5351 063B                     u5271 0546                     u5191 04A7  
                   u4551 0477                     u4471 0426                     u4391 03CC  
                   u4383 03B6                     u4375 03A7                     u6047 0A2C  
                   u5175 021D                     u4711 17FD                     u4640 0B60  
                   u4720 0A64                     u5520 077A                     u5440 071F  
                   u5352 0642                     u5272 054D                     u4560 0485  
                   u4480 042D                     u4376 03A8                     u4800 0958  
                   u5600 0BEE                     u4641 0B5F                     u4625 0B4A  
                   u4721 0A63                     u5441 071E                     u5425 06FD  
                   u5361 0666                     u5353 0649                     u5345 0617  
                   u5281 0562                     u5273 0554                     u4561 0484  
                   u4481 042C                     u4801 0957                     u5601 0BED  
                   u6057 0A3C                     u4650 0B7E                     u4730 0A80  
                   u5530 0797                     u5362 066D                     u5282 0569  
                   u4570 048A                     u4490 0434                     u4810 0971  
                   u4651 0B7D                     u4731 0A7F                     u5531 0796  
                   u5435 0714                     u5371 0691                     u5363 0674  
                   u5291 058C                     u5283 0570                     u4571 0489  
                   u4491 0433                     u6067 0A4A                     u4660 0BA2  
                   u4740 0A8C                     u5540 07B1                     u5460 0733  
                   u5380 06B9                     u5372 0698                     u5292 0593  
                   u4580 0499                     u4820 0985                     u5620 0C10  
                   u4900 0081                     u5700 0EE6                     u4661 0BA1  
                   u4741 0A8B                     u5541 07B0                     u5525 0775  
                   u5461 0732                     u5373 069F                     u5293 059A  
                   u4581 0498                     u4821 0984                     u5621 0C0F  
                   u6077 1736                     u4901 0080                     u5701 0EE5  
                   u4590 178F                     u5550 07CD                     u5470 0738  
                   u4830 098C                     u4910 0087                     u4670 17DE  
                   u5710 0EEB                     u4655 0B7A                     u4751 0A9B  
                   u4591 178E                     u5551 07CC                     u5535 0793  
                   u5471 0737                     u5455 0722                     u5391 06C5  
                   u4831 098B                     u4815 096C                     u5615 0C02  
                   u4911 0086                     u4671 17DD                     u5711 0EEA  
                   i1l72 1747                     u4760 0AB4                     u4752 0A9C  
                   u5480 074C                     u5392 06CC                     u5640 0C20  
                   u5560 0BAB                     u4920 008C                     u4680 17E4  
                   u5720 0EF3                     u5800 0DCE                     u4665 0B9E  
                   u4761 0AB3                     u4753 0AA1                     u5545 07AD  
                   u5481 074B                     u5393 06D3                     u5385 06B4  
                   u5641 0C1F                     u5561 0BAA                     u4921 008B  
                   u4681 17E3                     u5721 0EF2                     u5801 0DCD  
                   u4754 0AA2                     u5490 0753                     u4850 099E  
                   u5650 0C26                     u5570 0BAF                     u4930 00AC  
                   u4690 17EC                     u5730 0EF8                     u5810 0E11  
                   u4771 0AC3                     u4755 0AA7                     u5491 0752  
                   u4851 099D                     u5651 0C25                     u5635 0C15  
                   u5571 0BAE                     u4931 00AB                     u4691 17EB  
                   u5731 0EF7                     u5811 0E10                     u4780 0AEE  
                   u4772 0AC4                     u4756 0AA8                     u4860 09A5  
                   u5660 0C2A                     u5580 0BCF                     u4940 00B2  
                   u5740 0F00                     u5820 0E1B                     u4781 0AED  
                   u4773 0AC9                     u4861 09A4                     u4845 098E  
                   u5661 0C29                     u5581 0BCE                     u4941 00B1  
                   u5741 0EFF                     u5821 0E17                     u4774 0ACA  
                   u4790 171A                     u5670 0C3F                     u4950 00B7  
                   u5750 0F05                     u4775 0ACF                     u4791 1719  
                   u4951 00B6                     u5751 0F04                     u3984 0031  
                   u4776 0AD0                     u4880 09B6                     u5680 0C4F  
                   u4960 00D2                     u5760 0F10                     u5840 0E82  
                   u3985 002E                     u4785 0AEA                     u4881 09B5  
                   u5681 0C4E                     u4961 00D1                     u5761 0F0F  
                   u5841 0E81                     u4890 09BB                     u5690 0C53  
                   u4970 00F0                     u5770 0F21                     u5850 0EAC  
                   u5834 0E1E                     u3995 08E9                     u4891 09BA  
                   u4875 09A8                     u5691 0C52                     u5675 0C3A  
                   u5595 0BE0                     u4971 00EF                     u5771 0F20  
                   u5851 0EAB                     u5780 0C78                     u4980 012A  
                   u5860 0EB6                     u5781 0C77                     u4981 0129  
                   u5861 0EB2                     u5790 0D6F                     u5791 0D6E  
                   u5880 0EBD                     u5881 0EBC                     u5874 0EB9  
                   u4995 012C                     u5957 0ED4                     u5967 176E  
                   u5977 1777                     u5987 09D9                     u5997 09E9  
                   _TMR0 0001                     _main 0D92                     _tick 007B  
                   _temp 00AD                     btemp 007E         __end_of_ADC_Init 1729  
       __end_of_ADC_Read 001D                     start 000C          ___fldiv@new_exp 003C  
            LCD_Goto@pos 0042              LCD_Goto@row 0043                    ??_isr 0071  
       __end_of_LCD_Init 0A4E         __end_of_LCD_Goto 17D2             _dht11_config 1764  
          ___fltol@sign1 0077          __end_of___fladd 049B                    ?_main 0071  
        __end_of___fldiv 0243          __end_of___flneg 171D          __end_of___flmul 07E0  
        __end_of___flsub 0824          __end_of___fltol 09C7                    _ANSEL 0188  
        __end_of___lldiv 08E2                    _T1CON 0010          __end_of___llmod 087A  
                  _TMR1H 000F                    _TMR1L 000E                    _PORTB 0006  
                  _TRISB 0086              LCD_Write@RS 0077                    pclath 000A  
       __end_of_PWM_Init 1764                    status 0003                    wtemp0 007E  
           LCD_Int@value 0042             LCD_Int@zeros 0047             LCD_Goto@data 0044  
        __initialization 07E0             __end_of_main 0EC7                   ??_main 0066  
      __end_of_LCD_Clear 173B        __end_of_LCD_Float 0D92                ??_LCD_Int 0048  
      __end_of_LCD_Write 094F                   _ADCON0 001F                   _ADCON1 009F  
       ___llmod@dividend 0024                   _ADRESH 001E                   _ADRESL 009E  
                 _CCPR1L 0015                   i1l1691 1741                   i1l1693 1745  
                 i1l1695 1746                   i1l1689 173B                   _INTCON 000B  
                 u184_20 1741                   u184_21 1740                   _TMR1IF 0060  
                 _TMR1ON 0080         __end_of___xxtofl 0C5D                   ___flge 0A4E  
              ??___fladd 004C                ??___fldiv 0032                ??___flneg 0077  
              ??___flmul 002D                ??___flsub 0077                ??___fltol 0020  
              ??___lldiv 0073                ??___llmod 0073                   _led_on 0068  
         dht11_read@phum 0078             __pdataCOMMON 007B                ?_ADC_Init 0071  
              ?_ADC_Read 0073                   saved_w 007E               ___flge@ff1 0020  
             ___flge@ff2 0024             ___xxtofl@arg 0026             ___xxtofl@exp 0025  
           ___xxtofl@val 0073  __end_of__initialization 07FC                ?_LCD_Init 0071  
              ?_LCD_Goto 0042               ___flneg@f1 0073               ___fltol@f1 0073  
         __pcstackCOMMON 0071               _dht11_byte 00A0               _dht11_read 0EC7  
           __pidataBANK0 1708                ?_PWM_Init 0071           _OPTION_REGbits 0081  
             ??_ADC_Init 0073               ??_ADC_Read 0075               __pbssBANK1 00A0  
             ??_LCD_Init 0044               ??_LCD_Goto 007A        __end_of__Umul8_16 17A8  
             __pmaintext 0D92                  ?___flge 0020               _bit_config 001D  
         bit_config@word 0020               __pintentry 0004               ??_PWM_Init 0073  
                _LCD_Int 0AF2                ?___xxtofl 0073            LCD_Write@data 0079  
            ?_dht11_read 0077                  ___fladd 0243                  ___fldiv 0074  
                ___flneg 1712                  ___flmul 049B                  ___flsub 0800  
                ___fltol 094F                  ___lldiv 087A                  ___llmod 0824  
              _ANSELbits 0188                  __ptext1 0EC7                  __ptext2 17D2  
                __ptext3 0074                  __ptext4 1764                  __ptext5 174E  
                __ptext6 09C7                  __ptext7 1729                  __ptext8 17A8  
                __ptext9 0C5D          dht11_read@ptemp 0077                _T2CONbits 0012  
             ??___xxtofl 0020               _duty_cycle 00AB                _LCD_Clear 1729  
      ??_dht11_read_byte 0073                _LCD_Float 0C5D                  clrloop0 170B  
              _LCD_Write 08E2     end_of_initialization 07FC           LCD_Float@Bruch 00BA  
        ___lldiv@divisor 0020          ___lldiv@counter 0078           LCD_Float@value 0060  
            ?_bit_config 0020       LCD_Float@positions 0064                _PORTAbits 0005  
              _PORTCbits 0007              ___fladd@grs 0057            ___xxtofl@sign 0024  
              _TRISAbits 0085                _TRISCbits 0087               ?_LCD_Clear 0071  
             ?_LCD_Float 0060              ___fldiv@grs 003E              ___fldiv@rem 0037  
             ?_LCD_Write 0077              ___flmul@grs 0034              _CCP1CONbits 0017  
             LCD_Float@i 00B5               LCD_Int@buf 004A     LCD_Float@decimal_pos 0065  
         __end_of___flge 0AF2            __pidataCOMMON 1707      start_initialization 07E0  
            __end_of_isr 174E          ___llmod@divisor 0020          ___llmod@counter 0074  
               ??___flge 0073                __Umul8_16 177F              __pdataBANK0 0068  
          ?_dht11_config 0071                ___fladd@a 0048                ___fladd@b 0044  
              ___fldiv@a 002A                ___fldiv@b 002E                 ?_LCD_Int 0042  
              ___flmul@a 0029                ___flmul@b 0025              __pbssCOMMON 007A  
              ___flsub@a 0058                ___flsub@b 005C                ___latbits 0002  
          __pcstackBANK0 0020            __pcstackBANK1 00B5                 LCD_Int@i 0052  
            ??_LCD_Clear 0042                _dht11_aux 007A              ??_LCD_Float 007A  
            ??_LCD_Write 003A              dht11_read@i 0079     bit_config@bit_number 0024  
           ??_dht11_read 0058                 ?___fladd 0044                 ?___fldiv 002A  
               ?___flneg 0073                 ?___flmul 0025                 ?___flsub 0058  
               ?___fltol 0073                 ?___lldiv 0020                 ?___llmod 0020  
             ?__Umul8_16 0073           ??_dht11_config 0073          _dht11_read_byte 17D2  
               _ADC_Init 171D                 _ADC_Read 000F       __end_of_dht11_read 1000  
      interrupt_function 0004                 _LCD_Init 09C7                 _LCD_Goto 17A8  
              clear_ram0 170A                 _GO_nDONE 00F9             ??_bit_config 002C  
              _pot_value 00A9                 _PWM_Init 174E       __end_of_bit_config 0074  
     LCD_Write@character 0078  __end_of_dht11_read_byte 1800              ??__Umul8_16 0075  
               ___xxtofl 0BA3      bit_config@bit_value 0028                 __ptext10 0BA3  
               __ptext11 094F                 __ptext20 087A                 __ptext12 0800  
               __ptext21 08E2                 __ptext13 0243                 __ptext22 001D  
               __ptext14 1712                 __ptext23 000F                 __ptext15 049B  
               __ptext24 171D                 __ptext16 177F                 __ptext25 173B  
               __ptext17 0A4E                 __ptext18 0AF2                 __ptext19 0824  
   __end_of_dht11_config 177F             _tick_counter 00A5         dht11_read_byte@i 0073  
               intlevel1 0000         ___lldiv@dividend 0024      bit_config@word_temp 0073  
       ?_dht11_read_byte 0071          LCD_Float@number 00B6   __Umul8_16@multiplicand 0073  
       ___lldiv@quotient 0074            ___fladd@signs 0054             ___fladd@aexp 0055  
           ___fladd@bexp 0056     __Umul8_16@multiplier 0024        __Umul8_16@product 0020  
